
/Users/cgg/microemu/tests/system_tests/printf_rdimon/build/printf_rdimon.elf:     file format elf32-littlearm


Disassembly of section .text:

00000000 <__do_global_dtors_aux>:
       0:	b510      	push	{r4, lr}
       2:	4c05      	ldr	r4, [pc, #20]	; (18 <__do_global_dtors_aux+0x18>)
       4:	7823      	ldrb	r3, [r4, #0]
       6:	b933      	cbnz	r3, 16 <__do_global_dtors_aux+0x16>
       8:	4b04      	ldr	r3, [pc, #16]	; (1c <__do_global_dtors_aux+0x1c>)
       a:	b113      	cbz	r3, 12 <__do_global_dtors_aux+0x12>
       c:	4804      	ldr	r0, [pc, #16]	; (20 <__do_global_dtors_aux+0x20>)
       e:	f3af 8000 	nop.w
      12:	2301      	movs	r3, #1
      14:	7023      	strb	r3, [r4, #0]
      16:	bd10      	pop	{r4, pc}
      18:	20000974 	.word	0x20000974
      1c:	00000000 	.word	0x00000000
      20:	00003e64 	.word	0x00003e64

00000024 <frame_dummy>:
      24:	b508      	push	{r3, lr}
      26:	4b03      	ldr	r3, [pc, #12]	; (34 <frame_dummy+0x10>)
      28:	b11b      	cbz	r3, 32 <frame_dummy+0xe>
      2a:	4903      	ldr	r1, [pc, #12]	; (38 <frame_dummy+0x14>)
      2c:	4803      	ldr	r0, [pc, #12]	; (3c <frame_dummy+0x18>)
      2e:	f3af 8000 	nop.w
      32:	bd08      	pop	{r3, pc}
      34:	00000000 	.word	0x00000000
      38:	20000978 	.word	0x20000978
      3c:	00003e64 	.word	0x00003e64

00000040 <_stack_init>:
      40:	2a00      	cmp	r2, #0
      42:	d001      	beq.n	48 <_stack_init+0x8>
      44:	f502 7a80 	add.w	sl, r2, #256	; 0x100
      48:	4770      	bx	lr
      4a:	bf00      	nop

0000004c <_mainCRTStartup>:
      4c:	2016      	movs	r0, #22
      4e:	a131      	add	r1, pc, #196	; (adr r1, 114 <_mainCRTStartup+0xc8>)
      50:	beab      	bkpt	0x00ab
      52:	4830      	ldr	r0, [pc, #192]	; (114 <_mainCRTStartup+0xc8>)
      54:	6841      	ldr	r1, [r0, #4]
      56:	2900      	cmp	r1, #0
      58:	d001      	beq.n	5e <_mainCRTStartup+0x12>
      5a:	4a36      	ldr	r2, [pc, #216]	; (134 <_mainCRTStartup+0xe8>)
      5c:	6011      	str	r1, [r2, #0]
      5e:	6801      	ldr	r1, [r0, #0]
      60:	2900      	cmp	r1, #0
      62:	d101      	bne.n	68 <_mainCRTStartup+0x1c>
      64:	4932      	ldr	r1, [pc, #200]	; (130 <_mainCRTStartup+0xe4>)
      66:	6001      	str	r1, [r0, #0]
      68:	6881      	ldr	r1, [r0, #8]
      6a:	68c2      	ldr	r2, [r0, #12]
      6c:	4b2a      	ldr	r3, [pc, #168]	; (118 <_mainCRTStartup+0xcc>)
      6e:	2900      	cmp	r1, #0
      70:	d000      	beq.n	74 <_mainCRTStartup+0x28>
      72:	460b      	mov	r3, r1
      74:	469d      	mov	sp, r3
      76:	f7ff ffe3 	bl	40 <_stack_init>
      7a:	2100      	movs	r1, #0
      7c:	468b      	mov	fp, r1
      7e:	460f      	mov	r7, r1
      80:	4826      	ldr	r0, [pc, #152]	; (11c <_mainCRTStartup+0xd0>)
      82:	4a27      	ldr	r2, [pc, #156]	; (120 <_mainCRTStartup+0xd4>)
      84:	1a12      	subs	r2, r2, r0
      86:	f001 f8af 	bl	11e8 <memset>
      8a:	f003 fce5 	bl	3a58 <initialise_monitor_handles>
      8e:	2015      	movs	r0, #21
      90:	4926      	ldr	r1, [pc, #152]	; (12c <_mainCRTStartup+0xe0>)
      92:	beab      	bkpt	0x00ab
      94:	4925      	ldr	r1, [pc, #148]	; (12c <_mainCRTStartup+0xe0>)
      96:	6809      	ldr	r1, [r1, #0]
      98:	2000      	movs	r0, #0
      9a:	b401      	push	{r0}
      9c:	780b      	ldrb	r3, [r1, #0]
      9e:	3101      	adds	r1, #1
      a0:	2b00      	cmp	r3, #0
      a2:	d015      	beq.n	d0 <_mainCRTStartup+0x84>
      a4:	2b20      	cmp	r3, #32
      a6:	d0f9      	beq.n	9c <_mainCRTStartup+0x50>
      a8:	2b22      	cmp	r3, #34	; 0x22
      aa:	d001      	beq.n	b0 <_mainCRTStartup+0x64>
      ac:	2b27      	cmp	r3, #39	; 0x27
      ae:	d101      	bne.n	b4 <_mainCRTStartup+0x68>
      b0:	001a      	movs	r2, r3
      b2:	e001      	b.n	b8 <_mainCRTStartup+0x6c>
      b4:	2220      	movs	r2, #32
      b6:	3901      	subs	r1, #1
      b8:	b402      	push	{r1}
      ba:	3001      	adds	r0, #1
      bc:	780b      	ldrb	r3, [r1, #0]
      be:	3101      	adds	r1, #1
      c0:	2b00      	cmp	r3, #0
      c2:	d005      	beq.n	d0 <_mainCRTStartup+0x84>
      c4:	429a      	cmp	r2, r3
      c6:	d1f9      	bne.n	bc <_mainCRTStartup+0x70>
      c8:	2200      	movs	r2, #0
      ca:	1e4b      	subs	r3, r1, #1
      cc:	701a      	strb	r2, [r3, #0]
      ce:	e7e5      	b.n	9c <_mainCRTStartup+0x50>
      d0:	4669      	mov	r1, sp
      d2:	0002      	movs	r2, r0
      d4:	0092      	lsls	r2, r2, #2
      d6:	446a      	add	r2, sp
      d8:	466b      	mov	r3, sp
      da:	429a      	cmp	r2, r3
      dc:	d906      	bls.n	ec <_mainCRTStartup+0xa0>
      de:	3a04      	subs	r2, #4
      e0:	6814      	ldr	r4, [r2, #0]
      e2:	681d      	ldr	r5, [r3, #0]
      e4:	6015      	str	r5, [r2, #0]
      e6:	601c      	str	r4, [r3, #0]
      e8:	3304      	adds	r3, #4
      ea:	e7f6      	b.n	da <_mainCRTStartup+0x8e>
      ec:	466c      	mov	r4, sp
      ee:	2507      	movs	r5, #7
      f0:	43ac      	bics	r4, r5
      f2:	46a5      	mov	sp, r4
      f4:	0004      	movs	r4, r0
      f6:	000d      	movs	r5, r1
      f8:	480a      	ldr	r0, [pc, #40]	; (124 <_mainCRTStartup+0xd8>)
      fa:	2800      	cmp	r0, #0
      fc:	d002      	beq.n	104 <_mainCRTStartup+0xb8>
      fe:	480a      	ldr	r0, [pc, #40]	; (128 <_mainCRTStartup+0xdc>)
     100:	f001 fb10 	bl	1724 <atexit>
     104:	f000 ffd6 	bl	10b4 <__libc_init_array>
     108:	0020      	movs	r0, r4
     10a:	0029      	movs	r1, r5
     10c:	f000 f814 	bl	138 <main>
     110:	f000 ffc0 	bl	1094 <exit>
     114:	20000004 	.word	0x20000004
     118:	20020000 	.word	0x20020000
     11c:	20000974 	.word	0x20000974
     120:	20000a9c 	.word	0x20000a9c
     124:	00001725 	.word	0x00001725
     128:	00001a05 	.word	0x00001a05
     12c:	20000114 	.word	0x20000114
     130:	20000aa0 	.word	0x20000aa0
     134:	2000095c 	.word	0x2000095c

00000138 <main>:
#include <stdio.h>
#include <stdlib.h>

__attribute__((used)) int main() {
     138:	b580      	push	{r7, lr}
     13a:	af00      	add	r7, sp, #0
  printf("hello, world\n");
     13c:	4802      	ldr	r0, [pc, #8]	; (148 <main+0x10>)
     13e:	f001 f8f3 	bl	1328 <puts>
  return 1;
     142:	2301      	movs	r3, #1
     144:	4618      	mov	r0, r3
     146:	bd80      	pop	{r7, pc}
     148:	00003e0c 	.word	0x00003e0c

0000014c <_exit>:
///
/// @param status User supplied argument to exit() call.
///
/// @returns This function does not return.
/// @ingroup SystemCalls
void _exit(int status) {
     14c:	b480      	push	{r7}
     14e:	b083      	sub	sp, #12
     150:	af00      	add	r7, sp, #0
     152:	6078      	str	r0, [r7, #4]
  __asm__("MOV r0, %[exit_code] \n"
     154:	687b      	ldr	r3, [r7, #4]
     156:	4618      	mov	r0, r3
     158:	df01      	svc	1
          "SVC #0x01           \n"
          :
          : [exit_code] "r"(status)
          : "r0");
  while (1) {
     15a:	e7fe      	b.n	15a <_exit+0xe>

0000015c <selfrel_offset31>:
     15c:	6803      	ldr	r3, [r0, #0]
     15e:	005a      	lsls	r2, r3, #1
     160:	bf4c      	ite	mi
     162:	f043 4300 	orrmi.w	r3, r3, #2147483648	; 0x80000000
     166:	f023 4300 	bicpl.w	r3, r3, #2147483648	; 0x80000000
     16a:	4418      	add	r0, r3
     16c:	4770      	bx	lr
     16e:	bf00      	nop

00000170 <search_EIT_table>:
     170:	e92d 43f8 	stmdb	sp!, {r3, r4, r5, r6, r7, r8, r9, lr}
     174:	b339      	cbz	r1, 1c6 <search_EIT_table+0x56>
     176:	1e4f      	subs	r7, r1, #1
     178:	4604      	mov	r4, r0
     17a:	4615      	mov	r5, r2
     17c:	463e      	mov	r6, r7
     17e:	f04f 0800 	mov.w	r8, #0
     182:	eb08 0106 	add.w	r1, r8, r6
     186:	eb01 71d1 	add.w	r1, r1, r1, lsr #31
     18a:	1049      	asrs	r1, r1, #1
     18c:	eb04 09c1 	add.w	r9, r4, r1, lsl #3
     190:	4648      	mov	r0, r9
     192:	f7ff ffe3 	bl	15c <selfrel_offset31>
     196:	4603      	mov	r3, r0
     198:	00c8      	lsls	r0, r1, #3
     19a:	3008      	adds	r0, #8
     19c:	428f      	cmp	r7, r1
     19e:	4420      	add	r0, r4
     1a0:	d00b      	beq.n	1ba <search_EIT_table+0x4a>
     1a2:	42ab      	cmp	r3, r5
     1a4:	d80b      	bhi.n	1be <search_EIT_table+0x4e>
     1a6:	f7ff ffd9 	bl	15c <selfrel_offset31>
     1aa:	3801      	subs	r0, #1
     1ac:	42a8      	cmp	r0, r5
     1ae:	f101 0801 	add.w	r8, r1, #1
     1b2:	d3e6      	bcc.n	182 <search_EIT_table+0x12>
     1b4:	4648      	mov	r0, r9
     1b6:	e8bd 83f8 	ldmia.w	sp!, {r3, r4, r5, r6, r7, r8, r9, pc}
     1ba:	42ab      	cmp	r3, r5
     1bc:	d9fa      	bls.n	1b4 <search_EIT_table+0x44>
     1be:	4588      	cmp	r8, r1
     1c0:	d001      	beq.n	1c6 <search_EIT_table+0x56>
     1c2:	1e4e      	subs	r6, r1, #1
     1c4:	e7dd      	b.n	182 <search_EIT_table+0x12>
     1c6:	f04f 0900 	mov.w	r9, #0
     1ca:	4648      	mov	r0, r9
     1cc:	e8bd 83f8 	ldmia.w	sp!, {r3, r4, r5, r6, r7, r8, r9, pc}

000001d0 <__gnu_unwind_get_pr_addr>:
     1d0:	2801      	cmp	r0, #1
     1d2:	d007      	beq.n	1e4 <__gnu_unwind_get_pr_addr+0x14>
     1d4:	2802      	cmp	r0, #2
     1d6:	d007      	beq.n	1e8 <__gnu_unwind_get_pr_addr+0x18>
     1d8:	4b04      	ldr	r3, [pc, #16]	; (1ec <__gnu_unwind_get_pr_addr+0x1c>)
     1da:	2800      	cmp	r0, #0
     1dc:	bf0c      	ite	eq
     1de:	4618      	moveq	r0, r3
     1e0:	2000      	movne	r0, #0
     1e2:	4770      	bx	lr
     1e4:	4802      	ldr	r0, [pc, #8]	; (1f0 <__gnu_unwind_get_pr_addr+0x20>)
     1e6:	4770      	bx	lr
     1e8:	4802      	ldr	r0, [pc, #8]	; (1f4 <__gnu_unwind_get_pr_addr+0x24>)
     1ea:	4770      	bx	lr
     1ec:	000008c1 	.word	0x000008c1
     1f0:	000008c5 	.word	0x000008c5
     1f4:	000008c9 	.word	0x000008c9

000001f8 <get_eit_entry>:
     1f8:	b530      	push	{r4, r5, lr}
     1fa:	4b24      	ldr	r3, [pc, #144]	; (28c <get_eit_entry+0x94>)
     1fc:	4604      	mov	r4, r0
     1fe:	b083      	sub	sp, #12
     200:	1e8d      	subs	r5, r1, #2
     202:	b33b      	cbz	r3, 254 <get_eit_entry+0x5c>
     204:	4628      	mov	r0, r5
     206:	a901      	add	r1, sp, #4
     208:	f3af 8000 	nop.w
     20c:	b1e8      	cbz	r0, 24a <get_eit_entry+0x52>
     20e:	9901      	ldr	r1, [sp, #4]
     210:	462a      	mov	r2, r5
     212:	f7ff ffad 	bl	170 <search_EIT_table>
     216:	4601      	mov	r1, r0
     218:	b1b8      	cbz	r0, 24a <get_eit_entry+0x52>
     21a:	f7ff ff9f 	bl	15c <selfrel_offset31>
     21e:	684b      	ldr	r3, [r1, #4]
     220:	64a0      	str	r0, [r4, #72]	; 0x48
     222:	2b01      	cmp	r3, #1
     224:	d02e      	beq.n	284 <get_eit_entry+0x8c>
     226:	2b00      	cmp	r3, #0
     228:	db27      	blt.n	27a <get_eit_entry+0x82>
     22a:	1d08      	adds	r0, r1, #4
     22c:	f7ff ff96 	bl	15c <selfrel_offset31>
     230:	2300      	movs	r3, #0
     232:	e9c4 0313 	strd	r0, r3, [r4, #76]	; 0x4c
     236:	6803      	ldr	r3, [r0, #0]
     238:	2b00      	cmp	r3, #0
     23a:	db12      	blt.n	262 <get_eit_entry+0x6a>
     23c:	f7ff ff8e 	bl	15c <selfrel_offset31>
     240:	4603      	mov	r3, r0
     242:	2000      	movs	r0, #0
     244:	6123      	str	r3, [r4, #16]
     246:	b003      	add	sp, #12
     248:	bd30      	pop	{r4, r5, pc}
     24a:	2300      	movs	r3, #0
     24c:	2009      	movs	r0, #9
     24e:	6123      	str	r3, [r4, #16]
     250:	b003      	add	sp, #12
     252:	bd30      	pop	{r4, r5, pc}
     254:	4b0e      	ldr	r3, [pc, #56]	; (290 <get_eit_entry+0x98>)
     256:	490f      	ldr	r1, [pc, #60]	; (294 <get_eit_entry+0x9c>)
     258:	4618      	mov	r0, r3
     25a:	1ac9      	subs	r1, r1, r3
     25c:	10c9      	asrs	r1, r1, #3
     25e:	9101      	str	r1, [sp, #4]
     260:	e7d6      	b.n	210 <get_eit_entry+0x18>
     262:	f3c3 6003 	ubfx	r0, r3, #24, #4
     266:	f7ff ffb3 	bl	1d0 <__gnu_unwind_get_pr_addr>
     26a:	2800      	cmp	r0, #0
     26c:	4603      	mov	r3, r0
     26e:	bf14      	ite	ne
     270:	2000      	movne	r0, #0
     272:	2009      	moveq	r0, #9
     274:	6123      	str	r3, [r4, #16]
     276:	b003      	add	sp, #12
     278:	bd30      	pop	{r4, r5, pc}
     27a:	2301      	movs	r3, #1
     27c:	1d08      	adds	r0, r1, #4
     27e:	e9c4 0313 	strd	r0, r3, [r4, #76]	; 0x4c
     282:	e7d8      	b.n	236 <get_eit_entry+0x3e>
     284:	2300      	movs	r3, #0
     286:	2005      	movs	r0, #5
     288:	6123      	str	r3, [r4, #16]
     28a:	e7dc      	b.n	246 <get_eit_entry+0x4e>
     28c:	00000000 	.word	0x00000000
     290:	00003e80 	.word	0x00003e80
     294:	00003f48 	.word	0x00003f48

00000298 <restore_non_core_regs>:
     298:	6803      	ldr	r3, [r0, #0]
     29a:	b510      	push	{r4, lr}
     29c:	07da      	lsls	r2, r3, #31
     29e:	4604      	mov	r4, r0
     2a0:	d406      	bmi.n	2b0 <restore_non_core_regs+0x18>
     2a2:	079b      	lsls	r3, r3, #30
     2a4:	f100 0048 	add.w	r0, r0, #72	; 0x48
     2a8:	d509      	bpl.n	2be <restore_non_core_regs+0x26>
     2aa:	f000 fc5d 	bl	b68 <__gnu_Unwind_Restore_VFP_D>
     2ae:	6823      	ldr	r3, [r4, #0]
     2b0:	0759      	lsls	r1, r3, #29
     2b2:	d509      	bpl.n	2c8 <restore_non_core_regs+0x30>
     2b4:	071a      	lsls	r2, r3, #28
     2b6:	d50e      	bpl.n	2d6 <restore_non_core_regs+0x3e>
     2b8:	06db      	lsls	r3, r3, #27
     2ba:	d513      	bpl.n	2e4 <restore_non_core_regs+0x4c>
     2bc:	bd10      	pop	{r4, pc}
     2be:	f000 fc4b 	bl	b58 <__gnu_Unwind_Restore_VFP>
     2c2:	6823      	ldr	r3, [r4, #0]
     2c4:	0759      	lsls	r1, r3, #29
     2c6:	d4f5      	bmi.n	2b4 <restore_non_core_regs+0x1c>
     2c8:	f104 00d0 	add.w	r0, r4, #208	; 0xd0
     2cc:	f000 fc54 	bl	b78 <__gnu_Unwind_Restore_VFP_D_16_to_31>
     2d0:	6823      	ldr	r3, [r4, #0]
     2d2:	071a      	lsls	r2, r3, #28
     2d4:	d4f0      	bmi.n	2b8 <restore_non_core_regs+0x20>
     2d6:	f504 70a8 	add.w	r0, r4, #336	; 0x150
     2da:	f000 fc55 	bl	b88 <__gnu_Unwind_Restore_WMMXD>
     2de:	6823      	ldr	r3, [r4, #0]
     2e0:	06db      	lsls	r3, r3, #27
     2e2:	d4eb      	bmi.n	2bc <restore_non_core_regs+0x24>
     2e4:	f504 70e8 	add.w	r0, r4, #464	; 0x1d0
     2e8:	e8bd 4010 	ldmia.w	sp!, {r4, lr}
     2ec:	f000 bc90 	b.w	c10 <__gnu_Unwind_Restore_WMMXC>

000002f0 <__gnu_unwind_24bit.constprop.0>:
     2f0:	2009      	movs	r0, #9
     2f2:	4770      	bx	lr

000002f4 <_Unwind_decode_typeinfo_ptr.constprop.0>:
     2f4:	4603      	mov	r3, r0
     2f6:	6800      	ldr	r0, [r0, #0]
     2f8:	b100      	cbz	r0, 2fc <_Unwind_decode_typeinfo_ptr.constprop.0+0x8>
     2fa:	4418      	add	r0, r3
     2fc:	4770      	bx	lr
     2fe:	bf00      	nop

00000300 <_Unwind_DebugHook>:
     300:	4770      	bx	lr
     302:	bf00      	nop

00000304 <unwind_phase2>:
     304:	b570      	push	{r4, r5, r6, lr}
     306:	4604      	mov	r4, r0
     308:	460e      	mov	r6, r1
     30a:	4620      	mov	r0, r4
     30c:	6c31      	ldr	r1, [r6, #64]	; 0x40
     30e:	f7ff ff73 	bl	1f8 <get_eit_entry>
     312:	4605      	mov	r5, r0
     314:	b998      	cbnz	r0, 33e <unwind_phase2+0x3a>
     316:	f8d6 c040 	ldr.w	ip, [r6, #64]	; 0x40
     31a:	4632      	mov	r2, r6
     31c:	4621      	mov	r1, r4
     31e:	2001      	movs	r0, #1
     320:	6923      	ldr	r3, [r4, #16]
     322:	f8c4 c014 	str.w	ip, [r4, #20]
     326:	4798      	blx	r3
     328:	2808      	cmp	r0, #8
     32a:	d0ee      	beq.n	30a <unwind_phase2+0x6>
     32c:	2807      	cmp	r0, #7
     32e:	d106      	bne.n	33e <unwind_phase2+0x3a>
     330:	4628      	mov	r0, r5
     332:	6c31      	ldr	r1, [r6, #64]	; 0x40
     334:	f7ff ffe4 	bl	300 <_Unwind_DebugHook>
     338:	1d30      	adds	r0, r6, #4
     33a:	f000 fc01 	bl	b40 <__restore_core_regs>
     33e:	f000 fea1 	bl	1084 <abort>
     342:	bf00      	nop

00000344 <unwind_phase2_forced>:
     344:	e92d 47f0 	stmdb	sp!, {r4, r5, r6, r7, r8, r9, sl, lr}
     348:	f04f 0a00 	mov.w	sl, #0
     34c:	f5ad 7d72 	sub.w	sp, sp, #968	; 0x3c8
     350:	f10d 0e0c 	add.w	lr, sp, #12
     354:	f101 0c04 	add.w	ip, r1, #4
     358:	68c7      	ldr	r7, [r0, #12]
     35a:	f8d0 8018 	ldr.w	r8, [r0, #24]
     35e:	4606      	mov	r6, r0
     360:	4614      	mov	r4, r2
     362:	e8bc 000f 	ldmia.w	ip!, {r0, r1, r2, r3}
     366:	e8ae 000f 	stmia.w	lr!, {r0, r1, r2, r3}
     36a:	e8bc 000f 	ldmia.w	ip!, {r0, r1, r2, r3}
     36e:	e8ae 000f 	stmia.w	lr!, {r0, r1, r2, r3}
     372:	e8bc 000f 	ldmia.w	ip!, {r0, r1, r2, r3}
     376:	e8ae 000f 	stmia.w	lr!, {r0, r1, r2, r3}
     37a:	e89c 000f 	ldmia.w	ip, {r0, r1, r2, r3}
     37e:	ad02      	add	r5, sp, #8
     380:	e88e 000f 	stmia.w	lr, {r0, r1, r2, r3}
     384:	f8c5 a000 	str.w	sl, [r5]
     388:	e021      	b.n	3ce <unwind_phase2_forced+0x8a>
     38a:	6c2b      	ldr	r3, [r5, #64]	; 0x40
     38c:	f44f 72f0 	mov.w	r2, #480	; 0x1e0
     390:	4629      	mov	r1, r5
     392:	6173      	str	r3, [r6, #20]
     394:	a87a      	add	r0, sp, #488	; 0x1e8
     396:	f000 feb1 	bl	10fc <memcpy>
     39a:	4631      	mov	r1, r6
     39c:	4650      	mov	r0, sl
     39e:	6933      	ldr	r3, [r6, #16]
     3a0:	aa7a      	add	r2, sp, #488	; 0x1e8
     3a2:	4798      	blx	r3
     3a4:	9c88      	ldr	r4, [sp, #544]	; 0x220
     3a6:	4682      	mov	sl, r0
     3a8:	646c      	str	r4, [r5, #68]	; 0x44
     3aa:	4633      	mov	r3, r6
     3ac:	4632      	mov	r2, r6
     3ae:	4649      	mov	r1, r9
     3b0:	2001      	movs	r0, #1
     3b2:	e9cd 5800 	strd	r5, r8, [sp]
     3b6:	47b8      	blx	r7
     3b8:	4604      	mov	r4, r0
     3ba:	b9f0      	cbnz	r0, 3fa <unwind_phase2_forced+0xb6>
     3bc:	f44f 72f0 	mov.w	r2, #480	; 0x1e0
     3c0:	4628      	mov	r0, r5
     3c2:	a97a      	add	r1, sp, #488	; 0x1e8
     3c4:	f000 fe9a 	bl	10fc <memcpy>
     3c8:	f1ba 0f08 	cmp.w	sl, #8
     3cc:	d11b      	bne.n	406 <Stack_Size+0x6>
     3ce:	4630      	mov	r0, r6
     3d0:	6c29      	ldr	r1, [r5, #64]	; 0x40
     3d2:	f7ff ff11 	bl	1f8 <get_eit_entry>
     3d6:	f104 0909 	add.w	r9, r4, #9
     3da:	fa5f fa89 	uxtb.w	sl, r9
     3de:	4604      	mov	r4, r0
     3e0:	2800      	cmp	r0, #0
     3e2:	d0d2      	beq.n	38a <unwind_phase2_forced+0x46>
     3e4:	6ba9      	ldr	r1, [r5, #56]	; 0x38
     3e6:	4633      	mov	r3, r6
     3e8:	6469      	str	r1, [r5, #68]	; 0x44
     3ea:	4632      	mov	r2, r6
     3ec:	2001      	movs	r0, #1
     3ee:	e9cd 5800 	strd	r5, r8, [sp]
     3f2:	f04a 0110 	orr.w	r1, sl, #16
     3f6:	47b8      	blx	r7
     3f8:	b100      	cbz	r0, 3fc <unwind_phase2_forced+0xb8>
     3fa:	2409      	movs	r4, #9
     3fc:	4620      	mov	r0, r4
     3fe:	f50d 7d72 	add.w	sp, sp, #968	; 0x3c8
     402:	e8bd 87f0 	ldmia.w	sp!, {r4, r5, r6, r7, r8, r9, sl, pc}
     406:	f1ba 0f07 	cmp.w	sl, #7
     40a:	d1f6      	bne.n	3fa <unwind_phase2_forced+0xb6>
     40c:	4620      	mov	r0, r4
     40e:	6c29      	ldr	r1, [r5, #64]	; 0x40
     410:	f7ff ff76 	bl	300 <_Unwind_DebugHook>
     414:	a803      	add	r0, sp, #12
     416:	f000 fb93 	bl	b40 <__restore_core_regs>
     41a:	bf00      	nop

0000041c <_Unwind_GetCFA>:
     41c:	6c40      	ldr	r0, [r0, #68]	; 0x44
     41e:	4770      	bx	lr

00000420 <__gnu_Unwind_RaiseException>:
     420:	b5f0      	push	{r4, r5, r6, r7, lr}
     422:	f04f 37ff 	mov.w	r7, #4294967295	; 0xffffffff
     426:	6bcb      	ldr	r3, [r1, #60]	; 0x3c
     428:	b0f9      	sub	sp, #484	; 0x1e4
     42a:	640b      	str	r3, [r1, #64]	; 0x40
     42c:	ac01      	add	r4, sp, #4
     42e:	f101 0c04 	add.w	ip, r1, #4
     432:	460e      	mov	r6, r1
     434:	4605      	mov	r5, r0
     436:	e8bc 000f 	ldmia.w	ip!, {r0, r1, r2, r3}
     43a:	c40f      	stmia	r4!, {r0, r1, r2, r3}
     43c:	e8bc 000f 	ldmia.w	ip!, {r0, r1, r2, r3}
     440:	c40f      	stmia	r4!, {r0, r1, r2, r3}
     442:	e8bc 000f 	ldmia.w	ip!, {r0, r1, r2, r3}
     446:	c40f      	stmia	r4!, {r0, r1, r2, r3}
     448:	e89c 000f 	ldmia.w	ip, {r0, r1, r2, r3}
     44c:	e884 000f 	stmia.w	r4, {r0, r1, r2, r3}
     450:	9700      	str	r7, [sp, #0]
     452:	e006      	b.n	462 <__gnu_Unwind_RaiseException+0x42>
     454:	466a      	mov	r2, sp
     456:	4629      	mov	r1, r5
     458:	692b      	ldr	r3, [r5, #16]
     45a:	4798      	blx	r3
     45c:	2808      	cmp	r0, #8
     45e:	4604      	mov	r4, r0
     460:	d108      	bne.n	474 <__gnu_Unwind_RaiseException+0x54>
     462:	4628      	mov	r0, r5
     464:	9910      	ldr	r1, [sp, #64]	; 0x40
     466:	f7ff fec7 	bl	1f8 <get_eit_entry>
     46a:	2800      	cmp	r0, #0
     46c:	d0f2      	beq.n	454 <__gnu_Unwind_RaiseException+0x34>
     46e:	2009      	movs	r0, #9
     470:	b079      	add	sp, #484	; 0x1e4
     472:	bdf0      	pop	{r4, r5, r6, r7, pc}
     474:	4668      	mov	r0, sp
     476:	f7ff ff0f 	bl	298 <restore_non_core_regs>
     47a:	2c06      	cmp	r4, #6
     47c:	d1f7      	bne.n	46e <__gnu_Unwind_RaiseException+0x4e>
     47e:	4631      	mov	r1, r6
     480:	4628      	mov	r0, r5
     482:	f7ff ff3f 	bl	304 <unwind_phase2>
     486:	bf00      	nop

00000488 <__gnu_Unwind_ForcedUnwind>:
     488:	b410      	push	{r4}
     48a:	4614      	mov	r4, r2
     48c:	6184      	str	r4, [r0, #24]
     48e:	6bdc      	ldr	r4, [r3, #60]	; 0x3c
     490:	60c1      	str	r1, [r0, #12]
     492:	2200      	movs	r2, #0
     494:	641c      	str	r4, [r3, #64]	; 0x40
     496:	4619      	mov	r1, r3
     498:	bc10      	pop	{r4}
     49a:	e753      	b.n	344 <unwind_phase2_forced>

0000049c <__gnu_Unwind_Resume>:
     49c:	b570      	push	{r4, r5, r6, lr}
     49e:	6943      	ldr	r3, [r0, #20]
     4a0:	68c6      	ldr	r6, [r0, #12]
     4a2:	640b      	str	r3, [r1, #64]	; 0x40
     4a4:	b9ae      	cbnz	r6, 4d2 <__gnu_Unwind_Resume+0x36>
     4a6:	460a      	mov	r2, r1
     4a8:	6903      	ldr	r3, [r0, #16]
     4aa:	4604      	mov	r4, r0
     4ac:	460d      	mov	r5, r1
     4ae:	4601      	mov	r1, r0
     4b0:	2002      	movs	r0, #2
     4b2:	4798      	blx	r3
     4b4:	2807      	cmp	r0, #7
     4b6:	d005      	beq.n	4c4 <__gnu_Unwind_Resume+0x28>
     4b8:	2808      	cmp	r0, #8
     4ba:	d10f      	bne.n	4dc <__gnu_Unwind_Resume+0x40>
     4bc:	4629      	mov	r1, r5
     4be:	4620      	mov	r0, r4
     4c0:	f7ff ff20 	bl	304 <unwind_phase2>
     4c4:	4630      	mov	r0, r6
     4c6:	6c29      	ldr	r1, [r5, #64]	; 0x40
     4c8:	f7ff ff1a 	bl	300 <_Unwind_DebugHook>
     4cc:	1d28      	adds	r0, r5, #4
     4ce:	f000 fb37 	bl	b40 <__restore_core_regs>
     4d2:	2201      	movs	r2, #1
     4d4:	f7ff ff36 	bl	344 <unwind_phase2_forced>
     4d8:	f000 fdd4 	bl	1084 <abort>
     4dc:	f000 fdd2 	bl	1084 <abort>

000004e0 <__gnu_Unwind_Resume_or_Rethrow>:
     4e0:	68c2      	ldr	r2, [r0, #12]
     4e2:	b12a      	cbz	r2, 4f0 <__gnu_Unwind_Resume_or_Rethrow+0x10>
     4e4:	f8d1 c03c 	ldr.w	ip, [r1, #60]	; 0x3c
     4e8:	2200      	movs	r2, #0
     4ea:	f8c1 c040 	str.w	ip, [r1, #64]	; 0x40
     4ee:	e729      	b.n	344 <unwind_phase2_forced>
     4f0:	e796      	b.n	420 <__gnu_Unwind_RaiseException>
     4f2:	bf00      	nop

000004f4 <_Unwind_Complete>:
     4f4:	4770      	bx	lr
     4f6:	bf00      	nop

000004f8 <_Unwind_DeleteException>:
     4f8:	6883      	ldr	r3, [r0, #8]
     4fa:	4601      	mov	r1, r0
     4fc:	b10b      	cbz	r3, 502 <_Unwind_DeleteException+0xa>
     4fe:	2001      	movs	r0, #1
     500:	4718      	bx	r3
     502:	4770      	bx	lr

00000504 <_Unwind_VRS_Get>:
     504:	2901      	cmp	r1, #1
     506:	d012      	beq.n	52e <_Unwind_VRS_Get+0x2a>
     508:	d809      	bhi.n	51e <_Unwind_VRS_Get+0x1a>
     50a:	b973      	cbnz	r3, 52a <_Unwind_VRS_Get+0x26>
     50c:	2a0f      	cmp	r2, #15
     50e:	d80c      	bhi.n	52a <_Unwind_VRS_Get+0x26>
     510:	eb00 0082 	add.w	r0, r0, r2, lsl #2
     514:	6842      	ldr	r2, [r0, #4]
     516:	4618      	mov	r0, r3
     518:	9b00      	ldr	r3, [sp, #0]
     51a:	601a      	str	r2, [r3, #0]
     51c:	4770      	bx	lr
     51e:	3903      	subs	r1, #3
     520:	2901      	cmp	r1, #1
     522:	bf94      	ite	ls
     524:	2001      	movls	r0, #1
     526:	2002      	movhi	r0, #2
     528:	4770      	bx	lr
     52a:	2002      	movs	r0, #2
     52c:	4770      	bx	lr
     52e:	4608      	mov	r0, r1
     530:	4770      	bx	lr
     532:	bf00      	nop

00000534 <_Unwind_GetGR>:
     534:	2300      	movs	r3, #0
     536:	b500      	push	{lr}
     538:	b085      	sub	sp, #20
     53a:	460a      	mov	r2, r1
     53c:	a903      	add	r1, sp, #12
     53e:	9100      	str	r1, [sp, #0]
     540:	4619      	mov	r1, r3
     542:	f7ff ffdf 	bl	504 <_Unwind_VRS_Get>
     546:	9803      	ldr	r0, [sp, #12]
     548:	b005      	add	sp, #20
     54a:	f85d fb04 	ldr.w	pc, [sp], #4
     54e:	bf00      	nop

00000550 <_Unwind_VRS_Set>:
     550:	2901      	cmp	r1, #1
     552:	d012      	beq.n	57a <_Unwind_VRS_Set+0x2a>
     554:	d809      	bhi.n	56a <_Unwind_VRS_Set+0x1a>
     556:	b973      	cbnz	r3, 576 <_Unwind_VRS_Set+0x26>
     558:	2a0f      	cmp	r2, #15
     55a:	d80c      	bhi.n	576 <_Unwind_VRS_Set+0x26>
     55c:	9900      	ldr	r1, [sp, #0]
     55e:	eb00 0282 	add.w	r2, r0, r2, lsl #2
     562:	6809      	ldr	r1, [r1, #0]
     564:	4618      	mov	r0, r3
     566:	6051      	str	r1, [r2, #4]
     568:	4770      	bx	lr
     56a:	3903      	subs	r1, #3
     56c:	2901      	cmp	r1, #1
     56e:	bf94      	ite	ls
     570:	2001      	movls	r0, #1
     572:	2002      	movhi	r0, #2
     574:	4770      	bx	lr
     576:	2002      	movs	r0, #2
     578:	4770      	bx	lr
     57a:	4608      	mov	r0, r1
     57c:	4770      	bx	lr
     57e:	bf00      	nop

00000580 <_Unwind_SetGR>:
     580:	2300      	movs	r3, #0
     582:	b510      	push	{r4, lr}
     584:	b084      	sub	sp, #16
     586:	ac03      	add	r4, sp, #12
     588:	9203      	str	r2, [sp, #12]
     58a:	9400      	str	r4, [sp, #0]
     58c:	460a      	mov	r2, r1
     58e:	4619      	mov	r1, r3
     590:	f7ff ffde 	bl	550 <_Unwind_VRS_Set>
     594:	b004      	add	sp, #16
     596:	bd10      	pop	{r4, pc}

00000598 <__gnu_Unwind_Backtrace>:
     598:	b570      	push	{r4, r5, r6, lr}
     59a:	f04f 36ff 	mov.w	r6, #4294967295	; 0xffffffff
     59e:	6bd3      	ldr	r3, [r2, #60]	; 0x3c
     5a0:	f5ad 7d0e 	sub.w	sp, sp, #568	; 0x238
     5a4:	6413      	str	r3, [r2, #64]	; 0x40
     5a6:	f10d 0e5c 	add.w	lr, sp, #92	; 0x5c
     5aa:	f102 0c04 	add.w	ip, r2, #4
     5ae:	4605      	mov	r5, r0
     5b0:	460c      	mov	r4, r1
     5b2:	e8bc 000f 	ldmia.w	ip!, {r0, r1, r2, r3}
     5b6:	e8ae 000f 	stmia.w	lr!, {r0, r1, r2, r3}
     5ba:	e8bc 000f 	ldmia.w	ip!, {r0, r1, r2, r3}
     5be:	e8ae 000f 	stmia.w	lr!, {r0, r1, r2, r3}
     5c2:	e8bc 000f 	ldmia.w	ip!, {r0, r1, r2, r3}
     5c6:	e8ae 000f 	stmia.w	lr!, {r0, r1, r2, r3}
     5ca:	e89c 000f 	ldmia.w	ip, {r0, r1, r2, r3}
     5ce:	e88e 000f 	stmia.w	lr, {r0, r1, r2, r3}
     5d2:	9616      	str	r6, [sp, #88]	; 0x58
     5d4:	e012      	b.n	5fc <__gnu_Unwind_Backtrace+0x64>
     5d6:	210c      	movs	r1, #12
     5d8:	a816      	add	r0, sp, #88	; 0x58
     5da:	466a      	mov	r2, sp
     5dc:	f7ff ffd0 	bl	580 <_Unwind_SetGR>
     5e0:	4621      	mov	r1, r4
     5e2:	a816      	add	r0, sp, #88	; 0x58
     5e4:	47a8      	blx	r5
     5e6:	b978      	cbnz	r0, 608 <__gnu_Unwind_Backtrace+0x70>
     5e8:	4669      	mov	r1, sp
     5ea:	2008      	movs	r0, #8
     5ec:	9b04      	ldr	r3, [sp, #16]
     5ee:	aa16      	add	r2, sp, #88	; 0x58
     5f0:	4798      	blx	r3
     5f2:	2805      	cmp	r0, #5
     5f4:	4606      	mov	r6, r0
     5f6:	d008      	beq.n	60a <__gnu_Unwind_Backtrace+0x72>
     5f8:	2809      	cmp	r0, #9
     5fa:	d005      	beq.n	608 <__gnu_Unwind_Backtrace+0x70>
     5fc:	4668      	mov	r0, sp
     5fe:	9926      	ldr	r1, [sp, #152]	; 0x98
     600:	f7ff fdfa 	bl	1f8 <get_eit_entry>
     604:	2800      	cmp	r0, #0
     606:	d0e6      	beq.n	5d6 <__gnu_Unwind_Backtrace+0x3e>
     608:	2609      	movs	r6, #9
     60a:	a816      	add	r0, sp, #88	; 0x58
     60c:	f7ff fe44 	bl	298 <restore_non_core_regs>
     610:	4630      	mov	r0, r6
     612:	f50d 7d0e 	add.w	sp, sp, #568	; 0x238
     616:	bd70      	pop	{r4, r5, r6, pc}

00000618 <__gnu_unwind_pr_common>:
     618:	e92d 4ff0 	stmdb	sp!, {r4, r5, r6, r7, r8, r9, sl, fp, lr}
     61c:	461e      	mov	r6, r3
     61e:	6ccc      	ldr	r4, [r1, #76]	; 0x4c
     620:	b089      	sub	sp, #36	; 0x24
     622:	f854 3b04 	ldr.w	r3, [r4], #4
     626:	460d      	mov	r5, r1
     628:	4617      	mov	r7, r2
     62a:	f000 0803 	and.w	r8, r0, #3
     62e:	9406      	str	r4, [sp, #24]
     630:	2e00      	cmp	r6, #0
     632:	d079      	beq.n	728 <__gnu_unwind_pr_common+0x110>
     634:	2202      	movs	r2, #2
     636:	f88d 201c 	strb.w	r2, [sp, #28]
     63a:	0c1a      	lsrs	r2, r3, #16
     63c:	f88d 201d 	strb.w	r2, [sp, #29]
     640:	041b      	lsls	r3, r3, #16
     642:	b2d2      	uxtb	r2, r2
     644:	9305      	str	r3, [sp, #20]
     646:	eb04 0482 	add.w	r4, r4, r2, lsl #2
     64a:	6d2b      	ldr	r3, [r5, #80]	; 0x50
     64c:	f1b8 0f02 	cmp.w	r8, #2
     650:	bf08      	it	eq
     652:	6bac      	ldreq	r4, [r5, #56]	; 0x38
     654:	f013 0301 	ands.w	r3, r3, #1
     658:	d00c      	beq.n	674 <__gnu_unwind_pr_common+0x5c>
     65a:	4638      	mov	r0, r7
     65c:	a905      	add	r1, sp, #20
     65e:	f000 fb71 	bl	d44 <__gnu_unwind_execute>
     662:	b918      	cbnz	r0, 66c <__gnu_unwind_pr_common+0x54>
     664:	2008      	movs	r0, #8
     666:	b009      	add	sp, #36	; 0x24
     668:	e8bd 8ff0 	ldmia.w	sp!, {r4, r5, r6, r7, r8, r9, sl, fp, pc}
     66c:	2009      	movs	r0, #9
     66e:	b009      	add	sp, #36	; 0x24
     670:	e8bd 8ff0 	ldmia.w	sp!, {r4, r5, r6, r7, r8, r9, sl, fp, pc}
     674:	f8d4 a000 	ldr.w	sl, [r4]
     678:	f1ba 0f00 	cmp.w	sl, #0
     67c:	d0ed      	beq.n	65a <__gnu_unwind_pr_common+0x42>
     67e:	9301      	str	r3, [sp, #4]
     680:	f000 0308 	and.w	r3, r0, #8
     684:	9302      	str	r3, [sp, #8]
     686:	2e02      	cmp	r6, #2
     688:	d04a      	beq.n	720 <__gnu_unwind_pr_common+0x108>
     68a:	f8b4 a000 	ldrh.w	sl, [r4]
     68e:	f8b4 9002 	ldrh.w	r9, [r4, #2]
     692:	3404      	adds	r4, #4
     694:	6caa      	ldr	r2, [r5, #72]	; 0x48
     696:	210f      	movs	r1, #15
     698:	4638      	mov	r0, r7
     69a:	f029 0b01 	bic.w	fp, r9, #1
     69e:	4493      	add	fp, r2
     6a0:	f7ff ff48 	bl	534 <_Unwind_GetGR>
     6a4:	4583      	cmp	fp, r0
     6a6:	d839      	bhi.n	71c <__gnu_unwind_pr_common+0x104>
     6a8:	f02a 0201 	bic.w	r2, sl, #1
     6ac:	445a      	add	r2, fp
     6ae:	4282      	cmp	r2, r0
     6b0:	bf94      	ite	ls
     6b2:	2000      	movls	r0, #0
     6b4:	2001      	movhi	r0, #1
     6b6:	ea4f 0349 	mov.w	r3, r9, lsl #1
     6ba:	f003 0302 	and.w	r3, r3, #2
     6be:	f00a 0a01 	and.w	sl, sl, #1
     6c2:	ea43 030a 	orr.w	r3, r3, sl
     6c6:	2b01      	cmp	r3, #1
     6c8:	d049      	beq.n	75e <__gnu_unwind_pr_common+0x146>
     6ca:	2b02      	cmp	r3, #2
     6cc:	d032      	beq.n	734 <__gnu_unwind_pr_common+0x11c>
     6ce:	2b00      	cmp	r3, #0
     6d0:	d1cc      	bne.n	66c <__gnu_unwind_pr_common+0x54>
     6d2:	f1b8 0f00 	cmp.w	r8, #0
     6d6:	d002      	beq.n	6de <__gnu_unwind_pr_common+0xc6>
     6d8:	2800      	cmp	r0, #0
     6da:	f040 80ce 	bne.w	87a <__gnu_unwind_pr_common+0x262>
     6de:	3404      	adds	r4, #4
     6e0:	f8d4 a000 	ldr.w	sl, [r4]
     6e4:	f1ba 0f00 	cmp.w	sl, #0
     6e8:	d1cd      	bne.n	686 <__gnu_unwind_pr_common+0x6e>
     6ea:	4638      	mov	r0, r7
     6ec:	a905      	add	r1, sp, #20
     6ee:	f000 fb29 	bl	d44 <__gnu_unwind_execute>
     6f2:	2800      	cmp	r0, #0
     6f4:	d1ba      	bne.n	66c <__gnu_unwind_pr_common+0x54>
     6f6:	9b01      	ldr	r3, [sp, #4]
     6f8:	2b00      	cmp	r3, #0
     6fa:	d0b3      	beq.n	664 <__gnu_unwind_pr_common+0x4c>
     6fc:	210f      	movs	r1, #15
     6fe:	4638      	mov	r0, r7
     700:	f7ff ff18 	bl	534 <_Unwind_GetGR>
     704:	210e      	movs	r1, #14
     706:	4602      	mov	r2, r0
     708:	4638      	mov	r0, r7
     70a:	f7ff ff39 	bl	580 <_Unwind_SetGR>
     70e:	4638      	mov	r0, r7
     710:	210f      	movs	r1, #15
     712:	4a6a      	ldr	r2, [pc, #424]	; (8bc <__gnu_unwind_pr_common+0x2a4>)
     714:	f7ff ff34 	bl	580 <_Unwind_SetGR>
     718:	2007      	movs	r0, #7
     71a:	e7a8      	b.n	66e <__gnu_unwind_pr_common+0x56>
     71c:	2000      	movs	r0, #0
     71e:	e7ca      	b.n	6b6 <__gnu_unwind_pr_common+0x9e>
     720:	f8d4 9004 	ldr.w	r9, [r4, #4]
     724:	3408      	adds	r4, #8
     726:	e7b5      	b.n	694 <__gnu_unwind_pr_common+0x7c>
     728:	021b      	lsls	r3, r3, #8
     72a:	9305      	str	r3, [sp, #20]
     72c:	2303      	movs	r3, #3
     72e:	f8ad 301c 	strh.w	r3, [sp, #28]
     732:	e78a      	b.n	64a <__gnu_unwind_pr_common+0x32>
     734:	6823      	ldr	r3, [r4, #0]
     736:	f023 4b00 	bic.w	fp, r3, #2147483648	; 0x80000000
     73a:	f1b8 0f00 	cmp.w	r8, #0
     73e:	d145      	bne.n	7cc <__gnu_unwind_pr_common+0x1b4>
     740:	b128      	cbz	r0, 74e <__gnu_unwind_pr_common+0x136>
     742:	9a02      	ldr	r2, [sp, #8]
     744:	2a00      	cmp	r2, #0
     746:	d05c      	beq.n	802 <__gnu_unwind_pr_common+0x1ea>
     748:	f1bb 0f00 	cmp.w	fp, #0
     74c:	d074      	beq.n	838 <__gnu_unwind_pr_common+0x220>
     74e:	2b00      	cmp	r3, #0
     750:	da00      	bge.n	754 <__gnu_unwind_pr_common+0x13c>
     752:	3404      	adds	r4, #4
     754:	f10b 0b01 	add.w	fp, fp, #1
     758:	eb04 048b 	add.w	r4, r4, fp, lsl #2
     75c:	e7c0      	b.n	6e0 <__gnu_unwind_pr_common+0xc8>
     75e:	f1b8 0f00 	cmp.w	r8, #0
     762:	d119      	bne.n	798 <__gnu_unwind_pr_common+0x180>
     764:	b1b0      	cbz	r0, 794 <__gnu_unwind_pr_common+0x17c>
     766:	6863      	ldr	r3, [r4, #4]
     768:	6822      	ldr	r2, [r4, #0]
     76a:	1c99      	adds	r1, r3, #2
     76c:	ea4f 72d2 	mov.w	r2, r2, lsr #31
     770:	f43f af7c 	beq.w	66c <__gnu_unwind_pr_common+0x54>
     774:	f105 0158 	add.w	r1, r5, #88	; 0x58
     778:	3301      	adds	r3, #1
     77a:	9104      	str	r1, [sp, #16]
     77c:	f000 8091 	beq.w	8a2 <__gnu_unwind_pr_common+0x28a>
     780:	1d20      	adds	r0, r4, #4
     782:	f7ff fdb7 	bl	2f4 <_Unwind_decode_typeinfo_ptr.constprop.0>
     786:	ab04      	add	r3, sp, #16
     788:	4601      	mov	r1, r0
     78a:	4628      	mov	r0, r5
     78c:	f3af 8000 	nop.w
     790:	2800      	cmp	r0, #0
     792:	d15c      	bne.n	84e <__gnu_unwind_pr_common+0x236>
     794:	3408      	adds	r4, #8
     796:	e7a3      	b.n	6e0 <__gnu_unwind_pr_common+0xc8>
     798:	210d      	movs	r1, #13
     79a:	4638      	mov	r0, r7
     79c:	f8d5 9020 	ldr.w	r9, [r5, #32]
     7a0:	f7ff fec8 	bl	534 <_Unwind_GetGR>
     7a4:	4581      	cmp	r9, r0
     7a6:	d1f5      	bne.n	794 <__gnu_unwind_pr_common+0x17c>
     7a8:	6aab      	ldr	r3, [r5, #40]	; 0x28
     7aa:	429c      	cmp	r4, r3
     7ac:	d1f2      	bne.n	794 <__gnu_unwind_pr_common+0x17c>
     7ae:	4620      	mov	r0, r4
     7b0:	f7ff fcd4 	bl	15c <selfrel_offset31>
     7b4:	210f      	movs	r1, #15
     7b6:	4602      	mov	r2, r0
     7b8:	4638      	mov	r0, r7
     7ba:	f7ff fee1 	bl	580 <_Unwind_SetGR>
     7be:	4638      	mov	r0, r7
     7c0:	462a      	mov	r2, r5
     7c2:	2100      	movs	r1, #0
     7c4:	f7ff fedc 	bl	580 <_Unwind_SetGR>
     7c8:	2007      	movs	r0, #7
     7ca:	e750      	b.n	66e <__gnu_unwind_pr_common+0x56>
     7cc:	210d      	movs	r1, #13
     7ce:	4638      	mov	r0, r7
     7d0:	f8d5 9020 	ldr.w	r9, [r5, #32]
     7d4:	f7ff feae 	bl	534 <_Unwind_GetGR>
     7d8:	4581      	cmp	r9, r0
     7da:	d001      	beq.n	7e0 <__gnu_unwind_pr_common+0x1c8>
     7dc:	6823      	ldr	r3, [r4, #0]
     7de:	e7b6      	b.n	74e <__gnu_unwind_pr_common+0x136>
     7e0:	6aab      	ldr	r3, [r5, #40]	; 0x28
     7e2:	429c      	cmp	r4, r3
     7e4:	d1fa      	bne.n	7dc <__gnu_unwind_pr_common+0x1c4>
     7e6:	2304      	movs	r3, #4
     7e8:	2200      	movs	r2, #0
     7ea:	e9c5 230b 	strd	r2, r3, [r5, #44]	; 0x2c
     7ee:	18e3      	adds	r3, r4, r3
     7f0:	f8c5 b028 	str.w	fp, [r5, #40]	; 0x28
     7f4:	636b      	str	r3, [r5, #52]	; 0x34
     7f6:	6823      	ldr	r3, [r4, #0]
     7f8:	2b00      	cmp	r3, #0
     7fa:	db5a      	blt.n	8b2 <__gnu_unwind_pr_common+0x29a>
     7fc:	2301      	movs	r3, #1
     7fe:	9301      	str	r3, [sp, #4]
     800:	e7a8      	b.n	754 <__gnu_unwind_pr_common+0x13c>
     802:	f105 0358 	add.w	r3, r5, #88	; 0x58
     806:	f8cd 800c 	str.w	r8, [sp, #12]
     80a:	4691      	mov	r9, r2
     80c:	46b0      	mov	r8, r6
     80e:	f104 0a04 	add.w	sl, r4, #4
     812:	461e      	mov	r6, r3
     814:	e00e      	b.n	834 <__gnu_unwind_pr_common+0x21c>
     816:	4650      	mov	r0, sl
     818:	9604      	str	r6, [sp, #16]
     81a:	f7ff fd6b 	bl	2f4 <_Unwind_decode_typeinfo_ptr.constprop.0>
     81e:	2200      	movs	r2, #0
     820:	4601      	mov	r1, r0
     822:	ab04      	add	r3, sp, #16
     824:	4628      	mov	r0, r5
     826:	f109 0901 	add.w	r9, r9, #1
     82a:	f10a 0a04 	add.w	sl, sl, #4
     82e:	f3af 8000 	nop.w
     832:	b9e8      	cbnz	r0, 870 <__gnu_unwind_pr_common+0x258>
     834:	45d9      	cmp	r9, fp
     836:	d1ee      	bne.n	816 <__gnu_unwind_pr_common+0x1fe>
     838:	210d      	movs	r1, #13
     83a:	4638      	mov	r0, r7
     83c:	f7ff fe7a 	bl	534 <_Unwind_GetGR>
     840:	4603      	mov	r3, r0
     842:	9a04      	ldr	r2, [sp, #16]
     844:	2006      	movs	r0, #6
     846:	e9c5 2409 	strd	r2, r4, [r5, #36]	; 0x24
     84a:	622b      	str	r3, [r5, #32]
     84c:	e70f      	b.n	66e <__gnu_unwind_pr_common+0x56>
     84e:	4681      	mov	r9, r0
     850:	210d      	movs	r1, #13
     852:	4638      	mov	r0, r7
     854:	f7ff fe6e 	bl	534 <_Unwind_GetGR>
     858:	f1b9 0f02 	cmp.w	r9, #2
     85c:	6228      	str	r0, [r5, #32]
     85e:	d125      	bne.n	8ac <__gnu_unwind_pr_common+0x294>
     860:	462b      	mov	r3, r5
     862:	9a04      	ldr	r2, [sp, #16]
     864:	f843 2f2c 	str.w	r2, [r3, #44]!
     868:	626b      	str	r3, [r5, #36]	; 0x24
     86a:	2006      	movs	r0, #6
     86c:	62ac      	str	r4, [r5, #40]	; 0x28
     86e:	e6fe      	b.n	66e <__gnu_unwind_pr_common+0x56>
     870:	4646      	mov	r6, r8
     872:	6823      	ldr	r3, [r4, #0]
     874:	f8dd 800c 	ldr.w	r8, [sp, #12]
     878:	e769      	b.n	74e <__gnu_unwind_pr_common+0x136>
     87a:	4620      	mov	r0, r4
     87c:	f7ff fc6e 	bl	15c <selfrel_offset31>
     880:	4602      	mov	r2, r0
     882:	3404      	adds	r4, #4
     884:	63ac      	str	r4, [r5, #56]	; 0x38
     886:	4628      	mov	r0, r5
     888:	4614      	mov	r4, r2
     88a:	f3af 8000 	nop.w
     88e:	2800      	cmp	r0, #0
     890:	f43f aeec 	beq.w	66c <__gnu_unwind_pr_common+0x54>
     894:	4638      	mov	r0, r7
     896:	4622      	mov	r2, r4
     898:	210f      	movs	r1, #15
     89a:	f7ff fe71 	bl	580 <_Unwind_SetGR>
     89e:	2007      	movs	r0, #7
     8a0:	e6e5      	b.n	66e <__gnu_unwind_pr_common+0x56>
     8a2:	210d      	movs	r1, #13
     8a4:	4638      	mov	r0, r7
     8a6:	f7ff fe45 	bl	534 <_Unwind_GetGR>
     8aa:	6228      	str	r0, [r5, #32]
     8ac:	9b04      	ldr	r3, [sp, #16]
     8ae:	626b      	str	r3, [r5, #36]	; 0x24
     8b0:	e7db      	b.n	86a <__gnu_unwind_pr_common+0x252>
     8b2:	f10b 0001 	add.w	r0, fp, #1
     8b6:	eb04 0080 	add.w	r0, r4, r0, lsl #2
     8ba:	e779      	b.n	7b0 <__gnu_unwind_pr_common+0x198>
     8bc:	00000000 	.word	0x00000000

000008c0 <__aeabi_unwind_cpp_pr0>:
     8c0:	2300      	movs	r3, #0
     8c2:	e6a9      	b.n	618 <__gnu_unwind_pr_common>

000008c4 <__aeabi_unwind_cpp_pr1>:
     8c4:	2301      	movs	r3, #1
     8c6:	e6a7      	b.n	618 <__gnu_unwind_pr_common>

000008c8 <__aeabi_unwind_cpp_pr2>:
     8c8:	2302      	movs	r3, #2
     8ca:	e6a5      	b.n	618 <__gnu_unwind_pr_common>

000008cc <_Unwind_VRS_Pop>:
     8cc:	e92d 43f0 	stmdb	sp!, {r4, r5, r6, r7, r8, r9, lr}
     8d0:	4606      	mov	r6, r0
     8d2:	4615      	mov	r5, r2
     8d4:	461c      	mov	r4, r3
     8d6:	b0c3      	sub	sp, #268	; 0x10c
     8d8:	2904      	cmp	r1, #4
     8da:	f200 80b8 	bhi.w	a4e <_Unwind_VRS_Pop+0x182>
     8de:	e8df f001 	tbb	[pc, r1]
     8e2:	569c      	.short	0x569c
     8e4:	2db6      	.short	0x2db6
     8e6:	03          	.byte	0x03
     8e7:	00          	.byte	0x00
     8e8:	2c00      	cmp	r4, #0
     8ea:	f040 80b0 	bne.w	a4e <_Unwind_VRS_Pop+0x182>
     8ee:	2a10      	cmp	r2, #16
     8f0:	f200 80ad 	bhi.w	a4e <_Unwind_VRS_Pop+0x182>
     8f4:	6803      	ldr	r3, [r0, #0]
     8f6:	06d8      	lsls	r0, r3, #27
     8f8:	f100 80f1 	bmi.w	ade <_Unwind_VRS_Pop+0x212>
     8fc:	af20      	add	r7, sp, #128	; 0x80
     8fe:	4638      	mov	r0, r7
     900:	f000 f990 	bl	c24 <__gnu_Unwind_Save_WMMXC>
     904:	2401      	movs	r4, #1
     906:	4638      	mov	r0, r7
     908:	2300      	movs	r3, #0
     90a:	6bb1      	ldr	r1, [r6, #56]	; 0x38
     90c:	fa04 f203 	lsl.w	r2, r4, r3
     910:	422a      	tst	r2, r5
     912:	f103 0301 	add.w	r3, r3, #1
     916:	d005      	beq.n	924 <_Unwind_VRS_Pop+0x58>
     918:	460a      	mov	r2, r1
     91a:	f852 cb04 	ldr.w	ip, [r2], #4
     91e:	4611      	mov	r1, r2
     920:	f8c0 c000 	str.w	ip, [r0]
     924:	2b04      	cmp	r3, #4
     926:	f100 0004 	add.w	r0, r0, #4
     92a:	d1ef      	bne.n	90c <_Unwind_VRS_Pop+0x40>
     92c:	4638      	mov	r0, r7
     92e:	63b1      	str	r1, [r6, #56]	; 0x38
     930:	f000 f96e 	bl	c10 <__gnu_Unwind_Restore_WMMXC>
     934:	2000      	movs	r0, #0
     936:	b043      	add	sp, #268	; 0x10c
     938:	e8bd 83f0 	ldmia.w	sp!, {r4, r5, r6, r7, r8, r9, pc}
     93c:	2c03      	cmp	r4, #3
     93e:	f040 8086 	bne.w	a4e <_Unwind_VRS_Pop+0x182>
     942:	b294      	uxth	r4, r2
     944:	eb04 4312 	add.w	r3, r4, r2, lsr #16
     948:	2b10      	cmp	r3, #16
     94a:	ea4f 4512 	mov.w	r5, r2, lsr #16
     94e:	d87e      	bhi.n	a4e <_Unwind_VRS_Pop+0x182>
     950:	6803      	ldr	r3, [r0, #0]
     952:	071f      	lsls	r7, r3, #28
     954:	f100 80cb 	bmi.w	aee <_Unwind_VRS_Pop+0x222>
     958:	af20      	add	r7, sp, #128	; 0x80
     95a:	4638      	mov	r0, r7
     95c:	f000 f936 	bl	bcc <__gnu_Unwind_Save_WMMXD>
     960:	6bb2      	ldr	r2, [r6, #56]	; 0x38
     962:	eb07 01c5 	add.w	r1, r7, r5, lsl #3
     966:	b154      	cbz	r4, 97e <_Unwind_VRS_Pop+0xb2>
     968:	460b      	mov	r3, r1
     96a:	eb01 01c4 	add.w	r1, r1, r4, lsl #3
     96e:	1ad0      	subs	r0, r2, r3
     970:	00e4      	lsls	r4, r4, #3
     972:	581d      	ldr	r5, [r3, r0]
     974:	f843 5b04 	str.w	r5, [r3], #4
     978:	428b      	cmp	r3, r1
     97a:	d1fa      	bne.n	972 <_Unwind_VRS_Pop+0xa6>
     97c:	4422      	add	r2, r4
     97e:	4638      	mov	r0, r7
     980:	63b2      	str	r2, [r6, #56]	; 0x38
     982:	f000 f901 	bl	b88 <__gnu_Unwind_Restore_WMMXD>
     986:	2000      	movs	r0, #0
     988:	b043      	add	sp, #268	; 0x10c
     98a:	e8bd 83f0 	ldmia.w	sp!, {r4, r5, r6, r7, r8, r9, pc}
     98e:	2c01      	cmp	r4, #1
     990:	ea4f 4812 	mov.w	r8, r2, lsr #16
     994:	b295      	uxth	r5, r2
     996:	d056      	beq.n	a46 <_Unwind_VRS_Pop+0x17a>
     998:	2c05      	cmp	r4, #5
     99a:	d158      	bne.n	a4e <_Unwind_VRS_Pop+0x182>
     99c:	eb08 0905 	add.w	r9, r8, r5
     9a0:	f1b9 0f20 	cmp.w	r9, #32
     9a4:	d853      	bhi.n	a4e <_Unwind_VRS_Pop+0x182>
     9a6:	f1b8 0f0f 	cmp.w	r8, #15
     9aa:	d973      	bls.n	a94 <_Unwind_VRS_Pop+0x1c8>
     9ac:	46a9      	mov	r9, r5
     9ae:	2d00      	cmp	r5, #0
     9b0:	f040 8084 	bne.w	abc <_Unwind_VRS_Pop+0x1f0>
     9b4:	6bb3      	ldr	r3, [r6, #56]	; 0x38
     9b6:	b365      	cbz	r5, a12 <_Unwind_VRS_Pop+0x146>
     9b8:	af20      	add	r7, sp, #128	; 0x80
     9ba:	f04f 0900 	mov.w	r9, #0
     9be:	eb07 07c8 	add.w	r7, r7, r8, lsl #3
     9c2:	3f04      	subs	r7, #4
     9c4:	eb03 05c5 	add.w	r5, r3, r5, lsl #3
     9c8:	f853 1b04 	ldr.w	r1, [r3], #4
     9cc:	42ab      	cmp	r3, r5
     9ce:	f847 1f04 	str.w	r1, [r7, #4]!
     9d2:	d1f9      	bne.n	9c8 <_Unwind_VRS_Pop+0xfc>
     9d4:	f1b9 0f00 	cmp.w	r9, #0
     9d8:	d00f      	beq.n	9fa <_Unwind_VRS_Pop+0x12e>
     9da:	466f      	mov	r7, sp
     9dc:	4641      	mov	r1, r8
     9de:	2910      	cmp	r1, #16
     9e0:	bf38      	it	cc
     9e2:	2110      	movcc	r1, #16
     9e4:	eb07 01c1 	add.w	r1, r7, r1, lsl #3
     9e8:	3984      	subs	r1, #132	; 0x84
     9ea:	eb03 05c9 	add.w	r5, r3, r9, lsl #3
     9ee:	f853 0b04 	ldr.w	r0, [r3], #4
     9f2:	42ab      	cmp	r3, r5
     9f4:	f841 0f04 	str.w	r0, [r1, #4]!
     9f8:	d1f9      	bne.n	9ee <_Unwind_VRS_Pop+0x122>
     9fa:	2c01      	cmp	r4, #1
     9fc:	d07f      	beq.n	afe <_Unwind_VRS_Pop+0x232>
     9fe:	f1b8 0f0f 	cmp.w	r8, #15
     a02:	63b5      	str	r5, [r6, #56]	; 0x38
     a04:	d942      	bls.n	a8c <_Unwind_VRS_Pop+0x1c0>
     a06:	f1b9 0f00 	cmp.w	r9, #0
     a0a:	d002      	beq.n	a12 <_Unwind_VRS_Pop+0x146>
     a0c:	4668      	mov	r0, sp
     a0e:	f000 f8b3 	bl	b78 <__gnu_Unwind_Restore_VFP_D_16_to_31>
     a12:	2000      	movs	r0, #0
     a14:	b043      	add	sp, #268	; 0x10c
     a16:	e8bd 83f0 	ldmia.w	sp!, {r4, r5, r6, r7, r8, r9, pc}
     a1a:	b9c4      	cbnz	r4, a4e <_Unwind_VRS_Pop+0x182>
     a1c:	4623      	mov	r3, r4
     a1e:	2401      	movs	r4, #1
     a20:	6b82      	ldr	r2, [r0, #56]	; 0x38
     a22:	1d37      	adds	r7, r6, #4
     a24:	b2a8      	uxth	r0, r5
     a26:	fa04 f103 	lsl.w	r1, r4, r3
     a2a:	4201      	tst	r1, r0
     a2c:	bf1c      	itt	ne
     a2e:	f852 1b04 	ldrne.w	r1, [r2], #4
     a32:	f847 1023 	strne.w	r1, [r7, r3, lsl #2]
     a36:	3301      	adds	r3, #1
     a38:	2b10      	cmp	r3, #16
     a3a:	d1f4      	bne.n	a26 <_Unwind_VRS_Pop+0x15a>
     a3c:	f415 5000 	ands.w	r0, r5, #8192	; 0x2000
     a40:	d1e7      	bne.n	a12 <_Unwind_VRS_Pop+0x146>
     a42:	63b2      	str	r2, [r6, #56]	; 0x38
     a44:	e004      	b.n	a50 <_Unwind_VRS_Pop+0x184>
     a46:	eb08 0305 	add.w	r3, r8, r5
     a4a:	2b10      	cmp	r3, #16
     a4c:	d903      	bls.n	a56 <_Unwind_VRS_Pop+0x18a>
     a4e:	2002      	movs	r0, #2
     a50:	b043      	add	sp, #268	; 0x10c
     a52:	e8bd 83f0 	ldmia.w	sp!, {r4, r5, r6, r7, r8, r9, pc}
     a56:	f1b8 0f0f 	cmp.w	r8, #15
     a5a:	d8f8      	bhi.n	a4e <_Unwind_VRS_Pop+0x182>
     a5c:	6833      	ldr	r3, [r6, #0]
     a5e:	07da      	lsls	r2, r3, #31
     a60:	d506      	bpl.n	a70 <_Unwind_VRS_Pop+0x1a4>
     a62:	4630      	mov	r0, r6
     a64:	f023 0303 	bic.w	r3, r3, #3
     a68:	f840 3b48 	str.w	r3, [r0], #72
     a6c:	f000 f878 	bl	b60 <__gnu_Unwind_Save_VFP>
     a70:	af20      	add	r7, sp, #128	; 0x80
     a72:	4638      	mov	r0, r7
     a74:	f000 f874 	bl	b60 <__gnu_Unwind_Save_VFP>
     a78:	6bb3      	ldr	r3, [r6, #56]	; 0x38
     a7a:	2d00      	cmp	r5, #0
     a7c:	d19d      	bne.n	9ba <_Unwind_VRS_Pop+0xee>
     a7e:	461d      	mov	r5, r3
     a80:	3504      	adds	r5, #4
     a82:	4638      	mov	r0, r7
     a84:	63b5      	str	r5, [r6, #56]	; 0x38
     a86:	f000 f867 	bl	b58 <__gnu_Unwind_Restore_VFP>
     a8a:	e7c2      	b.n	a12 <_Unwind_VRS_Pop+0x146>
     a8c:	a820      	add	r0, sp, #128	; 0x80
     a8e:	f000 f86b 	bl	b68 <__gnu_Unwind_Restore_VFP_D>
     a92:	e7b8      	b.n	a06 <_Unwind_VRS_Pop+0x13a>
     a94:	f1b9 0f10 	cmp.w	r9, #16
     a98:	d93f      	bls.n	b1a <_Unwind_VRS_Pop+0x24e>
     a9a:	f1a9 0910 	sub.w	r9, r9, #16
     a9e:	6833      	ldr	r3, [r6, #0]
     aa0:	07d9      	lsls	r1, r3, #31
     aa2:	d508      	bpl.n	ab6 <_Unwind_VRS_Pop+0x1ea>
     aa4:	4630      	mov	r0, r6
     aa6:	f023 0301 	bic.w	r3, r3, #1
     aaa:	f043 0302 	orr.w	r3, r3, #2
     aae:	f840 3b48 	str.w	r3, [r0], #72
     ab2:	f000 f85d 	bl	b70 <__gnu_Unwind_Save_VFP_D>
     ab6:	f1b9 0f00 	cmp.w	r9, #0
     aba:	d031      	beq.n	b20 <_Unwind_VRS_Pop+0x254>
     abc:	6833      	ldr	r3, [r6, #0]
     abe:	075a      	lsls	r2, r3, #29
     ac0:	d41f      	bmi.n	b02 <_Unwind_VRS_Pop+0x236>
     ac2:	f1b8 0f0f 	cmp.w	r8, #15
     ac6:	d924      	bls.n	b12 <_Unwind_VRS_Pop+0x246>
     ac8:	466f      	mov	r7, sp
     aca:	f1c8 0510 	rsb	r5, r8, #16
     ace:	4638      	mov	r0, r7
     ad0:	f000 f856 	bl	b80 <__gnu_Unwind_Save_VFP_D_16_to_31>
     ad4:	2d00      	cmp	r5, #0
     ad6:	6bb3      	ldr	r3, [r6, #56]	; 0x38
     ad8:	dd80      	ble.n	9dc <_Unwind_VRS_Pop+0x110>
     ada:	af20      	add	r7, sp, #128	; 0x80
     adc:	e76f      	b.n	9be <_Unwind_VRS_Pop+0xf2>
     ade:	f023 0310 	bic.w	r3, r3, #16
     ae2:	6033      	str	r3, [r6, #0]
     ae4:	f506 70e8 	add.w	r0, r6, #464	; 0x1d0
     ae8:	f000 f89c 	bl	c24 <__gnu_Unwind_Save_WMMXC>
     aec:	e706      	b.n	8fc <_Unwind_VRS_Pop+0x30>
     aee:	f023 0308 	bic.w	r3, r3, #8
     af2:	6003      	str	r3, [r0, #0]
     af4:	f500 70a8 	add.w	r0, r0, #336	; 0x150
     af8:	f000 f868 	bl	bcc <__gnu_Unwind_Save_WMMXD>
     afc:	e72c      	b.n	958 <_Unwind_VRS_Pop+0x8c>
     afe:	af20      	add	r7, sp, #128	; 0x80
     b00:	e7be      	b.n	a80 <_Unwind_VRS_Pop+0x1b4>
     b02:	4630      	mov	r0, r6
     b04:	f023 0304 	bic.w	r3, r3, #4
     b08:	f840 3bd0 	str.w	r3, [r0], #208
     b0c:	f000 f838 	bl	b80 <__gnu_Unwind_Save_VFP_D_16_to_31>
     b10:	e7d7      	b.n	ac2 <_Unwind_VRS_Pop+0x1f6>
     b12:	a820      	add	r0, sp, #128	; 0x80
     b14:	f000 f82c 	bl	b70 <__gnu_Unwind_Save_VFP_D>
     b18:	e7d6      	b.n	ac8 <_Unwind_VRS_Pop+0x1fc>
     b1a:	f04f 0900 	mov.w	r9, #0
     b1e:	e7be      	b.n	a9e <_Unwind_VRS_Pop+0x1d2>
     b20:	f1b8 0f0f 	cmp.w	r8, #15
     b24:	f63f af46 	bhi.w	9b4 <_Unwind_VRS_Pop+0xe8>
     b28:	af20      	add	r7, sp, #128	; 0x80
     b2a:	4638      	mov	r0, r7
     b2c:	f000 f820 	bl	b70 <__gnu_Unwind_Save_VFP_D>
     b30:	6bb3      	ldr	r3, [r6, #56]	; 0x38
     b32:	2d00      	cmp	r5, #0
     b34:	f47f af41 	bne.w	9ba <_Unwind_VRS_Pop+0xee>
     b38:	4638      	mov	r0, r7
     b3a:	f000 f815 	bl	b68 <__gnu_Unwind_Restore_VFP_D>
     b3e:	e768      	b.n	a12 <_Unwind_VRS_Pop+0x146>

00000b40 <__restore_core_regs>:
     b40:	f100 0134 	add.w	r1, r0, #52	; 0x34
     b44:	e891 0038 	ldmia.w	r1, {r3, r4, r5}
     b48:	469c      	mov	ip, r3
     b4a:	46a6      	mov	lr, r4
     b4c:	f84c 5d04 	str.w	r5, [ip, #-4]!
     b50:	e890 0fff 	ldmia.w	r0, {r0, r1, r2, r3, r4, r5, r6, r7, r8, r9, sl, fp}
     b54:	46e5      	mov	sp, ip
     b56:	bd00      	pop	{pc}

00000b58 <__gnu_Unwind_Restore_VFP>:
     b58:	ec90 0b21 	fldmiax	r0, {d0-d15}	;@ Deprecated
     b5c:	4770      	bx	lr
     b5e:	bf00      	nop

00000b60 <__gnu_Unwind_Save_VFP>:
     b60:	ec80 0b21 	fstmiax	r0, {d0-d15}	;@ Deprecated
     b64:	4770      	bx	lr
     b66:	bf00      	nop

00000b68 <__gnu_Unwind_Restore_VFP_D>:
     b68:	ec90 0b20 	vldmia	r0, {d0-d15}
     b6c:	4770      	bx	lr
     b6e:	bf00      	nop

00000b70 <__gnu_Unwind_Save_VFP_D>:
     b70:	ec80 0b20 	vstmia	r0, {d0-d15}
     b74:	4770      	bx	lr
     b76:	bf00      	nop

00000b78 <__gnu_Unwind_Restore_VFP_D_16_to_31>:
     b78:	ecd0 0b20 	vldmia	r0, {d16-d31}
     b7c:	4770      	bx	lr
     b7e:	bf00      	nop

00000b80 <__gnu_Unwind_Save_VFP_D_16_to_31>:
     b80:	ecc0 0b20 	vstmia	r0, {d16-d31}
     b84:	4770      	bx	lr
     b86:	bf00      	nop

00000b88 <__gnu_Unwind_Restore_WMMXD>:
     b88:	ecf0 0102 	ldfe	f0, [r0], #8
     b8c:	ecf0 1102 	ldfe	f1, [r0], #8
     b90:	ecf0 2102 	ldfe	f2, [r0], #8
     b94:	ecf0 3102 	ldfe	f3, [r0], #8
     b98:	ecf0 4102 	ldfe	f4, [r0], #8
     b9c:	ecf0 5102 	ldfe	f5, [r0], #8
     ba0:	ecf0 6102 	ldfe	f6, [r0], #8
     ba4:	ecf0 7102 	ldfe	f7, [r0], #8
     ba8:	ecf0 8102 	ldfp	f0, [r0], #8
     bac:	ecf0 9102 	ldfp	f1, [r0], #8
     bb0:	ecf0 a102 	ldfp	f2, [r0], #8
     bb4:	ecf0 b102 	ldfp	f3, [r0], #8
     bb8:	ecf0 c102 	ldfp	f4, [r0], #8
     bbc:	ecf0 d102 	ldfp	f5, [r0], #8
     bc0:	ecf0 e102 	ldfp	f6, [r0], #8
     bc4:	ecf0 f102 	ldfp	f7, [r0], #8
     bc8:	4770      	bx	lr
     bca:	bf00      	nop

00000bcc <__gnu_Unwind_Save_WMMXD>:
     bcc:	ece0 0102 	stfe	f0, [r0], #8
     bd0:	ece0 1102 	stfe	f1, [r0], #8
     bd4:	ece0 2102 	stfe	f2, [r0], #8
     bd8:	ece0 3102 	stfe	f3, [r0], #8
     bdc:	ece0 4102 	stfe	f4, [r0], #8
     be0:	ece0 5102 	stfe	f5, [r0], #8
     be4:	ece0 6102 	stfe	f6, [r0], #8
     be8:	ece0 7102 	stfe	f7, [r0], #8
     bec:	ece0 8102 	stfp	f0, [r0], #8
     bf0:	ece0 9102 	stfp	f1, [r0], #8
     bf4:	ece0 a102 	stfp	f2, [r0], #8
     bf8:	ece0 b102 	stfp	f3, [r0], #8
     bfc:	ece0 c102 	stfp	f4, [r0], #8
     c00:	ece0 d102 	stfp	f5, [r0], #8
     c04:	ece0 e102 	stfp	f6, [r0], #8
     c08:	ece0 f102 	stfp	f7, [r0], #8
     c0c:	4770      	bx	lr
     c0e:	bf00      	nop

00000c10 <__gnu_Unwind_Restore_WMMXC>:
     c10:	fcb0 8101 	ldc2	1, cr8, [r0], #4
     c14:	fcb0 9101 	ldc2	1, cr9, [r0], #4
     c18:	fcb0 a101 	ldc2	1, cr10, [r0], #4
     c1c:	fcb0 b101 	ldc2	1, cr11, [r0], #4
     c20:	4770      	bx	lr
     c22:	bf00      	nop

00000c24 <__gnu_Unwind_Save_WMMXC>:
     c24:	fca0 8101 	stc2	1, cr8, [r0], #4
     c28:	fca0 9101 	stc2	1, cr9, [r0], #4
     c2c:	fca0 a101 	stc2	1, cr10, [r0], #4
     c30:	fca0 b101 	stc2	1, cr11, [r0], #4
     c34:	4770      	bx	lr
     c36:	bf00      	nop

00000c38 <_Unwind_RaiseException>:
     c38:	46ec      	mov	ip, sp
     c3a:	b500      	push	{lr}
     c3c:	e92d 5000 	stmdb	sp!, {ip, lr}
     c40:	e92d 1fff 	stmdb	sp!, {r0, r1, r2, r3, r4, r5, r6, r7, r8, r9, sl, fp, ip}
     c44:	f04f 0300 	mov.w	r3, #0
     c48:	e92d 000c 	stmdb	sp!, {r2, r3}
     c4c:	a901      	add	r1, sp, #4
     c4e:	f7ff fbe7 	bl	420 <__gnu_Unwind_RaiseException>
     c52:	f8dd e040 	ldr.w	lr, [sp, #64]	; 0x40
     c56:	b012      	add	sp, #72	; 0x48
     c58:	4770      	bx	lr
     c5a:	bf00      	nop

00000c5c <_Unwind_Resume>:
     c5c:	46ec      	mov	ip, sp
     c5e:	b500      	push	{lr}
     c60:	e92d 5000 	stmdb	sp!, {ip, lr}
     c64:	e92d 1fff 	stmdb	sp!, {r0, r1, r2, r3, r4, r5, r6, r7, r8, r9, sl, fp, ip}
     c68:	f04f 0300 	mov.w	r3, #0
     c6c:	e92d 000c 	stmdb	sp!, {r2, r3}
     c70:	a901      	add	r1, sp, #4
     c72:	f7ff fc13 	bl	49c <__gnu_Unwind_Resume>
     c76:	f8dd e040 	ldr.w	lr, [sp, #64]	; 0x40
     c7a:	b012      	add	sp, #72	; 0x48
     c7c:	4770      	bx	lr
     c7e:	bf00      	nop

00000c80 <_Unwind_Resume_or_Rethrow>:
     c80:	46ec      	mov	ip, sp
     c82:	b500      	push	{lr}
     c84:	e92d 5000 	stmdb	sp!, {ip, lr}
     c88:	e92d 1fff 	stmdb	sp!, {r0, r1, r2, r3, r4, r5, r6, r7, r8, r9, sl, fp, ip}
     c8c:	f04f 0300 	mov.w	r3, #0
     c90:	e92d 000c 	stmdb	sp!, {r2, r3}
     c94:	a901      	add	r1, sp, #4
     c96:	f7ff fc23 	bl	4e0 <__gnu_Unwind_Resume_or_Rethrow>
     c9a:	f8dd e040 	ldr.w	lr, [sp, #64]	; 0x40
     c9e:	b012      	add	sp, #72	; 0x48
     ca0:	4770      	bx	lr
     ca2:	bf00      	nop

00000ca4 <_Unwind_ForcedUnwind>:
     ca4:	46ec      	mov	ip, sp
     ca6:	b500      	push	{lr}
     ca8:	e92d 5000 	stmdb	sp!, {ip, lr}
     cac:	e92d 1fff 	stmdb	sp!, {r0, r1, r2, r3, r4, r5, r6, r7, r8, r9, sl, fp, ip}
     cb0:	f04f 0300 	mov.w	r3, #0
     cb4:	e92d 000c 	stmdb	sp!, {r2, r3}
     cb8:	ab01      	add	r3, sp, #4
     cba:	f7ff fbe5 	bl	488 <__gnu_Unwind_ForcedUnwind>
     cbe:	f8dd e040 	ldr.w	lr, [sp, #64]	; 0x40
     cc2:	b012      	add	sp, #72	; 0x48
     cc4:	4770      	bx	lr
     cc6:	bf00      	nop

00000cc8 <_Unwind_Backtrace>:
     cc8:	46ec      	mov	ip, sp
     cca:	b500      	push	{lr}
     ccc:	e92d 5000 	stmdb	sp!, {ip, lr}
     cd0:	e92d 1fff 	stmdb	sp!, {r0, r1, r2, r3, r4, r5, r6, r7, r8, r9, sl, fp, ip}
     cd4:	f04f 0300 	mov.w	r3, #0
     cd8:	e92d 000c 	stmdb	sp!, {r2, r3}
     cdc:	aa01      	add	r2, sp, #4
     cde:	f7ff fc5b 	bl	598 <__gnu_Unwind_Backtrace>
     ce2:	f8dd e040 	ldr.w	lr, [sp, #64]	; 0x40
     ce6:	b012      	add	sp, #72	; 0x48
     ce8:	4770      	bx	lr
     cea:	bf00      	nop

00000cec <next_unwind_byte>:
     cec:	7a02      	ldrb	r2, [r0, #8]
     cee:	4603      	mov	r3, r0
     cf0:	b97a      	cbnz	r2, d12 <next_unwind_byte+0x26>
     cf2:	7a42      	ldrb	r2, [r0, #9]
     cf4:	b1a2      	cbz	r2, d20 <next_unwind_byte+0x34>
     cf6:	f04f 0c03 	mov.w	ip, #3
     cfa:	6841      	ldr	r1, [r0, #4]
     cfc:	3a01      	subs	r2, #1
     cfe:	7242      	strb	r2, [r0, #9]
     d00:	6808      	ldr	r0, [r1, #0]
     d02:	1d0a      	adds	r2, r1, #4
     d04:	605a      	str	r2, [r3, #4]
     d06:	0202      	lsls	r2, r0, #8
     d08:	f883 c008 	strb.w	ip, [r3, #8]
     d0c:	0e00      	lsrs	r0, r0, #24
     d0e:	601a      	str	r2, [r3, #0]
     d10:	4770      	bx	lr
     d12:	6800      	ldr	r0, [r0, #0]
     d14:	3a01      	subs	r2, #1
     d16:	721a      	strb	r2, [r3, #8]
     d18:	0202      	lsls	r2, r0, #8
     d1a:	601a      	str	r2, [r3, #0]
     d1c:	0e00      	lsrs	r0, r0, #24
     d1e:	4770      	bx	lr
     d20:	20b0      	movs	r0, #176	; 0xb0
     d22:	4770      	bx	lr

00000d24 <_Unwind_GetGR.constprop.0>:
     d24:	2300      	movs	r3, #0
     d26:	b500      	push	{lr}
     d28:	b085      	sub	sp, #20
     d2a:	a903      	add	r1, sp, #12
     d2c:	9100      	str	r1, [sp, #0]
     d2e:	220c      	movs	r2, #12
     d30:	4619      	mov	r1, r3
     d32:	f7ff fbe7 	bl	504 <_Unwind_VRS_Get>
     d36:	9803      	ldr	r0, [sp, #12]
     d38:	b005      	add	sp, #20
     d3a:	f85d fb04 	ldr.w	pc, [sp], #4
     d3e:	bf00      	nop

00000d40 <unwind_UCB_from_context>:
     d40:	e7f0      	b.n	d24 <_Unwind_GetGR.constprop.0>
     d42:	bf00      	nop

00000d44 <__gnu_unwind_execute>:
     d44:	e92d 43f0 	stmdb	sp!, {r4, r5, r6, r7, r8, r9, lr}
     d48:	f04f 0800 	mov.w	r8, #0
     d4c:	4605      	mov	r5, r0
     d4e:	460e      	mov	r6, r1
     d50:	b085      	sub	sp, #20
     d52:	4630      	mov	r0, r6
     d54:	f7ff ffca 	bl	cec <next_unwind_byte>
     d58:	28b0      	cmp	r0, #176	; 0xb0
     d5a:	4604      	mov	r4, r0
     d5c:	f000 80ba 	beq.w	ed4 <__gnu_unwind_execute+0x190>
     d60:	0607      	lsls	r7, r0, #24
     d62:	d520      	bpl.n	da6 <__gnu_unwind_execute+0x62>
     d64:	f000 03f0 	and.w	r3, r0, #240	; 0xf0
     d68:	2b80      	cmp	r3, #128	; 0x80
     d6a:	d04d      	beq.n	e08 <__gnu_unwind_execute+0xc4>
     d6c:	2b90      	cmp	r3, #144	; 0x90
     d6e:	d036      	beq.n	dde <__gnu_unwind_execute+0x9a>
     d70:	2ba0      	cmp	r3, #160	; 0xa0
     d72:	d060      	beq.n	e36 <__gnu_unwind_execute+0xf2>
     d74:	2bb0      	cmp	r3, #176	; 0xb0
     d76:	d073      	beq.n	e60 <__gnu_unwind_execute+0x11c>
     d78:	2bc0      	cmp	r3, #192	; 0xc0
     d7a:	f000 808a 	beq.w	e92 <__gnu_unwind_execute+0x14e>
     d7e:	f000 03f8 	and.w	r3, r0, #248	; 0xf8
     d82:	2bd0      	cmp	r3, #208	; 0xd0
     d84:	d10b      	bne.n	d9e <__gnu_unwind_execute+0x5a>
     d86:	f000 0207 	and.w	r2, r0, #7
     d8a:	3201      	adds	r2, #1
     d8c:	2305      	movs	r3, #5
     d8e:	2101      	movs	r1, #1
     d90:	4628      	mov	r0, r5
     d92:	f442 2200 	orr.w	r2, r2, #524288	; 0x80000
     d96:	f7ff fd99 	bl	8cc <_Unwind_VRS_Pop>
     d9a:	2800      	cmp	r0, #0
     d9c:	d0d9      	beq.n	d52 <__gnu_unwind_execute+0xe>
     d9e:	2009      	movs	r0, #9
     da0:	b005      	add	sp, #20
     da2:	e8bd 83f0 	ldmia.w	sp!, {r4, r5, r6, r7, r8, r9, pc}
     da6:	0083      	lsls	r3, r0, #2
     da8:	b2db      	uxtb	r3, r3
     daa:	1d1f      	adds	r7, r3, #4
     dac:	2300      	movs	r3, #0
     dae:	f10d 090c 	add.w	r9, sp, #12
     db2:	4619      	mov	r1, r3
     db4:	220d      	movs	r2, #13
     db6:	4628      	mov	r0, r5
     db8:	f8cd 9000 	str.w	r9, [sp]
     dbc:	f7ff fba2 	bl	504 <_Unwind_VRS_Get>
     dc0:	9b03      	ldr	r3, [sp, #12]
     dc2:	0660      	lsls	r0, r4, #25
     dc4:	bf4c      	ite	mi
     dc6:	1bdf      	submi	r7, r3, r7
     dc8:	18ff      	addpl	r7, r7, r3
     dca:	2300      	movs	r3, #0
     dcc:	220d      	movs	r2, #13
     dce:	4628      	mov	r0, r5
     dd0:	4619      	mov	r1, r3
     dd2:	f8cd 9000 	str.w	r9, [sp]
     dd6:	9703      	str	r7, [sp, #12]
     dd8:	f7ff fbba 	bl	550 <_Unwind_VRS_Set>
     ddc:	e7b9      	b.n	d52 <__gnu_unwind_execute+0xe>
     dde:	f000 030d 	and.w	r3, r0, #13
     de2:	2b0d      	cmp	r3, #13
     de4:	d0db      	beq.n	d9e <__gnu_unwind_execute+0x5a>
     de6:	2300      	movs	r3, #0
     de8:	af03      	add	r7, sp, #12
     dea:	4619      	mov	r1, r3
     dec:	f000 020f 	and.w	r2, r0, #15
     df0:	9700      	str	r7, [sp, #0]
     df2:	4628      	mov	r0, r5
     df4:	f7ff fb86 	bl	504 <_Unwind_VRS_Get>
     df8:	2300      	movs	r3, #0
     dfa:	220d      	movs	r2, #13
     dfc:	4628      	mov	r0, r5
     dfe:	4619      	mov	r1, r3
     e00:	9700      	str	r7, [sp, #0]
     e02:	f7ff fba5 	bl	550 <_Unwind_VRS_Set>
     e06:	e7a4      	b.n	d52 <__gnu_unwind_execute+0xe>
     e08:	4630      	mov	r0, r6
     e0a:	f7ff ff6f 	bl	cec <next_unwind_byte>
     e0e:	0224      	lsls	r4, r4, #8
     e10:	4320      	orrs	r0, r4
     e12:	f5b0 4f00 	cmp.w	r0, #32768	; 0x8000
     e16:	d0c2      	beq.n	d9e <__gnu_unwind_execute+0x5a>
     e18:	2300      	movs	r3, #0
     e1a:	0104      	lsls	r4, r0, #4
     e1c:	4619      	mov	r1, r3
     e1e:	4628      	mov	r0, r5
     e20:	b2a2      	uxth	r2, r4
     e22:	f7ff fd53 	bl	8cc <_Unwind_VRS_Pop>
     e26:	2800      	cmp	r0, #0
     e28:	d1b9      	bne.n	d9e <__gnu_unwind_execute+0x5a>
     e2a:	f414 4f00 	tst.w	r4, #32768	; 0x8000
     e2e:	bf18      	it	ne
     e30:	f04f 0801 	movne.w	r8, #1
     e34:	e78d      	b.n	d52 <__gnu_unwind_execute+0xe>
     e36:	43c3      	mvns	r3, r0
     e38:	f44f 627f 	mov.w	r2, #4080	; 0xff0
     e3c:	f003 0307 	and.w	r3, r3, #7
     e40:	411a      	asrs	r2, r3
     e42:	2300      	movs	r3, #0
     e44:	0701      	lsls	r1, r0, #28
     e46:	f402 627f 	and.w	r2, r2, #4080	; 0xff0
     e4a:	bf48      	it	mi
     e4c:	f442 4280 	orrmi.w	r2, r2, #16384	; 0x4000
     e50:	4628      	mov	r0, r5
     e52:	4619      	mov	r1, r3
     e54:	f7ff fd3a 	bl	8cc <_Unwind_VRS_Pop>
     e58:	2800      	cmp	r0, #0
     e5a:	f43f af7a 	beq.w	d52 <__gnu_unwind_execute+0xe>
     e5e:	e79e      	b.n	d9e <__gnu_unwind_execute+0x5a>
     e60:	28b1      	cmp	r0, #177	; 0xb1
     e62:	d03c      	beq.n	ede <__gnu_unwind_execute+0x19a>
     e64:	28b2      	cmp	r0, #178	; 0xb2
     e66:	f000 80b0 	beq.w	fca <__gnu_unwind_execute+0x286>
     e6a:	28b3      	cmp	r0, #179	; 0xb3
     e6c:	d04a      	beq.n	f04 <__gnu_unwind_execute+0x1c0>
     e6e:	f000 03fc 	and.w	r3, r0, #252	; 0xfc
     e72:	2bb4      	cmp	r3, #180	; 0xb4
     e74:	d093      	beq.n	d9e <__gnu_unwind_execute+0x5a>
     e76:	2301      	movs	r3, #1
     e78:	f000 0207 	and.w	r2, r0, #7
     e7c:	441a      	add	r2, r3
     e7e:	4628      	mov	r0, r5
     e80:	4619      	mov	r1, r3
     e82:	f442 2200 	orr.w	r2, r2, #524288	; 0x80000
     e86:	f7ff fd21 	bl	8cc <_Unwind_VRS_Pop>
     e8a:	2800      	cmp	r0, #0
     e8c:	f43f af61 	beq.w	d52 <__gnu_unwind_execute+0xe>
     e90:	e785      	b.n	d9e <__gnu_unwind_execute+0x5a>
     e92:	28c6      	cmp	r0, #198	; 0xc6
     e94:	d04f      	beq.n	f36 <__gnu_unwind_execute+0x1f2>
     e96:	28c7      	cmp	r0, #199	; 0xc7
     e98:	d061      	beq.n	f5e <__gnu_unwind_execute+0x21a>
     e9a:	f000 03f8 	and.w	r3, r0, #248	; 0xf8
     e9e:	2bc0      	cmp	r3, #192	; 0xc0
     ea0:	d070      	beq.n	f84 <__gnu_unwind_execute+0x240>
     ea2:	28c8      	cmp	r0, #200	; 0xc8
     ea4:	d07c      	beq.n	fa0 <__gnu_unwind_execute+0x25c>
     ea6:	28c9      	cmp	r0, #201	; 0xc9
     ea8:	f47f af79 	bne.w	d9e <__gnu_unwind_execute+0x5a>
     eac:	4630      	mov	r0, r6
     eae:	f7ff ff1d 	bl	cec <next_unwind_byte>
     eb2:	2305      	movs	r3, #5
     eb4:	4602      	mov	r2, r0
     eb6:	2101      	movs	r1, #1
     eb8:	4628      	mov	r0, r5
     eba:	0314      	lsls	r4, r2, #12
     ebc:	f002 020f 	and.w	r2, r2, #15
     ec0:	f404 2470 	and.w	r4, r4, #983040	; 0xf0000
     ec4:	440a      	add	r2, r1
     ec6:	4322      	orrs	r2, r4
     ec8:	f7ff fd00 	bl	8cc <_Unwind_VRS_Pop>
     ecc:	2800      	cmp	r0, #0
     ece:	f43f af40 	beq.w	d52 <__gnu_unwind_execute+0xe>
     ed2:	e764      	b.n	d9e <__gnu_unwind_execute+0x5a>
     ed4:	f1b8 0f00 	cmp.w	r8, #0
     ed8:	d01c      	beq.n	f14 <__gnu_unwind_execute+0x1d0>
     eda:	2000      	movs	r0, #0
     edc:	e760      	b.n	da0 <__gnu_unwind_execute+0x5c>
     ede:	4630      	mov	r0, r6
     ee0:	f7ff ff04 	bl	cec <next_unwind_byte>
     ee4:	4602      	mov	r2, r0
     ee6:	2800      	cmp	r0, #0
     ee8:	f43f af59 	beq.w	d9e <__gnu_unwind_execute+0x5a>
     eec:	f010 03f0 	ands.w	r3, r0, #240	; 0xf0
     ef0:	f47f af55 	bne.w	d9e <__gnu_unwind_execute+0x5a>
     ef4:	4619      	mov	r1, r3
     ef6:	4628      	mov	r0, r5
     ef8:	f7ff fce8 	bl	8cc <_Unwind_VRS_Pop>
     efc:	2800      	cmp	r0, #0
     efe:	f43f af28 	beq.w	d52 <__gnu_unwind_execute+0xe>
     f02:	e74c      	b.n	d9e <__gnu_unwind_execute+0x5a>
     f04:	4630      	mov	r0, r6
     f06:	f7ff fef1 	bl	cec <next_unwind_byte>
     f0a:	2301      	movs	r3, #1
     f0c:	4602      	mov	r2, r0
     f0e:	4619      	mov	r1, r3
     f10:	4628      	mov	r0, r5
     f12:	e7d2      	b.n	eba <__gnu_unwind_execute+0x176>
     f14:	ac03      	add	r4, sp, #12
     f16:	4643      	mov	r3, r8
     f18:	220e      	movs	r2, #14
     f1a:	4641      	mov	r1, r8
     f1c:	4628      	mov	r0, r5
     f1e:	9400      	str	r4, [sp, #0]
     f20:	f7ff faf0 	bl	504 <_Unwind_VRS_Get>
     f24:	4643      	mov	r3, r8
     f26:	220f      	movs	r2, #15
     f28:	4628      	mov	r0, r5
     f2a:	4641      	mov	r1, r8
     f2c:	9400      	str	r4, [sp, #0]
     f2e:	f7ff fb0f 	bl	550 <_Unwind_VRS_Set>
     f32:	4640      	mov	r0, r8
     f34:	e734      	b.n	da0 <__gnu_unwind_execute+0x5c>
     f36:	4630      	mov	r0, r6
     f38:	f7ff fed8 	bl	cec <next_unwind_byte>
     f3c:	4602      	mov	r2, r0
     f3e:	2303      	movs	r3, #3
     f40:	0314      	lsls	r4, r2, #12
     f42:	f002 020f 	and.w	r2, r2, #15
     f46:	f404 2470 	and.w	r4, r4, #983040	; 0xf0000
     f4a:	3201      	adds	r2, #1
     f4c:	4628      	mov	r0, r5
     f4e:	4619      	mov	r1, r3
     f50:	4322      	orrs	r2, r4
     f52:	f7ff fcbb 	bl	8cc <_Unwind_VRS_Pop>
     f56:	2800      	cmp	r0, #0
     f58:	f43f aefb 	beq.w	d52 <__gnu_unwind_execute+0xe>
     f5c:	e71f      	b.n	d9e <__gnu_unwind_execute+0x5a>
     f5e:	4630      	mov	r0, r6
     f60:	f7ff fec4 	bl	cec <next_unwind_byte>
     f64:	4602      	mov	r2, r0
     f66:	2800      	cmp	r0, #0
     f68:	f43f af19 	beq.w	d9e <__gnu_unwind_execute+0x5a>
     f6c:	f010 03f0 	ands.w	r3, r0, #240	; 0xf0
     f70:	f47f af15 	bne.w	d9e <__gnu_unwind_execute+0x5a>
     f74:	2104      	movs	r1, #4
     f76:	4628      	mov	r0, r5
     f78:	f7ff fca8 	bl	8cc <_Unwind_VRS_Pop>
     f7c:	2800      	cmp	r0, #0
     f7e:	f43f aee8 	beq.w	d52 <__gnu_unwind_execute+0xe>
     f82:	e70c      	b.n	d9e <__gnu_unwind_execute+0x5a>
     f84:	2303      	movs	r3, #3
     f86:	f000 020f 	and.w	r2, r0, #15
     f8a:	3201      	adds	r2, #1
     f8c:	4628      	mov	r0, r5
     f8e:	4619      	mov	r1, r3
     f90:	f442 2220 	orr.w	r2, r2, #655360	; 0xa0000
     f94:	f7ff fc9a 	bl	8cc <_Unwind_VRS_Pop>
     f98:	2800      	cmp	r0, #0
     f9a:	f43f aeda 	beq.w	d52 <__gnu_unwind_execute+0xe>
     f9e:	e6fe      	b.n	d9e <__gnu_unwind_execute+0x5a>
     fa0:	4630      	mov	r0, r6
     fa2:	f7ff fea3 	bl	cec <next_unwind_byte>
     fa6:	4602      	mov	r2, r0
     fa8:	2101      	movs	r1, #1
     faa:	f002 04f0 	and.w	r4, r2, #240	; 0xf0
     fae:	f002 020f 	and.w	r2, r2, #15
     fb2:	3410      	adds	r4, #16
     fb4:	440a      	add	r2, r1
     fb6:	2305      	movs	r3, #5
     fb8:	4628      	mov	r0, r5
     fba:	ea42 3204 	orr.w	r2, r2, r4, lsl #12
     fbe:	f7ff fc85 	bl	8cc <_Unwind_VRS_Pop>
     fc2:	2800      	cmp	r0, #0
     fc4:	f43f aec5 	beq.w	d52 <__gnu_unwind_execute+0xe>
     fc8:	e6e9      	b.n	d9e <__gnu_unwind_execute+0x5a>
     fca:	2300      	movs	r3, #0
     fcc:	f10d 090c 	add.w	r9, sp, #12
     fd0:	220d      	movs	r2, #13
     fd2:	4619      	mov	r1, r3
     fd4:	4628      	mov	r0, r5
     fd6:	f8cd 9000 	str.w	r9, [sp]
     fda:	f7ff fa93 	bl	504 <_Unwind_VRS_Get>
     fde:	4630      	mov	r0, r6
     fe0:	f7ff fe84 	bl	cec <next_unwind_byte>
     fe4:	0602      	lsls	r2, r0, #24
     fe6:	f04f 0402 	mov.w	r4, #2
     fea:	d50c      	bpl.n	1006 <__gnu_unwind_execute+0x2c2>
     fec:	9b03      	ldr	r3, [sp, #12]
     fee:	f000 007f 	and.w	r0, r0, #127	; 0x7f
     ff2:	40a0      	lsls	r0, r4
     ff4:	4418      	add	r0, r3
     ff6:	9003      	str	r0, [sp, #12]
     ff8:	4630      	mov	r0, r6
     ffa:	f7ff fe77 	bl	cec <next_unwind_byte>
     ffe:	0603      	lsls	r3, r0, #24
    1000:	f104 0407 	add.w	r4, r4, #7
    1004:	d4f2      	bmi.n	fec <__gnu_unwind_execute+0x2a8>
    1006:	9b03      	ldr	r3, [sp, #12]
    1008:	f000 027f 	and.w	r2, r0, #127	; 0x7f
    100c:	40a2      	lsls	r2, r4
    100e:	f503 7301 	add.w	r3, r3, #516	; 0x204
    1012:	441a      	add	r2, r3
    1014:	2300      	movs	r3, #0
    1016:	9203      	str	r2, [sp, #12]
    1018:	4628      	mov	r0, r5
    101a:	220d      	movs	r2, #13
    101c:	4619      	mov	r1, r3
    101e:	f8cd 9000 	str.w	r9, [sp]
    1022:	f7ff fa95 	bl	550 <_Unwind_VRS_Set>
    1026:	e694      	b.n	d52 <__gnu_unwind_execute+0xe>

00001028 <__gnu_unwind_frame>:
    1028:	460b      	mov	r3, r1
    102a:	f04f 0c03 	mov.w	ip, #3
    102e:	b500      	push	{lr}
    1030:	6cc2      	ldr	r2, [r0, #76]	; 0x4c
    1032:	4618      	mov	r0, r3
    1034:	6853      	ldr	r3, [r2, #4]
    1036:	b085      	sub	sp, #20
    1038:	3208      	adds	r2, #8
    103a:	9202      	str	r2, [sp, #8]
    103c:	a901      	add	r1, sp, #4
    103e:	0e1a      	lsrs	r2, r3, #24
    1040:	021b      	lsls	r3, r3, #8
    1042:	f88d c00c 	strb.w	ip, [sp, #12]
    1046:	9301      	str	r3, [sp, #4]
    1048:	f88d 200d 	strb.w	r2, [sp, #13]
    104c:	f7ff fe7a 	bl	d44 <__gnu_unwind_execute>
    1050:	b005      	add	sp, #20
    1052:	f85d fb04 	ldr.w	pc, [sp], #4
    1056:	bf00      	nop

00001058 <_Unwind_GetRegionStart>:
    1058:	b508      	push	{r3, lr}
    105a:	f7ff fe71 	bl	d40 <unwind_UCB_from_context>
    105e:	6c80      	ldr	r0, [r0, #72]	; 0x48
    1060:	bd08      	pop	{r3, pc}
    1062:	bf00      	nop

00001064 <_Unwind_GetLanguageSpecificData>:
    1064:	b508      	push	{r3, lr}
    1066:	f7ff fe6b 	bl	d40 <unwind_UCB_from_context>
    106a:	6cc0      	ldr	r0, [r0, #76]	; 0x4c
    106c:	79c3      	ldrb	r3, [r0, #7]
    106e:	3302      	adds	r3, #2
    1070:	eb00 0083 	add.w	r0, r0, r3, lsl #2
    1074:	bd08      	pop	{r3, pc}
    1076:	bf00      	nop

00001078 <_Unwind_GetDataRelBase>:
    1078:	b508      	push	{r3, lr}
    107a:	f000 f803 	bl	1084 <abort>

0000107e <_Unwind_GetTextRelBase>:
    107e:	b508      	push	{r3, lr}
    1080:	f7ff fffa 	bl	1078 <_Unwind_GetDataRelBase>

00001084 <abort>:
    1084:	2006      	movs	r0, #6
    1086:	b508      	push	{r3, lr}
    1088:	f000 f9f4 	bl	1474 <raise>
    108c:	2001      	movs	r0, #1
    108e:	f7ff f85d 	bl	14c <_exit>
    1092:	bf00      	nop

00001094 <exit>:
    1094:	b508      	push	{r3, lr}
    1096:	2100      	movs	r1, #0
    1098:	4604      	mov	r4, r0
    109a:	f000 fae1 	bl	1660 <__call_exitprocs>
    109e:	4b04      	ldr	r3, [pc, #16]	; (10b0 <exit+0x1c>)
    10a0:	6818      	ldr	r0, [r3, #0]
    10a2:	6bc3      	ldr	r3, [r0, #60]	; 0x3c
    10a4:	b103      	cbz	r3, 10a8 <exit+0x14>
    10a6:	4798      	blx	r3
    10a8:	4620      	mov	r0, r4
    10aa:	f7ff f84f 	bl	14c <_exit>
    10ae:	bf00      	nop
    10b0:	00003e1c 	.word	0x00003e1c

000010b4 <__libc_init_array>:
    10b4:	b570      	push	{r4, r5, r6, lr}
    10b6:	4e0d      	ldr	r6, [pc, #52]	; (10ec <__libc_init_array+0x38>)
    10b8:	4d0d      	ldr	r5, [pc, #52]	; (10f0 <__libc_init_array+0x3c>)
    10ba:	1b76      	subs	r6, r6, r5
    10bc:	10b6      	asrs	r6, r6, #2
    10be:	d006      	beq.n	10ce <__libc_init_array+0x1a>
    10c0:	2400      	movs	r4, #0
    10c2:	f855 3b04 	ldr.w	r3, [r5], #4
    10c6:	3401      	adds	r4, #1
    10c8:	4798      	blx	r3
    10ca:	42a6      	cmp	r6, r4
    10cc:	d1f9      	bne.n	10c2 <__libc_init_array+0xe>
    10ce:	4e09      	ldr	r6, [pc, #36]	; (10f4 <__libc_init_array+0x40>)
    10d0:	4d09      	ldr	r5, [pc, #36]	; (10f8 <__libc_init_array+0x44>)
    10d2:	f002 fe7d 	bl	3dd0 <_init>
    10d6:	1b76      	subs	r6, r6, r5
    10d8:	10b6      	asrs	r6, r6, #2
    10da:	d006      	beq.n	10ea <__libc_init_array+0x36>
    10dc:	2400      	movs	r4, #0
    10de:	f855 3b04 	ldr.w	r3, [r5], #4
    10e2:	3401      	adds	r4, #1
    10e4:	4798      	blx	r3
    10e6:	42a6      	cmp	r6, r4
    10e8:	d1f9      	bne.n	10de <__libc_init_array+0x2a>
    10ea:	bd70      	pop	{r4, r5, r6, pc}
    10ec:	20000968 	.word	0x20000968
    10f0:	20000968 	.word	0x20000968
    10f4:	20000970 	.word	0x20000970
    10f8:	20000968 	.word	0x20000968

000010fc <memcpy>:
    10fc:	4684      	mov	ip, r0
    10fe:	ea41 0300 	orr.w	r3, r1, r0
    1102:	f013 0303 	ands.w	r3, r3, #3
    1106:	d149      	bne.n	119c <memcpy+0xa0>
    1108:	3a40      	subs	r2, #64	; 0x40
    110a:	d323      	bcc.n	1154 <memcpy+0x58>
    110c:	680b      	ldr	r3, [r1, #0]
    110e:	6003      	str	r3, [r0, #0]
    1110:	684b      	ldr	r3, [r1, #4]
    1112:	6043      	str	r3, [r0, #4]
    1114:	688b      	ldr	r3, [r1, #8]
    1116:	6083      	str	r3, [r0, #8]
    1118:	68cb      	ldr	r3, [r1, #12]
    111a:	60c3      	str	r3, [r0, #12]
    111c:	690b      	ldr	r3, [r1, #16]
    111e:	6103      	str	r3, [r0, #16]
    1120:	694b      	ldr	r3, [r1, #20]
    1122:	6143      	str	r3, [r0, #20]
    1124:	698b      	ldr	r3, [r1, #24]
    1126:	6183      	str	r3, [r0, #24]
    1128:	69cb      	ldr	r3, [r1, #28]
    112a:	61c3      	str	r3, [r0, #28]
    112c:	6a0b      	ldr	r3, [r1, #32]
    112e:	6203      	str	r3, [r0, #32]
    1130:	6a4b      	ldr	r3, [r1, #36]	; 0x24
    1132:	6243      	str	r3, [r0, #36]	; 0x24
    1134:	6a8b      	ldr	r3, [r1, #40]	; 0x28
    1136:	6283      	str	r3, [r0, #40]	; 0x28
    1138:	6acb      	ldr	r3, [r1, #44]	; 0x2c
    113a:	62c3      	str	r3, [r0, #44]	; 0x2c
    113c:	6b0b      	ldr	r3, [r1, #48]	; 0x30
    113e:	6303      	str	r3, [r0, #48]	; 0x30
    1140:	6b4b      	ldr	r3, [r1, #52]	; 0x34
    1142:	6343      	str	r3, [r0, #52]	; 0x34
    1144:	6b8b      	ldr	r3, [r1, #56]	; 0x38
    1146:	6383      	str	r3, [r0, #56]	; 0x38
    1148:	6bcb      	ldr	r3, [r1, #60]	; 0x3c
    114a:	63c3      	str	r3, [r0, #60]	; 0x3c
    114c:	3040      	adds	r0, #64	; 0x40
    114e:	3140      	adds	r1, #64	; 0x40
    1150:	3a40      	subs	r2, #64	; 0x40
    1152:	d2db      	bcs.n	110c <memcpy+0x10>
    1154:	3230      	adds	r2, #48	; 0x30
    1156:	d30b      	bcc.n	1170 <memcpy+0x74>
    1158:	680b      	ldr	r3, [r1, #0]
    115a:	6003      	str	r3, [r0, #0]
    115c:	684b      	ldr	r3, [r1, #4]
    115e:	6043      	str	r3, [r0, #4]
    1160:	688b      	ldr	r3, [r1, #8]
    1162:	6083      	str	r3, [r0, #8]
    1164:	68cb      	ldr	r3, [r1, #12]
    1166:	60c3      	str	r3, [r0, #12]
    1168:	3010      	adds	r0, #16
    116a:	3110      	adds	r1, #16
    116c:	3a10      	subs	r2, #16
    116e:	d2f3      	bcs.n	1158 <memcpy+0x5c>
    1170:	320c      	adds	r2, #12
    1172:	d305      	bcc.n	1180 <memcpy+0x84>
    1174:	f851 3b04 	ldr.w	r3, [r1], #4
    1178:	f840 3b04 	str.w	r3, [r0], #4
    117c:	3a04      	subs	r2, #4
    117e:	d2f9      	bcs.n	1174 <memcpy+0x78>
    1180:	3204      	adds	r2, #4
    1182:	d008      	beq.n	1196 <memcpy+0x9a>
    1184:	07d2      	lsls	r2, r2, #31
    1186:	bf1c      	itt	ne
    1188:	f811 3b01 	ldrbne.w	r3, [r1], #1
    118c:	f800 3b01 	strbne.w	r3, [r0], #1
    1190:	d301      	bcc.n	1196 <memcpy+0x9a>
    1192:	880b      	ldrh	r3, [r1, #0]
    1194:	8003      	strh	r3, [r0, #0]
    1196:	4660      	mov	r0, ip
    1198:	4770      	bx	lr
    119a:	bf00      	nop
    119c:	2a08      	cmp	r2, #8
    119e:	d313      	bcc.n	11c8 <memcpy+0xcc>
    11a0:	078b      	lsls	r3, r1, #30
    11a2:	d0b1      	beq.n	1108 <memcpy+0xc>
    11a4:	f010 0303 	ands.w	r3, r0, #3
    11a8:	d0ae      	beq.n	1108 <memcpy+0xc>
    11aa:	f1c3 0304 	rsb	r3, r3, #4
    11ae:	1ad2      	subs	r2, r2, r3
    11b0:	07db      	lsls	r3, r3, #31
    11b2:	bf1c      	itt	ne
    11b4:	f811 3b01 	ldrbne.w	r3, [r1], #1
    11b8:	f800 3b01 	strbne.w	r3, [r0], #1
    11bc:	d3a4      	bcc.n	1108 <memcpy+0xc>
    11be:	f831 3b02 	ldrh.w	r3, [r1], #2
    11c2:	f820 3b02 	strh.w	r3, [r0], #2
    11c6:	e79f      	b.n	1108 <memcpy+0xc>
    11c8:	3a04      	subs	r2, #4
    11ca:	d3d9      	bcc.n	1180 <memcpy+0x84>
    11cc:	3a01      	subs	r2, #1
    11ce:	f811 3b01 	ldrb.w	r3, [r1], #1
    11d2:	f800 3b01 	strb.w	r3, [r0], #1
    11d6:	d2f9      	bcs.n	11cc <memcpy+0xd0>
    11d8:	780b      	ldrb	r3, [r1, #0]
    11da:	7003      	strb	r3, [r0, #0]
    11dc:	784b      	ldrb	r3, [r1, #1]
    11de:	7043      	strb	r3, [r0, #1]
    11e0:	788b      	ldrb	r3, [r1, #2]
    11e2:	7083      	strb	r3, [r0, #2]
    11e4:	4660      	mov	r0, ip
    11e6:	4770      	bx	lr

000011e8 <memset>:
    11e8:	0783      	lsls	r3, r0, #30
    11ea:	b530      	push	{r4, r5, lr}
    11ec:	d048      	beq.n	1280 <memset+0x98>
    11ee:	1e54      	subs	r4, r2, #1
    11f0:	2a00      	cmp	r2, #0
    11f2:	d03f      	beq.n	1274 <memset+0x8c>
    11f4:	4603      	mov	r3, r0
    11f6:	b2ca      	uxtb	r2, r1
    11f8:	e001      	b.n	11fe <memset+0x16>
    11fa:	3c01      	subs	r4, #1
    11fc:	d33a      	bcc.n	1274 <memset+0x8c>
    11fe:	f803 2b01 	strb.w	r2, [r3], #1
    1202:	079d      	lsls	r5, r3, #30
    1204:	d1f9      	bne.n	11fa <memset+0x12>
    1206:	2c03      	cmp	r4, #3
    1208:	d92d      	bls.n	1266 <memset+0x7e>
    120a:	b2cd      	uxtb	r5, r1
    120c:	ea45 2505 	orr.w	r5, r5, r5, lsl #8
    1210:	2c0f      	cmp	r4, #15
    1212:	ea45 4505 	orr.w	r5, r5, r5, lsl #16
    1216:	d936      	bls.n	1286 <memset+0x9e>
    1218:	f1a4 0210 	sub.w	r2, r4, #16
    121c:	f022 0c0f 	bic.w	ip, r2, #15
    1220:	f103 0e20 	add.w	lr, r3, #32
    1224:	44e6      	add	lr, ip
    1226:	ea4f 1c12 	mov.w	ip, r2, lsr #4
    122a:	f103 0210 	add.w	r2, r3, #16
    122e:	e942 5504 	strd	r5, r5, [r2, #-16]
    1232:	e942 5502 	strd	r5, r5, [r2, #-8]
    1236:	3210      	adds	r2, #16
    1238:	4572      	cmp	r2, lr
    123a:	d1f8      	bne.n	122e <memset+0x46>
    123c:	f10c 0201 	add.w	r2, ip, #1
    1240:	f014 0f0c 	tst.w	r4, #12
    1244:	eb03 1202 	add.w	r2, r3, r2, lsl #4
    1248:	f004 0c0f 	and.w	ip, r4, #15
    124c:	d013      	beq.n	1276 <memset+0x8e>
    124e:	f1ac 0304 	sub.w	r3, ip, #4
    1252:	f023 0303 	bic.w	r3, r3, #3
    1256:	3304      	adds	r3, #4
    1258:	4413      	add	r3, r2
    125a:	f842 5b04 	str.w	r5, [r2], #4
    125e:	4293      	cmp	r3, r2
    1260:	d1fb      	bne.n	125a <memset+0x72>
    1262:	f00c 0403 	and.w	r4, ip, #3
    1266:	b12c      	cbz	r4, 1274 <memset+0x8c>
    1268:	b2ca      	uxtb	r2, r1
    126a:	441c      	add	r4, r3
    126c:	f803 2b01 	strb.w	r2, [r3], #1
    1270:	429c      	cmp	r4, r3
    1272:	d1fb      	bne.n	126c <memset+0x84>
    1274:	bd30      	pop	{r4, r5, pc}
    1276:	4664      	mov	r4, ip
    1278:	4613      	mov	r3, r2
    127a:	2c00      	cmp	r4, #0
    127c:	d1f4      	bne.n	1268 <memset+0x80>
    127e:	e7f9      	b.n	1274 <memset+0x8c>
    1280:	4603      	mov	r3, r0
    1282:	4614      	mov	r4, r2
    1284:	e7bf      	b.n	1206 <memset+0x1e>
    1286:	461a      	mov	r2, r3
    1288:	46a4      	mov	ip, r4
    128a:	e7e0      	b.n	124e <memset+0x66>

0000128c <_puts_r>:
    128c:	b530      	push	{r4, r5, lr}
    128e:	4605      	mov	r5, r0
    1290:	b089      	sub	sp, #36	; 0x24
    1292:	4608      	mov	r0, r1
    1294:	460c      	mov	r4, r1
    1296:	f000 f9ab 	bl	15f0 <strlen>
    129a:	2101      	movs	r1, #1
    129c:	2302      	movs	r3, #2
    129e:	4a21      	ldr	r2, [pc, #132]	; (1324 <_puts_r+0x98>)
    12a0:	9404      	str	r4, [sp, #16]
    12a2:	9206      	str	r2, [sp, #24]
    12a4:	6baa      	ldr	r2, [r5, #56]	; 0x38
    12a6:	ac04      	add	r4, sp, #16
    12a8:	9005      	str	r0, [sp, #20]
    12aa:	4408      	add	r0, r1
    12ac:	9401      	str	r4, [sp, #4]
    12ae:	9107      	str	r1, [sp, #28]
    12b0:	68ac      	ldr	r4, [r5, #8]
    12b2:	9302      	str	r3, [sp, #8]
    12b4:	9003      	str	r0, [sp, #12]
    12b6:	b322      	cbz	r2, 1302 <_puts_r+0x76>
    12b8:	6e63      	ldr	r3, [r4, #100]	; 0x64
    12ba:	f013 0f01 	tst.w	r3, #1
    12be:	f9b4 300c 	ldrsh.w	r3, [r4, #12]
    12c2:	b29a      	uxth	r2, r3
    12c4:	d101      	bne.n	12ca <_puts_r+0x3e>
    12c6:	0598      	lsls	r0, r3, #22
    12c8:	d525      	bpl.n	1316 <_puts_r+0x8a>
    12ca:	0491      	lsls	r1, r2, #18
    12cc:	d406      	bmi.n	12dc <_puts_r+0x50>
    12ce:	6e62      	ldr	r2, [r4, #100]	; 0x64
    12d0:	f443 5300 	orr.w	r3, r3, #8192	; 0x2000
    12d4:	f422 5200 	bic.w	r2, r2, #8192	; 0x2000
    12d8:	81a3      	strh	r3, [r4, #12]
    12da:	6662      	str	r2, [r4, #100]	; 0x64
    12dc:	4628      	mov	r0, r5
    12de:	aa01      	add	r2, sp, #4
    12e0:	4621      	mov	r1, r4
    12e2:	f000 fba5 	bl	1a30 <__sfvwrite_r>
    12e6:	6e63      	ldr	r3, [r4, #100]	; 0x64
    12e8:	2800      	cmp	r0, #0
    12ea:	bf14      	ite	ne
    12ec:	f04f 35ff 	movne.w	r5, #4294967295	; 0xffffffff
    12f0:	250a      	moveq	r5, #10
    12f2:	07da      	lsls	r2, r3, #31
    12f4:	d402      	bmi.n	12fc <_puts_r+0x70>
    12f6:	89a3      	ldrh	r3, [r4, #12]
    12f8:	059b      	lsls	r3, r3, #22
    12fa:	d506      	bpl.n	130a <_puts_r+0x7e>
    12fc:	4628      	mov	r0, r5
    12fe:	b009      	add	sp, #36	; 0x24
    1300:	bd30      	pop	{r4, r5, pc}
    1302:	4628      	mov	r0, r5
    1304:	f000 fa58 	bl	17b8 <__sinit>
    1308:	e7d6      	b.n	12b8 <_puts_r+0x2c>
    130a:	6da0      	ldr	r0, [r4, #88]	; 0x58
    130c:	f000 fd5e 	bl	1dcc <__retarget_lock_release_recursive>
    1310:	4628      	mov	r0, r5
    1312:	b009      	add	sp, #36	; 0x24
    1314:	bd30      	pop	{r4, r5, pc}
    1316:	6da0      	ldr	r0, [r4, #88]	; 0x58
    1318:	f000 fd50 	bl	1dbc <__retarget_lock_acquire_recursive>
    131c:	f9b4 300c 	ldrsh.w	r3, [r4, #12]
    1320:	b29a      	uxth	r2, r3
    1322:	e7d2      	b.n	12ca <_puts_r+0x3e>
    1324:	00003e20 	.word	0x00003e20

00001328 <puts>:
    1328:	4b02      	ldr	r3, [pc, #8]	; (1334 <puts+0xc>)
    132a:	4601      	mov	r1, r0
    132c:	6818      	ldr	r0, [r3, #0]
    132e:	f7ff bfad 	b.w	128c <_puts_r>
    1332:	bf00      	nop
    1334:	2000011c 	.word	0x2000011c

00001338 <_init_signal_r>:
    1338:	b538      	push	{r3, r4, r5, lr}
    133a:	f8d0 42dc 	ldr.w	r4, [r0, #732]	; 0x2dc
    133e:	b10c      	cbz	r4, 1344 <_init_signal_r+0xc>
    1340:	2000      	movs	r0, #0
    1342:	bd38      	pop	{r3, r4, r5, pc}
    1344:	2180      	movs	r1, #128	; 0x80
    1346:	4605      	mov	r5, r0
    1348:	f000 fd42 	bl	1dd0 <_malloc_r>
    134c:	4602      	mov	r2, r0
    134e:	f8c5 02dc 	str.w	r0, [r5, #732]	; 0x2dc
    1352:	b130      	cbz	r0, 1362 <_init_signal_r+0x2a>
    1354:	1f03      	subs	r3, r0, #4
    1356:	327c      	adds	r2, #124	; 0x7c
    1358:	f843 4f04 	str.w	r4, [r3, #4]!
    135c:	4293      	cmp	r3, r2
    135e:	d1fb      	bne.n	1358 <_init_signal_r+0x20>
    1360:	e7ee      	b.n	1340 <_init_signal_r+0x8>
    1362:	f04f 30ff 	mov.w	r0, #4294967295	; 0xffffffff
    1366:	bd38      	pop	{r3, r4, r5, pc}

00001368 <_signal_r>:
    1368:	291f      	cmp	r1, #31
    136a:	b5f8      	push	{r3, r4, r5, r6, r7, lr}
    136c:	4605      	mov	r5, r0
    136e:	d809      	bhi.n	1384 <_signal_r+0x1c>
    1370:	f8d0 62dc 	ldr.w	r6, [r0, #732]	; 0x2dc
    1374:	460c      	mov	r4, r1
    1376:	4617      	mov	r7, r2
    1378:	b14e      	cbz	r6, 138e <_signal_r+0x26>
    137a:	f856 0024 	ldr.w	r0, [r6, r4, lsl #2]
    137e:	f846 7024 	str.w	r7, [r6, r4, lsl #2]
    1382:	bdf8      	pop	{r3, r4, r5, r6, r7, pc}
    1384:	2316      	movs	r3, #22
    1386:	f04f 30ff 	mov.w	r0, #4294967295	; 0xffffffff
    138a:	602b      	str	r3, [r5, #0]
    138c:	bdf8      	pop	{r3, r4, r5, r6, r7, pc}
    138e:	2180      	movs	r1, #128	; 0x80
    1390:	f000 fd1e 	bl	1dd0 <_malloc_r>
    1394:	4606      	mov	r6, r0
    1396:	f8c5 02dc 	str.w	r0, [r5, #732]	; 0x2dc
    139a:	b140      	cbz	r0, 13ae <_signal_r+0x46>
    139c:	2100      	movs	r1, #0
    139e:	1f03      	subs	r3, r0, #4
    13a0:	f100 057c 	add.w	r5, r0, #124	; 0x7c
    13a4:	f843 1f04 	str.w	r1, [r3, #4]!
    13a8:	429d      	cmp	r5, r3
    13aa:	d1fb      	bne.n	13a4 <_signal_r+0x3c>
    13ac:	e7e5      	b.n	137a <_signal_r+0x12>
    13ae:	f04f 30ff 	mov.w	r0, #4294967295	; 0xffffffff
    13b2:	bdf8      	pop	{r3, r4, r5, r6, r7, pc}

000013b4 <_raise_r>:
    13b4:	291f      	cmp	r1, #31
    13b6:	b538      	push	{r3, r4, r5, lr}
    13b8:	4605      	mov	r5, r0
    13ba:	d821      	bhi.n	1400 <_raise_r+0x4c>
    13bc:	f8d0 22dc 	ldr.w	r2, [r0, #732]	; 0x2dc
    13c0:	460c      	mov	r4, r1
    13c2:	b16a      	cbz	r2, 13e0 <_raise_r+0x2c>
    13c4:	f852 3021 	ldr.w	r3, [r2, r1, lsl #2]
    13c8:	b153      	cbz	r3, 13e0 <_raise_r+0x2c>
    13ca:	2b01      	cmp	r3, #1
    13cc:	d016      	beq.n	13fc <_raise_r+0x48>
    13ce:	1c59      	adds	r1, r3, #1
    13d0:	d010      	beq.n	13f4 <_raise_r+0x40>
    13d2:	2500      	movs	r5, #0
    13d4:	4620      	mov	r0, r4
    13d6:	f842 5024 	str.w	r5, [r2, r4, lsl #2]
    13da:	4798      	blx	r3
    13dc:	4628      	mov	r0, r5
    13de:	bd38      	pop	{r3, r4, r5, pc}
    13e0:	4628      	mov	r0, r5
    13e2:	f000 f903 	bl	15ec <_getpid_r>
    13e6:	4622      	mov	r2, r4
    13e8:	4601      	mov	r1, r0
    13ea:	4628      	mov	r0, r5
    13ec:	e8bd 4038 	ldmia.w	sp!, {r3, r4, r5, lr}
    13f0:	f000 b8e8 	b.w	15c4 <_kill_r>
    13f4:	2316      	movs	r3, #22
    13f6:	2001      	movs	r0, #1
    13f8:	602b      	str	r3, [r5, #0]
    13fa:	bd38      	pop	{r3, r4, r5, pc}
    13fc:	2000      	movs	r0, #0
    13fe:	bd38      	pop	{r3, r4, r5, pc}
    1400:	2316      	movs	r3, #22
    1402:	f04f 30ff 	mov.w	r0, #4294967295	; 0xffffffff
    1406:	602b      	str	r3, [r5, #0]
    1408:	bd38      	pop	{r3, r4, r5, pc}
    140a:	bf00      	nop

0000140c <__sigtramp_r>:
    140c:	291f      	cmp	r1, #31
    140e:	d82d      	bhi.n	146c <__sigtramp_r+0x60>
    1410:	f8d0 22dc 	ldr.w	r2, [r0, #732]	; 0x2dc
    1414:	b538      	push	{r3, r4, r5, lr}
    1416:	460c      	mov	r4, r1
    1418:	4605      	mov	r5, r0
    141a:	b182      	cbz	r2, 143e <__sigtramp_r+0x32>
    141c:	f852 3024 	ldr.w	r3, [r2, r4, lsl #2]
    1420:	eb02 0284 	add.w	r2, r2, r4, lsl #2
    1424:	b14b      	cbz	r3, 143a <__sigtramp_r+0x2e>
    1426:	1c59      	adds	r1, r3, #1
    1428:	d01b      	beq.n	1462 <__sigtramp_r+0x56>
    142a:	2b01      	cmp	r3, #1
    142c:	d017      	beq.n	145e <__sigtramp_r+0x52>
    142e:	2500      	movs	r5, #0
    1430:	4620      	mov	r0, r4
    1432:	6015      	str	r5, [r2, #0]
    1434:	4798      	blx	r3
    1436:	4628      	mov	r0, r5
    1438:	bd38      	pop	{r3, r4, r5, pc}
    143a:	2001      	movs	r0, #1
    143c:	bd38      	pop	{r3, r4, r5, pc}
    143e:	2180      	movs	r1, #128	; 0x80
    1440:	f000 fcc6 	bl	1dd0 <_malloc_r>
    1444:	4602      	mov	r2, r0
    1446:	f8c5 02dc 	str.w	r0, [r5, #732]	; 0x2dc
    144a:	b160      	cbz	r0, 1466 <__sigtramp_r+0x5a>
    144c:	2000      	movs	r0, #0
    144e:	1f13      	subs	r3, r2, #4
    1450:	f102 017c 	add.w	r1, r2, #124	; 0x7c
    1454:	f843 0f04 	str.w	r0, [r3, #4]!
    1458:	4299      	cmp	r1, r3
    145a:	d1fb      	bne.n	1454 <__sigtramp_r+0x48>
    145c:	e7de      	b.n	141c <__sigtramp_r+0x10>
    145e:	2003      	movs	r0, #3
    1460:	bd38      	pop	{r3, r4, r5, pc}
    1462:	2002      	movs	r0, #2
    1464:	bd38      	pop	{r3, r4, r5, pc}
    1466:	f04f 30ff 	mov.w	r0, #4294967295	; 0xffffffff
    146a:	bd38      	pop	{r3, r4, r5, pc}
    146c:	f04f 30ff 	mov.w	r0, #4294967295	; 0xffffffff
    1470:	4770      	bx	lr
    1472:	bf00      	nop

00001474 <raise>:
    1474:	b538      	push	{r3, r4, r5, lr}
    1476:	4b15      	ldr	r3, [pc, #84]	; (14cc <raise+0x58>)
    1478:	281f      	cmp	r0, #31
    147a:	681d      	ldr	r5, [r3, #0]
    147c:	d820      	bhi.n	14c0 <raise+0x4c>
    147e:	f8d5 22dc 	ldr.w	r2, [r5, #732]	; 0x2dc
    1482:	4604      	mov	r4, r0
    1484:	b162      	cbz	r2, 14a0 <raise+0x2c>
    1486:	f852 3020 	ldr.w	r3, [r2, r0, lsl #2]
    148a:	b14b      	cbz	r3, 14a0 <raise+0x2c>
    148c:	2b01      	cmp	r3, #1
    148e:	d015      	beq.n	14bc <raise+0x48>
    1490:	1c59      	adds	r1, r3, #1
    1492:	d00f      	beq.n	14b4 <raise+0x40>
    1494:	2500      	movs	r5, #0
    1496:	f842 5020 	str.w	r5, [r2, r0, lsl #2]
    149a:	4798      	blx	r3
    149c:	4628      	mov	r0, r5
    149e:	bd38      	pop	{r3, r4, r5, pc}
    14a0:	4628      	mov	r0, r5
    14a2:	f000 f8a3 	bl	15ec <_getpid_r>
    14a6:	4622      	mov	r2, r4
    14a8:	4601      	mov	r1, r0
    14aa:	4628      	mov	r0, r5
    14ac:	e8bd 4038 	ldmia.w	sp!, {r3, r4, r5, lr}
    14b0:	f000 b888 	b.w	15c4 <_kill_r>
    14b4:	2316      	movs	r3, #22
    14b6:	2001      	movs	r0, #1
    14b8:	602b      	str	r3, [r5, #0]
    14ba:	bd38      	pop	{r3, r4, r5, pc}
    14bc:	2000      	movs	r0, #0
    14be:	bd38      	pop	{r3, r4, r5, pc}
    14c0:	2316      	movs	r3, #22
    14c2:	f04f 30ff 	mov.w	r0, #4294967295	; 0xffffffff
    14c6:	602b      	str	r3, [r5, #0]
    14c8:	bd38      	pop	{r3, r4, r5, pc}
    14ca:	bf00      	nop
    14cc:	2000011c 	.word	0x2000011c

000014d0 <signal>:
    14d0:	4b13      	ldr	r3, [pc, #76]	; (1520 <signal+0x50>)
    14d2:	281f      	cmp	r0, #31
    14d4:	b570      	push	{r4, r5, r6, lr}
    14d6:	681e      	ldr	r6, [r3, #0]
    14d8:	d809      	bhi.n	14ee <signal+0x1e>
    14da:	460d      	mov	r5, r1
    14dc:	f8d6 12dc 	ldr.w	r1, [r6, #732]	; 0x2dc
    14e0:	4604      	mov	r4, r0
    14e2:	b149      	cbz	r1, 14f8 <signal+0x28>
    14e4:	f851 0024 	ldr.w	r0, [r1, r4, lsl #2]
    14e8:	f841 5024 	str.w	r5, [r1, r4, lsl #2]
    14ec:	bd70      	pop	{r4, r5, r6, pc}
    14ee:	2316      	movs	r3, #22
    14f0:	f04f 30ff 	mov.w	r0, #4294967295	; 0xffffffff
    14f4:	6033      	str	r3, [r6, #0]
    14f6:	bd70      	pop	{r4, r5, r6, pc}
    14f8:	2180      	movs	r1, #128	; 0x80
    14fa:	4630      	mov	r0, r6
    14fc:	f000 fc68 	bl	1dd0 <_malloc_r>
    1500:	4601      	mov	r1, r0
    1502:	f8c6 02dc 	str.w	r0, [r6, #732]	; 0x2dc
    1506:	b140      	cbz	r0, 151a <signal+0x4a>
    1508:	2200      	movs	r2, #0
    150a:	1f03      	subs	r3, r0, #4
    150c:	f100 0c7c 	add.w	ip, r0, #124	; 0x7c
    1510:	f843 2f04 	str.w	r2, [r3, #4]!
    1514:	4563      	cmp	r3, ip
    1516:	d1fb      	bne.n	1510 <signal+0x40>
    1518:	e7e4      	b.n	14e4 <signal+0x14>
    151a:	f04f 30ff 	mov.w	r0, #4294967295	; 0xffffffff
    151e:	bd70      	pop	{r4, r5, r6, pc}
    1520:	2000011c 	.word	0x2000011c

00001524 <_init_signal>:
    1524:	b538      	push	{r3, r4, r5, lr}
    1526:	4b0c      	ldr	r3, [pc, #48]	; (1558 <_init_signal+0x34>)
    1528:	681d      	ldr	r5, [r3, #0]
    152a:	f8d5 42dc 	ldr.w	r4, [r5, #732]	; 0x2dc
    152e:	b10c      	cbz	r4, 1534 <_init_signal+0x10>
    1530:	2000      	movs	r0, #0
    1532:	bd38      	pop	{r3, r4, r5, pc}
    1534:	2180      	movs	r1, #128	; 0x80
    1536:	4628      	mov	r0, r5
    1538:	f000 fc4a 	bl	1dd0 <_malloc_r>
    153c:	f8c5 02dc 	str.w	r0, [r5, #732]	; 0x2dc
    1540:	b138      	cbz	r0, 1552 <_init_signal+0x2e>
    1542:	1f03      	subs	r3, r0, #4
    1544:	f100 027c 	add.w	r2, r0, #124	; 0x7c
    1548:	f843 4f04 	str.w	r4, [r3, #4]!
    154c:	4293      	cmp	r3, r2
    154e:	d1fb      	bne.n	1548 <_init_signal+0x24>
    1550:	e7ee      	b.n	1530 <_init_signal+0xc>
    1552:	f04f 30ff 	mov.w	r0, #4294967295	; 0xffffffff
    1556:	bd38      	pop	{r3, r4, r5, pc}
    1558:	2000011c 	.word	0x2000011c

0000155c <__sigtramp>:
    155c:	b538      	push	{r3, r4, r5, lr}
    155e:	4b18      	ldr	r3, [pc, #96]	; (15c0 <__sigtramp+0x64>)
    1560:	281f      	cmp	r0, #31
    1562:	681d      	ldr	r5, [r3, #0]
    1564:	d829      	bhi.n	15ba <__sigtramp+0x5e>
    1566:	f8d5 22dc 	ldr.w	r2, [r5, #732]	; 0x2dc
    156a:	4604      	mov	r4, r0
    156c:	b182      	cbz	r2, 1590 <__sigtramp+0x34>
    156e:	f852 3024 	ldr.w	r3, [r2, r4, lsl #2]
    1572:	eb02 0284 	add.w	r2, r2, r4, lsl #2
    1576:	b14b      	cbz	r3, 158c <__sigtramp+0x30>
    1578:	1c59      	adds	r1, r3, #1
    157a:	d01c      	beq.n	15b6 <__sigtramp+0x5a>
    157c:	2b01      	cmp	r3, #1
    157e:	d018      	beq.n	15b2 <__sigtramp+0x56>
    1580:	2500      	movs	r5, #0
    1582:	4620      	mov	r0, r4
    1584:	6015      	str	r5, [r2, #0]
    1586:	4798      	blx	r3
    1588:	4628      	mov	r0, r5
    158a:	bd38      	pop	{r3, r4, r5, pc}
    158c:	2001      	movs	r0, #1
    158e:	bd38      	pop	{r3, r4, r5, pc}
    1590:	2180      	movs	r1, #128	; 0x80
    1592:	4628      	mov	r0, r5
    1594:	f000 fc1c 	bl	1dd0 <_malloc_r>
    1598:	4602      	mov	r2, r0
    159a:	f8c5 02dc 	str.w	r0, [r5, #732]	; 0x2dc
    159e:	b160      	cbz	r0, 15ba <__sigtramp+0x5e>
    15a0:	2000      	movs	r0, #0
    15a2:	1f13      	subs	r3, r2, #4
    15a4:	f102 017c 	add.w	r1, r2, #124	; 0x7c
    15a8:	f843 0f04 	str.w	r0, [r3, #4]!
    15ac:	428b      	cmp	r3, r1
    15ae:	d1fb      	bne.n	15a8 <__sigtramp+0x4c>
    15b0:	e7dd      	b.n	156e <__sigtramp+0x12>
    15b2:	2003      	movs	r0, #3
    15b4:	bd38      	pop	{r3, r4, r5, pc}
    15b6:	2002      	movs	r0, #2
    15b8:	bd38      	pop	{r3, r4, r5, pc}
    15ba:	f04f 30ff 	mov.w	r0, #4294967295	; 0xffffffff
    15be:	bd38      	pop	{r3, r4, r5, pc}
    15c0:	2000011c 	.word	0x2000011c

000015c4 <_kill_r>:
    15c4:	b570      	push	{r4, r5, r6, lr}
    15c6:	2600      	movs	r6, #0
    15c8:	4d07      	ldr	r5, [pc, #28]	; (15e8 <_kill_r+0x24>)
    15ca:	4604      	mov	r4, r0
    15cc:	4608      	mov	r0, r1
    15ce:	4611      	mov	r1, r2
    15d0:	602e      	str	r6, [r5, #0]
    15d2:	f002 fbe9 	bl	3da8 <_kill>
    15d6:	1c43      	adds	r3, r0, #1
    15d8:	d000      	beq.n	15dc <_kill_r+0x18>
    15da:	bd70      	pop	{r4, r5, r6, pc}
    15dc:	682b      	ldr	r3, [r5, #0]
    15de:	2b00      	cmp	r3, #0
    15e0:	d0fb      	beq.n	15da <_kill_r+0x16>
    15e2:	6023      	str	r3, [r4, #0]
    15e4:	bd70      	pop	{r4, r5, r6, pc}
    15e6:	bf00      	nop
    15e8:	200009e8 	.word	0x200009e8

000015ec <_getpid_r>:
    15ec:	f002 b860 	b.w	36b0 <_getpid>

000015f0 <strlen>:
    15f0:	f020 0103 	bic.w	r1, r0, #3
    15f4:	f010 0003 	ands.w	r0, r0, #3
    15f8:	f1c0 0000 	rsb	r0, r0, #0
    15fc:	f851 3b04 	ldr.w	r3, [r1], #4
    1600:	f100 0c04 	add.w	ip, r0, #4
    1604:	ea4f 0ccc 	mov.w	ip, ip, lsl #3
    1608:	f06f 0200 	mvn.w	r2, #0
    160c:	bf1c      	itt	ne
    160e:	fa22 f20c 	lsrne.w	r2, r2, ip
    1612:	4313      	orrne	r3, r2
    1614:	f04f 0c01 	mov.w	ip, #1
    1618:	ea4c 2c0c 	orr.w	ip, ip, ip, lsl #8
    161c:	ea4c 4c0c 	orr.w	ip, ip, ip, lsl #16
    1620:	eba3 020c 	sub.w	r2, r3, ip
    1624:	ea22 0203 	bic.w	r2, r2, r3
    1628:	ea12 12cc 	ands.w	r2, r2, ip, lsl #7
    162c:	bf04      	itt	eq
    162e:	f851 3b04 	ldreq.w	r3, [r1], #4
    1632:	3004      	addeq	r0, #4
    1634:	d0f4      	beq.n	1620 <strlen+0x30>
    1636:	f1c2 0100 	rsb	r1, r2, #0
    163a:	ea02 0201 	and.w	r2, r2, r1
    163e:	fab2 f282 	clz	r2, r2
    1642:	f1c2 021f 	rsb	r2, r2, #31
    1646:	eb00 00d2 	add.w	r0, r0, r2, lsr #3
    164a:	4770      	bx	lr

0000164c <register_fini>:
    164c:	4b02      	ldr	r3, [pc, #8]	; (1658 <register_fini+0xc>)
    164e:	b113      	cbz	r3, 1656 <register_fini+0xa>
    1650:	4802      	ldr	r0, [pc, #8]	; (165c <register_fini+0x10>)
    1652:	f000 b867 	b.w	1724 <atexit>
    1656:	4770      	bx	lr
    1658:	00000000 	.word	0x00000000
    165c:	00001a05 	.word	0x00001a05

00001660 <__call_exitprocs>:
    1660:	e92d 4ff0 	stmdb	sp!, {r4, r5, r6, r7, r8, r9, sl, fp, lr}
    1664:	4683      	mov	fp, r0
    1666:	4b2d      	ldr	r3, [pc, #180]	; (171c <__call_exitprocs+0xbc>)
    1668:	b083      	sub	sp, #12
    166a:	6818      	ldr	r0, [r3, #0]
    166c:	460f      	mov	r7, r1
    166e:	f8cd b004 	str.w	fp, [sp, #4]
    1672:	f000 fba3 	bl	1dbc <__retarget_lock_acquire_recursive>
    1676:	4b2a      	ldr	r3, [pc, #168]	; (1720 <__call_exitprocs+0xc0>)
    1678:	f8d3 8000 	ldr.w	r8, [r3]
    167c:	f8d8 6148 	ldr.w	r6, [r8, #328]	; 0x148
    1680:	b19e      	cbz	r6, 16aa <__call_exitprocs+0x4a>
    1682:	f04f 0901 	mov.w	r9, #1
    1686:	f04f 0a00 	mov.w	sl, #0
    168a:	6874      	ldr	r4, [r6, #4]
    168c:	1e65      	subs	r5, r4, #1
    168e:	d40c      	bmi.n	16aa <__call_exitprocs+0x4a>
    1690:	3401      	adds	r4, #1
    1692:	eb06 0484 	add.w	r4, r6, r4, lsl #2
    1696:	b17f      	cbz	r7, 16b8 <__call_exitprocs+0x58>
    1698:	f8d4 3100 	ldr.w	r3, [r4, #256]	; 0x100
    169c:	42bb      	cmp	r3, r7
    169e:	d00b      	beq.n	16b8 <__call_exitprocs+0x58>
    16a0:	3d01      	subs	r5, #1
    16a2:	1c6b      	adds	r3, r5, #1
    16a4:	f1a4 0404 	sub.w	r4, r4, #4
    16a8:	d1f5      	bne.n	1696 <__call_exitprocs+0x36>
    16aa:	4b1c      	ldr	r3, [pc, #112]	; (171c <__call_exitprocs+0xbc>)
    16ac:	6818      	ldr	r0, [r3, #0]
    16ae:	b003      	add	sp, #12
    16b0:	e8bd 4ff0 	ldmia.w	sp!, {r4, r5, r6, r7, r8, r9, sl, fp, lr}
    16b4:	f000 bb8a 	b.w	1dcc <__retarget_lock_release_recursive>
    16b8:	6873      	ldr	r3, [r6, #4]
    16ba:	6822      	ldr	r2, [r4, #0]
    16bc:	3b01      	subs	r3, #1
    16be:	42ab      	cmp	r3, r5
    16c0:	bf0c      	ite	eq
    16c2:	6075      	streq	r5, [r6, #4]
    16c4:	f8c4 a000 	strne.w	sl, [r4]
    16c8:	2a00      	cmp	r2, #0
    16ca:	d0e9      	beq.n	16a0 <__call_exitprocs+0x40>
    16cc:	f8d6 0188 	ldr.w	r0, [r6, #392]	; 0x188
    16d0:	fa09 f105 	lsl.w	r1, r9, r5
    16d4:	4201      	tst	r1, r0
    16d6:	f8d6 b004 	ldr.w	fp, [r6, #4]
    16da:	d10b      	bne.n	16f4 <__call_exitprocs+0x94>
    16dc:	4790      	blx	r2
    16de:	6872      	ldr	r2, [r6, #4]
    16e0:	455a      	cmp	r2, fp
    16e2:	d112      	bne.n	170a <__call_exitprocs+0xaa>
    16e4:	f8d8 3148 	ldr.w	r3, [r8, #328]	; 0x148
    16e8:	42b3      	cmp	r3, r6
    16ea:	d0d9      	beq.n	16a0 <__call_exitprocs+0x40>
    16ec:	461e      	mov	r6, r3
    16ee:	2e00      	cmp	r6, #0
    16f0:	d1cb      	bne.n	168a <__call_exitprocs+0x2a>
    16f2:	e7da      	b.n	16aa <__call_exitprocs+0x4a>
    16f4:	f8d6 018c 	ldr.w	r0, [r6, #396]	; 0x18c
    16f8:	4201      	tst	r1, r0
    16fa:	d10b      	bne.n	1714 <__call_exitprocs+0xb4>
    16fc:	9801      	ldr	r0, [sp, #4]
    16fe:	f8d4 1080 	ldr.w	r1, [r4, #128]	; 0x80
    1702:	4790      	blx	r2
    1704:	6872      	ldr	r2, [r6, #4]
    1706:	455a      	cmp	r2, fp
    1708:	d0ec      	beq.n	16e4 <__call_exitprocs+0x84>
    170a:	f8d8 6148 	ldr.w	r6, [r8, #328]	; 0x148
    170e:	2e00      	cmp	r6, #0
    1710:	d1bb      	bne.n	168a <__call_exitprocs+0x2a>
    1712:	e7ca      	b.n	16aa <__call_exitprocs+0x4a>
    1714:	f8d4 0080 	ldr.w	r0, [r4, #128]	; 0x80
    1718:	4790      	blx	r2
    171a:	e7e0      	b.n	16de <__call_exitprocs+0x7e>
    171c:	20000548 	.word	0x20000548
    1720:	00003e1c 	.word	0x00003e1c

00001724 <atexit>:
    1724:	2300      	movs	r3, #0
    1726:	4601      	mov	r1, r0
    1728:	461a      	mov	r2, r3
    172a:	4618      	mov	r0, r3
    172c:	f001 ba00 	b.w	2b30 <__register_exitproc>

00001730 <_cleanup_r>:
    1730:	4901      	ldr	r1, [pc, #4]	; (1738 <_cleanup_r+0x8>)
    1732:	f000 bb15 	b.w	1d60 <_fwalk_reent>
    1736:	bf00      	nop
    1738:	00002be1 	.word	0x00002be1

0000173c <__fp_lock>:
    173c:	b508      	push	{r3, lr}
    173e:	6e43      	ldr	r3, [r0, #100]	; 0x64
    1740:	07da      	lsls	r2, r3, #31
    1742:	d402      	bmi.n	174a <__fp_lock+0xe>
    1744:	8983      	ldrh	r3, [r0, #12]
    1746:	059b      	lsls	r3, r3, #22
    1748:	d501      	bpl.n	174e <__fp_lock+0x12>
    174a:	2000      	movs	r0, #0
    174c:	bd08      	pop	{r3, pc}
    174e:	6d80      	ldr	r0, [r0, #88]	; 0x58
    1750:	f000 fb34 	bl	1dbc <__retarget_lock_acquire_recursive>
    1754:	2000      	movs	r0, #0
    1756:	bd08      	pop	{r3, pc}

00001758 <__fp_unlock>:
    1758:	b508      	push	{r3, lr}
    175a:	6e43      	ldr	r3, [r0, #100]	; 0x64
    175c:	07da      	lsls	r2, r3, #31
    175e:	d402      	bmi.n	1766 <__fp_unlock+0xe>
    1760:	8983      	ldrh	r3, [r0, #12]
    1762:	059b      	lsls	r3, r3, #22
    1764:	d501      	bpl.n	176a <__fp_unlock+0x12>
    1766:	2000      	movs	r0, #0
    1768:	bd08      	pop	{r3, pc}
    176a:	6d80      	ldr	r0, [r0, #88]	; 0x58
    176c:	f000 fb2e 	bl	1dcc <__retarget_lock_release_recursive>
    1770:	2000      	movs	r0, #0
    1772:	bd08      	pop	{r3, pc}

00001774 <__sfmoreglue>:
    1774:	2268      	movs	r2, #104	; 0x68
    1776:	b570      	push	{r4, r5, r6, lr}
    1778:	1e4d      	subs	r5, r1, #1
    177a:	fb02 f505 	mul.w	r5, r2, r5
    177e:	460e      	mov	r6, r1
    1780:	f105 0174 	add.w	r1, r5, #116	; 0x74
    1784:	f000 fb24 	bl	1dd0 <_malloc_r>
    1788:	4604      	mov	r4, r0
    178a:	b140      	cbz	r0, 179e <__sfmoreglue+0x2a>
    178c:	2100      	movs	r1, #0
    178e:	300c      	adds	r0, #12
    1790:	e9c4 6001 	strd	r6, r0, [r4, #4]
    1794:	f105 0268 	add.w	r2, r5, #104	; 0x68
    1798:	6021      	str	r1, [r4, #0]
    179a:	f7ff fd25 	bl	11e8 <memset>
    179e:	4620      	mov	r0, r4
    17a0:	bd70      	pop	{r4, r5, r6, pc}
    17a2:	bf00      	nop

000017a4 <_cleanup>:
    17a4:	4b02      	ldr	r3, [pc, #8]	; (17b0 <_cleanup+0xc>)
    17a6:	4903      	ldr	r1, [pc, #12]	; (17b4 <_cleanup+0x10>)
    17a8:	6818      	ldr	r0, [r3, #0]
    17aa:	f000 bad9 	b.w	1d60 <_fwalk_reent>
    17ae:	bf00      	nop
    17b0:	00003e1c 	.word	0x00003e1c
    17b4:	00002be1 	.word	0x00002be1

000017b8 <__sinit>:
    17b8:	e92d 47f0 	stmdb	sp!, {r4, r5, r6, r7, r8, r9, sl, lr}
    17bc:	4682      	mov	sl, r0
    17be:	4839      	ldr	r0, [pc, #228]	; (18a4 <__sinit+0xec>)
    17c0:	f000 fafc 	bl	1dbc <__retarget_lock_acquire_recursive>
    17c4:	f8da 4038 	ldr.w	r4, [sl, #56]	; 0x38
    17c8:	2c00      	cmp	r4, #0
    17ca:	d166      	bne.n	189a <__sinit+0xe2>
    17cc:	2304      	movs	r3, #4
    17ce:	2203      	movs	r2, #3
    17d0:	4935      	ldr	r1, [pc, #212]	; (18a8 <__sinit+0xf0>)
    17d2:	f8da 5004 	ldr.w	r5, [sl, #4]
    17d6:	f8ca 103c 	str.w	r1, [sl, #60]	; 0x3c
    17da:	f8df 90d0 	ldr.w	r9, [pc, #208]	; 18ac <__sinit+0xf4>
    17de:	f8df 80d0 	ldr.w	r8, [pc, #208]	; 18b0 <__sinit+0xf8>
    17e2:	4f34      	ldr	r7, [pc, #208]	; (18b4 <__sinit+0xfc>)
    17e4:	4e34      	ldr	r6, [pc, #208]	; (18b8 <__sinit+0x100>)
    17e6:	f50a 713b 	add.w	r1, sl, #748	; 0x2ec
    17ea:	e9ca 21b9 	strd	r2, r1, [sl, #740]	; 0x2e4
    17ee:	f8ca 42e0 	str.w	r4, [sl, #736]	; 0x2e0
    17f2:	4621      	mov	r1, r4
    17f4:	60eb      	str	r3, [r5, #12]
    17f6:	2208      	movs	r2, #8
    17f8:	e9c5 4400 	strd	r4, r4, [r5]
    17fc:	e9c5 4404 	strd	r4, r4, [r5, #16]
    1800:	666c      	str	r4, [r5, #100]	; 0x64
    1802:	60ac      	str	r4, [r5, #8]
    1804:	61ac      	str	r4, [r5, #24]
    1806:	f105 005c 	add.w	r0, r5, #92	; 0x5c
    180a:	f7ff fced 	bl	11e8 <memset>
    180e:	e9c5 5907 	strd	r5, r9, [r5, #28]
    1812:	e9c5 8709 	strd	r8, r7, [r5, #36]	; 0x24
    1816:	62ee      	str	r6, [r5, #44]	; 0x2c
    1818:	f105 0058 	add.w	r0, r5, #88	; 0x58
    181c:	f000 fac6 	bl	1dac <__retarget_lock_init_recursive>
    1820:	f8da 5008 	ldr.w	r5, [sl, #8]
    1824:	4b25      	ldr	r3, [pc, #148]	; (18bc <__sinit+0x104>)
    1826:	4621      	mov	r1, r4
    1828:	60eb      	str	r3, [r5, #12]
    182a:	2208      	movs	r2, #8
    182c:	e9c5 4400 	strd	r4, r4, [r5]
    1830:	e9c5 4404 	strd	r4, r4, [r5, #16]
    1834:	666c      	str	r4, [r5, #100]	; 0x64
    1836:	60ac      	str	r4, [r5, #8]
    1838:	61ac      	str	r4, [r5, #24]
    183a:	f105 005c 	add.w	r0, r5, #92	; 0x5c
    183e:	f7ff fcd3 	bl	11e8 <memset>
    1842:	e9c5 5907 	strd	r5, r9, [r5, #28]
    1846:	e9c5 8709 	strd	r8, r7, [r5, #36]	; 0x24
    184a:	62ee      	str	r6, [r5, #44]	; 0x2c
    184c:	f105 0058 	add.w	r0, r5, #88	; 0x58
    1850:	f000 faac 	bl	1dac <__retarget_lock_init_recursive>
    1854:	f8da 500c 	ldr.w	r5, [sl, #12]
    1858:	4b19      	ldr	r3, [pc, #100]	; (18c0 <__sinit+0x108>)
    185a:	4621      	mov	r1, r4
    185c:	60eb      	str	r3, [r5, #12]
    185e:	2208      	movs	r2, #8
    1860:	e9c5 4400 	strd	r4, r4, [r5]
    1864:	e9c5 4404 	strd	r4, r4, [r5, #16]
    1868:	666c      	str	r4, [r5, #100]	; 0x64
    186a:	60ac      	str	r4, [r5, #8]
    186c:	61ac      	str	r4, [r5, #24]
    186e:	f105 005c 	add.w	r0, r5, #92	; 0x5c
    1872:	f7ff fcb9 	bl	11e8 <memset>
    1876:	f105 0058 	add.w	r0, r5, #88	; 0x58
    187a:	e9c5 5907 	strd	r5, r9, [r5, #28]
    187e:	e9c5 760a 	strd	r7, r6, [r5, #40]	; 0x28
    1882:	f8c5 8024 	str.w	r8, [r5, #36]	; 0x24
    1886:	f000 fa91 	bl	1dac <__retarget_lock_init_recursive>
    188a:	2301      	movs	r3, #1
    188c:	4805      	ldr	r0, [pc, #20]	; (18a4 <__sinit+0xec>)
    188e:	f8ca 3038 	str.w	r3, [sl, #56]	; 0x38
    1892:	e8bd 47f0 	ldmia.w	sp!, {r4, r5, r6, r7, r8, r9, sl, lr}
    1896:	f000 ba99 	b.w	1dcc <__retarget_lock_release_recursive>
    189a:	4802      	ldr	r0, [pc, #8]	; (18a4 <__sinit+0xec>)
    189c:	e8bd 47f0 	ldmia.w	sp!, {r4, r5, r6, r7, r8, r9, sl, lr}
    18a0:	f000 ba94 	b.w	1dcc <__retarget_lock_release_recursive>
    18a4:	200009ac 	.word	0x200009ac
    18a8:	00001731 	.word	0x00001731
    18ac:	000029a1 	.word	0x000029a1
    18b0:	000029c9 	.word	0x000029c9
    18b4:	00002a09 	.word	0x00002a09
    18b8:	00002a29 	.word	0x00002a29
    18bc:	00010009 	.word	0x00010009
    18c0:	00020012 	.word	0x00020012

000018c4 <__sfp>:
    18c4:	e92d 41f0 	stmdb	sp!, {r4, r5, r6, r7, r8, lr}
    18c8:	4607      	mov	r7, r0
    18ca:	482d      	ldr	r0, [pc, #180]	; (1980 <__sfp+0xbc>)
    18cc:	f000 fa76 	bl	1dbc <__retarget_lock_acquire_recursive>
    18d0:	4b2c      	ldr	r3, [pc, #176]	; (1984 <__sfp+0xc0>)
    18d2:	681e      	ldr	r6, [r3, #0]
    18d4:	6bb3      	ldr	r3, [r6, #56]	; 0x38
    18d6:	b393      	cbz	r3, 193e <__sfp+0x7a>
    18d8:	f04f 0804 	mov.w	r8, #4
    18dc:	f506 7638 	add.w	r6, r6, #736	; 0x2e0
    18e0:	e9d6 3401 	ldrd	r3, r4, [r6, #4]
    18e4:	3b01      	subs	r3, #1
    18e6:	d504      	bpl.n	18f2 <__sfp+0x2e>
    18e8:	e025      	b.n	1936 <__sfp+0x72>
    18ea:	1c5a      	adds	r2, r3, #1
    18ec:	f104 0468 	add.w	r4, r4, #104	; 0x68
    18f0:	d021      	beq.n	1936 <__sfp+0x72>
    18f2:	f9b4 500c 	ldrsh.w	r5, [r4, #12]
    18f6:	3b01      	subs	r3, #1
    18f8:	2d00      	cmp	r5, #0
    18fa:	d1f6      	bne.n	18ea <__sfp+0x26>
    18fc:	4b22      	ldr	r3, [pc, #136]	; (1988 <__sfp+0xc4>)
    18fe:	f104 0058 	add.w	r0, r4, #88	; 0x58
    1902:	60e3      	str	r3, [r4, #12]
    1904:	6665      	str	r5, [r4, #100]	; 0x64
    1906:	f000 fa51 	bl	1dac <__retarget_lock_init_recursive>
    190a:	481d      	ldr	r0, [pc, #116]	; (1980 <__sfp+0xbc>)
    190c:	f000 fa5e 	bl	1dcc <__retarget_lock_release_recursive>
    1910:	2208      	movs	r2, #8
    1912:	4629      	mov	r1, r5
    1914:	e9c4 5501 	strd	r5, r5, [r4, #4]
    1918:	e9c4 5504 	strd	r5, r5, [r4, #16]
    191c:	6025      	str	r5, [r4, #0]
    191e:	61a5      	str	r5, [r4, #24]
    1920:	f104 005c 	add.w	r0, r4, #92	; 0x5c
    1924:	f7ff fc60 	bl	11e8 <memset>
    1928:	e9c4 550c 	strd	r5, r5, [r4, #48]	; 0x30
    192c:	e9c4 5511 	strd	r5, r5, [r4, #68]	; 0x44
    1930:	4620      	mov	r0, r4
    1932:	e8bd 81f0 	ldmia.w	sp!, {r4, r5, r6, r7, r8, pc}
    1936:	6835      	ldr	r5, [r6, #0]
    1938:	b12d      	cbz	r5, 1946 <__sfp+0x82>
    193a:	462e      	mov	r6, r5
    193c:	e7d0      	b.n	18e0 <__sfp+0x1c>
    193e:	4630      	mov	r0, r6
    1940:	f7ff ff3a 	bl	17b8 <__sinit>
    1944:	e7c8      	b.n	18d8 <__sfp+0x14>
    1946:	f44f 71d6 	mov.w	r1, #428	; 0x1ac
    194a:	4638      	mov	r0, r7
    194c:	f000 fa40 	bl	1dd0 <_malloc_r>
    1950:	4604      	mov	r4, r0
    1952:	b168      	cbz	r0, 1970 <__sfp+0xac>
    1954:	6005      	str	r5, [r0, #0]
    1956:	4629      	mov	r1, r5
    1958:	4605      	mov	r5, r0
    195a:	f8c0 8004 	str.w	r8, [r0, #4]
    195e:	300c      	adds	r0, #12
    1960:	f44f 72d0 	mov.w	r2, #416	; 0x1a0
    1964:	60a0      	str	r0, [r4, #8]
    1966:	f7ff fc3f 	bl	11e8 <memset>
    196a:	6034      	str	r4, [r6, #0]
    196c:	462e      	mov	r6, r5
    196e:	e7b7      	b.n	18e0 <__sfp+0x1c>
    1970:	4803      	ldr	r0, [pc, #12]	; (1980 <__sfp+0xbc>)
    1972:	6034      	str	r4, [r6, #0]
    1974:	f000 fa2a 	bl	1dcc <__retarget_lock_release_recursive>
    1978:	230c      	movs	r3, #12
    197a:	603b      	str	r3, [r7, #0]
    197c:	e7d8      	b.n	1930 <__sfp+0x6c>
    197e:	bf00      	nop
    1980:	200009a8 	.word	0x200009a8
    1984:	00003e1c 	.word	0x00003e1c
    1988:	ffff0001 	.word	0xffff0001

0000198c <__sfp_lock_acquire>:
    198c:	4801      	ldr	r0, [pc, #4]	; (1994 <__sfp_lock_acquire+0x8>)
    198e:	f000 ba15 	b.w	1dbc <__retarget_lock_acquire_recursive>
    1992:	bf00      	nop
    1994:	200009a8 	.word	0x200009a8

00001998 <__sfp_lock_release>:
    1998:	4801      	ldr	r0, [pc, #4]	; (19a0 <__sfp_lock_release+0x8>)
    199a:	f000 ba17 	b.w	1dcc <__retarget_lock_release_recursive>
    199e:	bf00      	nop
    19a0:	200009a8 	.word	0x200009a8

000019a4 <__sinit_lock_acquire>:
    19a4:	4801      	ldr	r0, [pc, #4]	; (19ac <__sinit_lock_acquire+0x8>)
    19a6:	f000 ba09 	b.w	1dbc <__retarget_lock_acquire_recursive>
    19aa:	bf00      	nop
    19ac:	200009ac 	.word	0x200009ac

000019b0 <__sinit_lock_release>:
    19b0:	4801      	ldr	r0, [pc, #4]	; (19b8 <__sinit_lock_release+0x8>)
    19b2:	f000 ba0b 	b.w	1dcc <__retarget_lock_release_recursive>
    19b6:	bf00      	nop
    19b8:	200009ac 	.word	0x200009ac

000019bc <__fp_lock_all>:
    19bc:	b508      	push	{r3, lr}
    19be:	4805      	ldr	r0, [pc, #20]	; (19d4 <__fp_lock_all+0x18>)
    19c0:	f000 f9fc 	bl	1dbc <__retarget_lock_acquire_recursive>
    19c4:	4b04      	ldr	r3, [pc, #16]	; (19d8 <__fp_lock_all+0x1c>)
    19c6:	4905      	ldr	r1, [pc, #20]	; (19dc <__fp_lock_all+0x20>)
    19c8:	6818      	ldr	r0, [r3, #0]
    19ca:	e8bd 4008 	ldmia.w	sp!, {r3, lr}
    19ce:	f000 b9a7 	b.w	1d20 <_fwalk>
    19d2:	bf00      	nop
    19d4:	200009a8 	.word	0x200009a8
    19d8:	2000011c 	.word	0x2000011c
    19dc:	0000173d 	.word	0x0000173d

000019e0 <__fp_unlock_all>:
    19e0:	b508      	push	{r3, lr}
    19e2:	4b05      	ldr	r3, [pc, #20]	; (19f8 <__fp_unlock_all+0x18>)
    19e4:	4905      	ldr	r1, [pc, #20]	; (19fc <__fp_unlock_all+0x1c>)
    19e6:	6818      	ldr	r0, [r3, #0]
    19e8:	f000 f99a 	bl	1d20 <_fwalk>
    19ec:	e8bd 4008 	ldmia.w	sp!, {r3, lr}
    19f0:	4803      	ldr	r0, [pc, #12]	; (1a00 <__fp_unlock_all+0x20>)
    19f2:	f000 b9eb 	b.w	1dcc <__retarget_lock_release_recursive>
    19f6:	bf00      	nop
    19f8:	2000011c 	.word	0x2000011c
    19fc:	00001759 	.word	0x00001759
    1a00:	200009a8 	.word	0x200009a8

00001a04 <__libc_fini_array>:
    1a04:	b538      	push	{r3, r4, r5, lr}
    1a06:	4b08      	ldr	r3, [pc, #32]	; (1a28 <__libc_fini_array+0x24>)
    1a08:	4d08      	ldr	r5, [pc, #32]	; (1a2c <__libc_fini_array+0x28>)
    1a0a:	1b5b      	subs	r3, r3, r5
    1a0c:	109c      	asrs	r4, r3, #2
    1a0e:	d007      	beq.n	1a20 <__libc_fini_array+0x1c>
    1a10:	3b04      	subs	r3, #4
    1a12:	441d      	add	r5, r3
    1a14:	3c01      	subs	r4, #1
    1a16:	f855 3904 	ldr.w	r3, [r5], #-4
    1a1a:	4798      	blx	r3
    1a1c:	2c00      	cmp	r4, #0
    1a1e:	d1f9      	bne.n	1a14 <__libc_fini_array+0x10>
    1a20:	e8bd 4038 	ldmia.w	sp!, {r3, r4, r5, lr}
    1a24:	f002 b9da 	b.w	3ddc <_fini>
    1a28:	20000974 	.word	0x20000974
    1a2c:	20000970 	.word	0x20000970

00001a30 <__sfvwrite_r>:
    1a30:	6893      	ldr	r3, [r2, #8]
    1a32:	2b00      	cmp	r3, #0
    1a34:	f000 80b7 	beq.w	1ba6 <__sfvwrite_r+0x176>
    1a38:	e92d 4ff0 	stmdb	sp!, {r4, r5, r6, r7, r8, r9, sl, fp, lr}
    1a3c:	f9b1 300c 	ldrsh.w	r3, [r1, #12]
    1a40:	460c      	mov	r4, r1
    1a42:	0719      	lsls	r1, r3, #28
    1a44:	4680      	mov	r8, r0
    1a46:	4617      	mov	r7, r2
    1a48:	b083      	sub	sp, #12
    1a4a:	b298      	uxth	r0, r3
    1a4c:	d525      	bpl.n	1a9a <__sfvwrite_r+0x6a>
    1a4e:	6923      	ldr	r3, [r4, #16]
    1a50:	b31b      	cbz	r3, 1a9a <__sfvwrite_r+0x6a>
    1a52:	f010 0302 	ands.w	r3, r0, #2
    1a56:	683d      	ldr	r5, [r7, #0]
    1a58:	d02d      	beq.n	1ab6 <__sfvwrite_r+0x86>
    1a5a:	f04f 0b00 	mov.w	fp, #0
    1a5e:	465e      	mov	r6, fp
    1a60:	f8df a2b8 	ldr.w	sl, [pc, #696]	; 1d1c <__sfvwrite_r+0x2ec>
    1a64:	2e00      	cmp	r6, #0
    1a66:	f000 808b 	beq.w	1b80 <__sfvwrite_r+0x150>
    1a6a:	4556      	cmp	r6, sl
    1a6c:	4633      	mov	r3, r6
    1a6e:	465a      	mov	r2, fp
    1a70:	bf28      	it	cs
    1a72:	4653      	movcs	r3, sl
    1a74:	4640      	mov	r0, r8
    1a76:	69e1      	ldr	r1, [r4, #28]
    1a78:	f8d4 c024 	ldr.w	ip, [r4, #36]	; 0x24
    1a7c:	47e0      	blx	ip
    1a7e:	2800      	cmp	r0, #0
    1a80:	f340 8087 	ble.w	1b92 <__sfvwrite_r+0x162>
    1a84:	68bb      	ldr	r3, [r7, #8]
    1a86:	4483      	add	fp, r0
    1a88:	1a1b      	subs	r3, r3, r0
    1a8a:	1a36      	subs	r6, r6, r0
    1a8c:	60bb      	str	r3, [r7, #8]
    1a8e:	2b00      	cmp	r3, #0
    1a90:	d1e8      	bne.n	1a64 <__sfvwrite_r+0x34>
    1a92:	2000      	movs	r0, #0
    1a94:	b003      	add	sp, #12
    1a96:	e8bd 8ff0 	ldmia.w	sp!, {r4, r5, r6, r7, r8, r9, sl, fp, pc}
    1a9a:	4621      	mov	r1, r4
    1a9c:	4640      	mov	r0, r8
    1a9e:	f000 ffdd 	bl	2a5c <__swsetup_r>
    1aa2:	2800      	cmp	r0, #0
    1aa4:	f040 8136 	bne.w	1d14 <__sfvwrite_r+0x2e4>
    1aa8:	f9b4 300c 	ldrsh.w	r3, [r4, #12]
    1aac:	683d      	ldr	r5, [r7, #0]
    1aae:	b298      	uxth	r0, r3
    1ab0:	f010 0302 	ands.w	r3, r0, #2
    1ab4:	d1d1      	bne.n	1a5a <__sfvwrite_r+0x2a>
    1ab6:	f010 0901 	ands.w	r9, r0, #1
    1aba:	d176      	bne.n	1baa <__sfvwrite_r+0x17a>
    1abc:	464e      	mov	r6, r9
    1abe:	2e00      	cmp	r6, #0
    1ac0:	d05a      	beq.n	1b78 <__sfvwrite_r+0x148>
    1ac2:	0582      	lsls	r2, r0, #22
    1ac4:	f8d4 b008 	ldr.w	fp, [r4, #8]
    1ac8:	f140 80b5 	bpl.w	1c36 <__sfvwrite_r+0x206>
    1acc:	45b3      	cmp	fp, r6
    1ace:	465a      	mov	r2, fp
    1ad0:	f200 80cd 	bhi.w	1c6e <__sfvwrite_r+0x23e>
    1ad4:	f410 6f90 	tst.w	r0, #1152	; 0x480
    1ad8:	f000 80cb 	beq.w	1c72 <__sfvwrite_r+0x242>
    1adc:	6823      	ldr	r3, [r4, #0]
    1ade:	6921      	ldr	r1, [r4, #16]
    1ae0:	eba3 0b01 	sub.w	fp, r3, r1
    1ae4:	6963      	ldr	r3, [r4, #20]
    1ae6:	eb03 0a43 	add.w	sl, r3, r3, lsl #1
    1aea:	eb0a 7ada 	add.w	sl, sl, sl, lsr #31
    1aee:	f10b 0301 	add.w	r3, fp, #1
    1af2:	ea4f 0a6a 	mov.w	sl, sl, asr #1
    1af6:	4433      	add	r3, r6
    1af8:	4553      	cmp	r3, sl
    1afa:	4652      	mov	r2, sl
    1afc:	bf84      	itt	hi
    1afe:	469a      	movhi	sl, r3
    1b00:	4652      	movhi	r2, sl
    1b02:	0543      	lsls	r3, r0, #21
    1b04:	f140 80ea 	bpl.w	1cdc <__sfvwrite_r+0x2ac>
    1b08:	4611      	mov	r1, r2
    1b0a:	4640      	mov	r0, r8
    1b0c:	f000 f960 	bl	1dd0 <_malloc_r>
    1b10:	2800      	cmp	r0, #0
    1b12:	f000 80f9 	beq.w	1d08 <__sfvwrite_r+0x2d8>
    1b16:	465a      	mov	r2, fp
    1b18:	6921      	ldr	r1, [r4, #16]
    1b1a:	9001      	str	r0, [sp, #4]
    1b1c:	f7ff faee 	bl	10fc <memcpy>
    1b20:	89a2      	ldrh	r2, [r4, #12]
    1b22:	9b01      	ldr	r3, [sp, #4]
    1b24:	f422 6290 	bic.w	r2, r2, #1152	; 0x480
    1b28:	f042 0280 	orr.w	r2, r2, #128	; 0x80
    1b2c:	81a2      	strh	r2, [r4, #12]
    1b2e:	eb03 000b 	add.w	r0, r3, fp
    1b32:	6123      	str	r3, [r4, #16]
    1b34:	4632      	mov	r2, r6
    1b36:	ebaa 030b 	sub.w	r3, sl, fp
    1b3a:	46b3      	mov	fp, r6
    1b3c:	f8c4 a014 	str.w	sl, [r4, #20]
    1b40:	60a3      	str	r3, [r4, #8]
    1b42:	6020      	str	r0, [r4, #0]
    1b44:	46b2      	mov	sl, r6
    1b46:	2600      	movs	r6, #0
    1b48:	4649      	mov	r1, r9
    1b4a:	9201      	str	r2, [sp, #4]
    1b4c:	f000 fc34 	bl	23b8 <memmove>
    1b50:	68a3      	ldr	r3, [r4, #8]
    1b52:	6821      	ldr	r1, [r4, #0]
    1b54:	9a01      	ldr	r2, [sp, #4]
    1b56:	eba3 030b 	sub.w	r3, r3, fp
    1b5a:	440a      	add	r2, r1
    1b5c:	60a3      	str	r3, [r4, #8]
    1b5e:	6022      	str	r2, [r4, #0]
    1b60:	68b8      	ldr	r0, [r7, #8]
    1b62:	44d1      	add	r9, sl
    1b64:	eba0 000a 	sub.w	r0, r0, sl
    1b68:	60b8      	str	r0, [r7, #8]
    1b6a:	2800      	cmp	r0, #0
    1b6c:	d091      	beq.n	1a92 <__sfvwrite_r+0x62>
    1b6e:	f9b4 000c 	ldrsh.w	r0, [r4, #12]
    1b72:	b280      	uxth	r0, r0
    1b74:	2e00      	cmp	r6, #0
    1b76:	d1a4      	bne.n	1ac2 <__sfvwrite_r+0x92>
    1b78:	e9d5 9600 	ldrd	r9, r6, [r5]
    1b7c:	3508      	adds	r5, #8
    1b7e:	e79e      	b.n	1abe <__sfvwrite_r+0x8e>
    1b80:	e9d5 b600 	ldrd	fp, r6, [r5]
    1b84:	3508      	adds	r5, #8
    1b86:	e76d      	b.n	1a64 <__sfvwrite_r+0x34>
    1b88:	4621      	mov	r1, r4
    1b8a:	4640      	mov	r0, r8
    1b8c:	f001 f928 	bl	2de0 <_fflush_r>
    1b90:	b380      	cbz	r0, 1bf4 <__sfvwrite_r+0x1c4>
    1b92:	f9b4 300c 	ldrsh.w	r3, [r4, #12]
    1b96:	f04f 30ff 	mov.w	r0, #4294967295	; 0xffffffff
    1b9a:	f043 0340 	orr.w	r3, r3, #64	; 0x40
    1b9e:	81a3      	strh	r3, [r4, #12]
    1ba0:	b003      	add	sp, #12
    1ba2:	e8bd 8ff0 	ldmia.w	sp!, {r4, r5, r6, r7, r8, r9, sl, fp, pc}
    1ba6:	2000      	movs	r0, #0
    1ba8:	4770      	bx	lr
    1baa:	461e      	mov	r6, r3
    1bac:	46aa      	mov	sl, r5
    1bae:	4699      	mov	r9, r3
    1bb0:	4618      	mov	r0, r3
    1bb2:	461d      	mov	r5, r3
    1bb4:	b356      	cbz	r6, 1c0c <__sfvwrite_r+0x1dc>
    1bb6:	2800      	cmp	r0, #0
    1bb8:	d032      	beq.n	1c20 <__sfvwrite_r+0x1f0>
    1bba:	464a      	mov	r2, r9
    1bbc:	6820      	ldr	r0, [r4, #0]
    1bbe:	6921      	ldr	r1, [r4, #16]
    1bc0:	42b2      	cmp	r2, r6
    1bc2:	bf28      	it	cs
    1bc4:	4632      	movcs	r2, r6
    1bc6:	4288      	cmp	r0, r1
    1bc8:	6963      	ldr	r3, [r4, #20]
    1bca:	d904      	bls.n	1bd6 <__sfvwrite_r+0x1a6>
    1bcc:	68a1      	ldr	r1, [r4, #8]
    1bce:	eb03 0b01 	add.w	fp, r3, r1
    1bd2:	455a      	cmp	r2, fp
    1bd4:	dc74      	bgt.n	1cc0 <__sfvwrite_r+0x290>
    1bd6:	4293      	cmp	r3, r2
    1bd8:	dc65      	bgt.n	1ca6 <__sfvwrite_r+0x276>
    1bda:	462a      	mov	r2, r5
    1bdc:	4640      	mov	r0, r8
    1bde:	69e1      	ldr	r1, [r4, #28]
    1be0:	f8d4 c024 	ldr.w	ip, [r4, #36]	; 0x24
    1be4:	47e0      	blx	ip
    1be6:	f1b0 0b00 	subs.w	fp, r0, #0
    1bea:	ddd2      	ble.n	1b92 <__sfvwrite_r+0x162>
    1bec:	ebb9 090b 	subs.w	r9, r9, fp
    1bf0:	d0ca      	beq.n	1b88 <__sfvwrite_r+0x158>
    1bf2:	2001      	movs	r0, #1
    1bf4:	68bb      	ldr	r3, [r7, #8]
    1bf6:	445d      	add	r5, fp
    1bf8:	eba3 030b 	sub.w	r3, r3, fp
    1bfc:	eba6 060b 	sub.w	r6, r6, fp
    1c00:	60bb      	str	r3, [r7, #8]
    1c02:	2b00      	cmp	r3, #0
    1c04:	f43f af45 	beq.w	1a92 <__sfvwrite_r+0x62>
    1c08:	2e00      	cmp	r6, #0
    1c0a:	d1d4      	bne.n	1bb6 <__sfvwrite_r+0x186>
    1c0c:	f10a 0308 	add.w	r3, sl, #8
    1c10:	f853 6c04 	ldr.w	r6, [r3, #-4]
    1c14:	469a      	mov	sl, r3
    1c16:	f853 5c08 	ldr.w	r5, [r3, #-8]
    1c1a:	3308      	adds	r3, #8
    1c1c:	2e00      	cmp	r6, #0
    1c1e:	d0f7      	beq.n	1c10 <__sfvwrite_r+0x1e0>
    1c20:	4632      	mov	r2, r6
    1c22:	210a      	movs	r1, #10
    1c24:	4628      	mov	r0, r5
    1c26:	f000 fb7f 	bl	2328 <memchr>
    1c2a:	2800      	cmp	r0, #0
    1c2c:	d069      	beq.n	1d02 <__sfvwrite_r+0x2d2>
    1c2e:	3001      	adds	r0, #1
    1c30:	eba0 0905 	sub.w	r9, r0, r5
    1c34:	e7c1      	b.n	1bba <__sfvwrite_r+0x18a>
    1c36:	6820      	ldr	r0, [r4, #0]
    1c38:	6923      	ldr	r3, [r4, #16]
    1c3a:	4298      	cmp	r0, r3
    1c3c:	d81b      	bhi.n	1c76 <__sfvwrite_r+0x246>
    1c3e:	6963      	ldr	r3, [r4, #20]
    1c40:	42b3      	cmp	r3, r6
    1c42:	d818      	bhi.n	1c76 <__sfvwrite_r+0x246>
    1c44:	f06f 4c00 	mvn.w	ip, #2147483648	; 0x80000000
    1c48:	45b4      	cmp	ip, r6
    1c4a:	bf28      	it	cs
    1c4c:	46b4      	movcs	ip, r6
    1c4e:	fb9c fcf3 	sdiv	ip, ip, r3
    1c52:	464a      	mov	r2, r9
    1c54:	fb03 f30c 	mul.w	r3, r3, ip
    1c58:	4640      	mov	r0, r8
    1c5a:	69e1      	ldr	r1, [r4, #28]
    1c5c:	f8d4 c024 	ldr.w	ip, [r4, #36]	; 0x24
    1c60:	47e0      	blx	ip
    1c62:	f1b0 0a00 	subs.w	sl, r0, #0
    1c66:	dd94      	ble.n	1b92 <__sfvwrite_r+0x162>
    1c68:	eba6 060a 	sub.w	r6, r6, sl
    1c6c:	e778      	b.n	1b60 <__sfvwrite_r+0x130>
    1c6e:	46b3      	mov	fp, r6
    1c70:	4632      	mov	r2, r6
    1c72:	6820      	ldr	r0, [r4, #0]
    1c74:	e766      	b.n	1b44 <__sfvwrite_r+0x114>
    1c76:	45b3      	cmp	fp, r6
    1c78:	46da      	mov	sl, fp
    1c7a:	bf28      	it	cs
    1c7c:	46b2      	movcs	sl, r6
    1c7e:	4649      	mov	r1, r9
    1c80:	4652      	mov	r2, sl
    1c82:	f000 fb99 	bl	23b8 <memmove>
    1c86:	68a3      	ldr	r3, [r4, #8]
    1c88:	6822      	ldr	r2, [r4, #0]
    1c8a:	eba3 030a 	sub.w	r3, r3, sl
    1c8e:	4452      	add	r2, sl
    1c90:	60a3      	str	r3, [r4, #8]
    1c92:	6022      	str	r2, [r4, #0]
    1c94:	2b00      	cmp	r3, #0
    1c96:	d1e7      	bne.n	1c68 <__sfvwrite_r+0x238>
    1c98:	4621      	mov	r1, r4
    1c9a:	4640      	mov	r0, r8
    1c9c:	f001 f8a0 	bl	2de0 <_fflush_r>
    1ca0:	2800      	cmp	r0, #0
    1ca2:	d0e1      	beq.n	1c68 <__sfvwrite_r+0x238>
    1ca4:	e775      	b.n	1b92 <__sfvwrite_r+0x162>
    1ca6:	4629      	mov	r1, r5
    1ca8:	4693      	mov	fp, r2
    1caa:	9201      	str	r2, [sp, #4]
    1cac:	f000 fb84 	bl	23b8 <memmove>
    1cb0:	68a3      	ldr	r3, [r4, #8]
    1cb2:	9a01      	ldr	r2, [sp, #4]
    1cb4:	1a9b      	subs	r3, r3, r2
    1cb6:	60a3      	str	r3, [r4, #8]
    1cb8:	6823      	ldr	r3, [r4, #0]
    1cba:	441a      	add	r2, r3
    1cbc:	6022      	str	r2, [r4, #0]
    1cbe:	e795      	b.n	1bec <__sfvwrite_r+0x1bc>
    1cc0:	4629      	mov	r1, r5
    1cc2:	465a      	mov	r2, fp
    1cc4:	f000 fb78 	bl	23b8 <memmove>
    1cc8:	6823      	ldr	r3, [r4, #0]
    1cca:	4621      	mov	r1, r4
    1ccc:	445b      	add	r3, fp
    1cce:	4640      	mov	r0, r8
    1cd0:	6023      	str	r3, [r4, #0]
    1cd2:	f001 f885 	bl	2de0 <_fflush_r>
    1cd6:	2800      	cmp	r0, #0
    1cd8:	d088      	beq.n	1bec <__sfvwrite_r+0x1bc>
    1cda:	e75a      	b.n	1b92 <__sfvwrite_r+0x162>
    1cdc:	4640      	mov	r0, r8
    1cde:	f000 fbf3 	bl	24c8 <_realloc_r>
    1ce2:	4603      	mov	r3, r0
    1ce4:	2800      	cmp	r0, #0
    1ce6:	f47f af22 	bne.w	1b2e <__sfvwrite_r+0xfe>
    1cea:	4640      	mov	r0, r8
    1cec:	6921      	ldr	r1, [r4, #16]
    1cee:	f001 f92f 	bl	2f50 <_free_r>
    1cf2:	220c      	movs	r2, #12
    1cf4:	f9b4 300c 	ldrsh.w	r3, [r4, #12]
    1cf8:	f8c8 2000 	str.w	r2, [r8]
    1cfc:	f023 0380 	bic.w	r3, r3, #128	; 0x80
    1d00:	e749      	b.n	1b96 <__sfvwrite_r+0x166>
    1d02:	1c72      	adds	r2, r6, #1
    1d04:	4691      	mov	r9, r2
    1d06:	e759      	b.n	1bbc <__sfvwrite_r+0x18c>
    1d08:	220c      	movs	r2, #12
    1d0a:	f9b4 300c 	ldrsh.w	r3, [r4, #12]
    1d0e:	f8c8 2000 	str.w	r2, [r8]
    1d12:	e740      	b.n	1b96 <__sfvwrite_r+0x166>
    1d14:	f04f 30ff 	mov.w	r0, #4294967295	; 0xffffffff
    1d18:	e6bc      	b.n	1a94 <__sfvwrite_r+0x64>
    1d1a:	bf00      	nop
    1d1c:	7ffffc00 	.word	0x7ffffc00

00001d20 <_fwalk>:
    1d20:	e92d 41f0 	stmdb	sp!, {r4, r5, r6, r7, r8, lr}
    1d24:	2600      	movs	r6, #0
    1d26:	4688      	mov	r8, r1
    1d28:	f500 7738 	add.w	r7, r0, #736	; 0x2e0
    1d2c:	e9d7 5401 	ldrd	r5, r4, [r7, #4]
    1d30:	3d01      	subs	r5, #1
    1d32:	d40e      	bmi.n	1d52 <_fwalk+0x32>
    1d34:	89a3      	ldrh	r3, [r4, #12]
    1d36:	3d01      	subs	r5, #1
    1d38:	2b01      	cmp	r3, #1
    1d3a:	d906      	bls.n	1d4a <_fwalk+0x2a>
    1d3c:	f9b4 300e 	ldrsh.w	r3, [r4, #14]
    1d40:	3301      	adds	r3, #1
    1d42:	d002      	beq.n	1d4a <_fwalk+0x2a>
    1d44:	4620      	mov	r0, r4
    1d46:	47c0      	blx	r8
    1d48:	4306      	orrs	r6, r0
    1d4a:	1c6b      	adds	r3, r5, #1
    1d4c:	f104 0468 	add.w	r4, r4, #104	; 0x68
    1d50:	d1f0      	bne.n	1d34 <_fwalk+0x14>
    1d52:	683f      	ldr	r7, [r7, #0]
    1d54:	2f00      	cmp	r7, #0
    1d56:	d1e9      	bne.n	1d2c <_fwalk+0xc>
    1d58:	4630      	mov	r0, r6
    1d5a:	e8bd 81f0 	ldmia.w	sp!, {r4, r5, r6, r7, r8, pc}
    1d5e:	bf00      	nop

00001d60 <_fwalk_reent>:
    1d60:	e92d 43f8 	stmdb	sp!, {r3, r4, r5, r6, r7, r8, r9, lr}
    1d64:	f04f 0900 	mov.w	r9, #0
    1d68:	4607      	mov	r7, r0
    1d6a:	4688      	mov	r8, r1
    1d6c:	f500 7638 	add.w	r6, r0, #736	; 0x2e0
    1d70:	e9d6 5401 	ldrd	r5, r4, [r6, #4]
    1d74:	3d01      	subs	r5, #1
    1d76:	d410      	bmi.n	1d9a <_fwalk_reent+0x3a>
    1d78:	89a3      	ldrh	r3, [r4, #12]
    1d7a:	3d01      	subs	r5, #1
    1d7c:	2b01      	cmp	r3, #1
    1d7e:	d908      	bls.n	1d92 <_fwalk_reent+0x32>
    1d80:	f9b4 300e 	ldrsh.w	r3, [r4, #14]
    1d84:	3301      	adds	r3, #1
    1d86:	d004      	beq.n	1d92 <_fwalk_reent+0x32>
    1d88:	4621      	mov	r1, r4
    1d8a:	4638      	mov	r0, r7
    1d8c:	47c0      	blx	r8
    1d8e:	ea49 0900 	orr.w	r9, r9, r0
    1d92:	1c6b      	adds	r3, r5, #1
    1d94:	f104 0468 	add.w	r4, r4, #104	; 0x68
    1d98:	d1ee      	bne.n	1d78 <_fwalk_reent+0x18>
    1d9a:	6836      	ldr	r6, [r6, #0]
    1d9c:	2e00      	cmp	r6, #0
    1d9e:	d1e7      	bne.n	1d70 <_fwalk_reent+0x10>
    1da0:	4648      	mov	r0, r9
    1da2:	e8bd 83f8 	ldmia.w	sp!, {r3, r4, r5, r6, r7, r8, r9, pc}
    1da6:	bf00      	nop

00001da8 <__retarget_lock_init>:
    1da8:	4770      	bx	lr
    1daa:	bf00      	nop

00001dac <__retarget_lock_init_recursive>:
    1dac:	4770      	bx	lr
    1dae:	bf00      	nop

00001db0 <__retarget_lock_close>:
    1db0:	4770      	bx	lr
    1db2:	bf00      	nop

00001db4 <__retarget_lock_close_recursive>:
    1db4:	4770      	bx	lr
    1db6:	bf00      	nop

00001db8 <__retarget_lock_acquire>:
    1db8:	4770      	bx	lr
    1dba:	bf00      	nop

00001dbc <__retarget_lock_acquire_recursive>:
    1dbc:	4770      	bx	lr
    1dbe:	bf00      	nop

00001dc0 <__retarget_lock_try_acquire>:
    1dc0:	2001      	movs	r0, #1
    1dc2:	4770      	bx	lr

00001dc4 <__retarget_lock_try_acquire_recursive>:
    1dc4:	2001      	movs	r0, #1
    1dc6:	4770      	bx	lr

00001dc8 <__retarget_lock_release>:
    1dc8:	4770      	bx	lr
    1dca:	bf00      	nop

00001dcc <__retarget_lock_release_recursive>:
    1dcc:	4770      	bx	lr
    1dce:	bf00      	nop

00001dd0 <_malloc_r>:
    1dd0:	e92d 4ff0 	stmdb	sp!, {r4, r5, r6, r7, r8, r9, sl, fp, lr}
    1dd4:	f101 050b 	add.w	r5, r1, #11
    1dd8:	2d16      	cmp	r5, #22
    1dda:	4606      	mov	r6, r0
    1ddc:	b083      	sub	sp, #12
    1dde:	d825      	bhi.n	1e2c <_malloc_r+0x5c>
    1de0:	2910      	cmp	r1, #16
    1de2:	f200 80b8 	bhi.w	1f56 <_malloc_r+0x186>
    1de6:	f000 fb63 	bl	24b0 <__malloc_lock>
    1dea:	2510      	movs	r5, #16
    1dec:	2218      	movs	r2, #24
    1dee:	f04f 0c02 	mov.w	ip, #2
    1df2:	4fb5      	ldr	r7, [pc, #724]	; (20c8 <_malloc_r+0x2f8>)
    1df4:	443a      	add	r2, r7
    1df6:	6853      	ldr	r3, [r2, #4]
    1df8:	f1a2 0108 	sub.w	r1, r2, #8
    1dfc:	428b      	cmp	r3, r1
    1dfe:	f000 80b7 	beq.w	1f70 <_malloc_r+0x1a0>
    1e02:	685a      	ldr	r2, [r3, #4]
    1e04:	68d9      	ldr	r1, [r3, #12]
    1e06:	f022 0203 	bic.w	r2, r2, #3
    1e0a:	441a      	add	r2, r3
    1e0c:	689c      	ldr	r4, [r3, #8]
    1e0e:	4630      	mov	r0, r6
    1e10:	60e1      	str	r1, [r4, #12]
    1e12:	608c      	str	r4, [r1, #8]
    1e14:	6851      	ldr	r1, [r2, #4]
    1e16:	f103 0408 	add.w	r4, r3, #8
    1e1a:	f041 0101 	orr.w	r1, r1, #1
    1e1e:	6051      	str	r1, [r2, #4]
    1e20:	f000 fb4c 	bl	24bc <__malloc_unlock>
    1e24:	4620      	mov	r0, r4
    1e26:	b003      	add	sp, #12
    1e28:	e8bd 8ff0 	ldmia.w	sp!, {r4, r5, r6, r7, r8, r9, sl, fp, pc}
    1e2c:	f035 0507 	bics.w	r5, r5, #7
    1e30:	f100 8091 	bmi.w	1f56 <_malloc_r+0x186>
    1e34:	42a9      	cmp	r1, r5
    1e36:	f200 808e 	bhi.w	1f56 <_malloc_r+0x186>
    1e3a:	f000 fb39 	bl	24b0 <__malloc_lock>
    1e3e:	f5b5 7ffc 	cmp.w	r5, #504	; 0x1f8
    1e42:	f0c0 8194 	bcc.w	216e <_malloc_r+0x39e>
    1e46:	0a6b      	lsrs	r3, r5, #9
    1e48:	f000 808c 	beq.w	1f64 <_malloc_r+0x194>
    1e4c:	2b04      	cmp	r3, #4
    1e4e:	f200 816a 	bhi.w	2126 <_malloc_r+0x356>
    1e52:	09ab      	lsrs	r3, r5, #6
    1e54:	f103 0c39 	add.w	ip, r3, #57	; 0x39
    1e58:	f103 0438 	add.w	r4, r3, #56	; 0x38
    1e5c:	ea4f 00cc 	mov.w	r0, ip, lsl #3
    1e60:	4f99      	ldr	r7, [pc, #612]	; (20c8 <_malloc_r+0x2f8>)
    1e62:	4438      	add	r0, r7
    1e64:	6843      	ldr	r3, [r0, #4]
    1e66:	3808      	subs	r0, #8
    1e68:	4298      	cmp	r0, r3
    1e6a:	d106      	bne.n	1e7a <_malloc_r+0xaa>
    1e6c:	e00c      	b.n	1e88 <_malloc_r+0xb8>
    1e6e:	2900      	cmp	r1, #0
    1e70:	f280 8126 	bge.w	20c0 <_malloc_r+0x2f0>
    1e74:	68db      	ldr	r3, [r3, #12]
    1e76:	4298      	cmp	r0, r3
    1e78:	d006      	beq.n	1e88 <_malloc_r+0xb8>
    1e7a:	685a      	ldr	r2, [r3, #4]
    1e7c:	f022 0203 	bic.w	r2, r2, #3
    1e80:	1b51      	subs	r1, r2, r5
    1e82:	290f      	cmp	r1, #15
    1e84:	ddf3      	ble.n	1e6e <_malloc_r+0x9e>
    1e86:	46a4      	mov	ip, r4
    1e88:	693c      	ldr	r4, [r7, #16]
    1e8a:	f8df e240 	ldr.w	lr, [pc, #576]	; 20cc <_malloc_r+0x2fc>
    1e8e:	4574      	cmp	r4, lr
    1e90:	d07a      	beq.n	1f88 <_malloc_r+0x1b8>
    1e92:	6862      	ldr	r2, [r4, #4]
    1e94:	f022 0203 	bic.w	r2, r2, #3
    1e98:	1b53      	subs	r3, r2, r5
    1e9a:	2b0f      	cmp	r3, #15
    1e9c:	f300 8176 	bgt.w	218c <_malloc_r+0x3bc>
    1ea0:	2b00      	cmp	r3, #0
    1ea2:	e9c7 ee04 	strd	lr, lr, [r7, #16]
    1ea6:	f280 8167 	bge.w	2178 <_malloc_r+0x3a8>
    1eaa:	f5b2 7f00 	cmp.w	r2, #512	; 0x200
    1eae:	f080 8119 	bcs.w	20e4 <_malloc_r+0x314>
    1eb2:	2101      	movs	r1, #1
    1eb4:	08d3      	lsrs	r3, r2, #3
    1eb6:	0952      	lsrs	r2, r2, #5
    1eb8:	440b      	add	r3, r1
    1eba:	4091      	lsls	r1, r2
    1ebc:	687a      	ldr	r2, [r7, #4]
    1ebe:	f857 0033 	ldr.w	r0, [r7, r3, lsl #3]
    1ec2:	430a      	orrs	r2, r1
    1ec4:	eb07 01c3 	add.w	r1, r7, r3, lsl #3
    1ec8:	3908      	subs	r1, #8
    1eca:	60a0      	str	r0, [r4, #8]
    1ecc:	60e1      	str	r1, [r4, #12]
    1ece:	607a      	str	r2, [r7, #4]
    1ed0:	f847 4033 	str.w	r4, [r7, r3, lsl #3]
    1ed4:	60c4      	str	r4, [r0, #12]
    1ed6:	2101      	movs	r1, #1
    1ed8:	ea4f 03ac 	mov.w	r3, ip, asr #2
    1edc:	4099      	lsls	r1, r3
    1ede:	4291      	cmp	r1, r2
    1ee0:	d859      	bhi.n	1f96 <_malloc_r+0x1c6>
    1ee2:	4211      	tst	r1, r2
    1ee4:	d106      	bne.n	1ef4 <_malloc_r+0x124>
    1ee6:	f02c 0c03 	bic.w	ip, ip, #3
    1eea:	0049      	lsls	r1, r1, #1
    1eec:	4211      	tst	r1, r2
    1eee:	f10c 0c04 	add.w	ip, ip, #4
    1ef2:	d0fa      	beq.n	1eea <_malloc_r+0x11a>
    1ef4:	eb07 09cc 	add.w	r9, r7, ip, lsl #3
    1ef8:	4648      	mov	r0, r9
    1efa:	4664      	mov	r4, ip
    1efc:	f8d0 800c 	ldr.w	r8, [r0, #12]
    1f00:	4540      	cmp	r0, r8
    1f02:	d108      	bne.n	1f16 <_malloc_r+0x146>
    1f04:	e11c      	b.n	2140 <_malloc_r+0x370>
    1f06:	2b00      	cmp	r3, #0
    1f08:	f280 8121 	bge.w	214e <_malloc_r+0x37e>
    1f0c:	f8d8 800c 	ldr.w	r8, [r8, #12]
    1f10:	4540      	cmp	r0, r8
    1f12:	f000 8115 	beq.w	2140 <_malloc_r+0x370>
    1f16:	f8d8 2004 	ldr.w	r2, [r8, #4]
    1f1a:	f022 0203 	bic.w	r2, r2, #3
    1f1e:	1b53      	subs	r3, r2, r5
    1f20:	2b0f      	cmp	r3, #15
    1f22:	ddf0      	ble.n	1f06 <_malloc_r+0x136>
    1f24:	eb08 0105 	add.w	r1, r8, r5
    1f28:	f045 0501 	orr.w	r5, r5, #1
    1f2c:	f8c8 5004 	str.w	r5, [r8, #4]
    1f30:	4630      	mov	r0, r6
    1f32:	e9d8 6402 	ldrd	r6, r4, [r8, #8]
    1f36:	60f4      	str	r4, [r6, #12]
    1f38:	60a6      	str	r6, [r4, #8]
    1f3a:	f043 0401 	orr.w	r4, r3, #1
    1f3e:	e9c7 1104 	strd	r1, r1, [r7, #16]
    1f42:	604c      	str	r4, [r1, #4]
    1f44:	e9c1 ee02 	strd	lr, lr, [r1, #8]
    1f48:	f848 3002 	str.w	r3, [r8, r2]
    1f4c:	f000 fab6 	bl	24bc <__malloc_unlock>
    1f50:	f108 0408 	add.w	r4, r8, #8
    1f54:	e002      	b.n	1f5c <_malloc_r+0x18c>
    1f56:	230c      	movs	r3, #12
    1f58:	2400      	movs	r4, #0
    1f5a:	6033      	str	r3, [r6, #0]
    1f5c:	4620      	mov	r0, r4
    1f5e:	b003      	add	sp, #12
    1f60:	e8bd 8ff0 	ldmia.w	sp!, {r4, r5, r6, r7, r8, r9, sl, fp, pc}
    1f64:	f44f 7000 	mov.w	r0, #512	; 0x200
    1f68:	f04f 0c40 	mov.w	ip, #64	; 0x40
    1f6c:	243f      	movs	r4, #63	; 0x3f
    1f6e:	e777      	b.n	1e60 <_malloc_r+0x90>
    1f70:	68d3      	ldr	r3, [r2, #12]
    1f72:	429a      	cmp	r2, r3
    1f74:	bf08      	it	eq
    1f76:	f10c 0c02 	addeq.w	ip, ip, #2
    1f7a:	f47f af42 	bne.w	1e02 <_malloc_r+0x32>
    1f7e:	693c      	ldr	r4, [r7, #16]
    1f80:	f8df e148 	ldr.w	lr, [pc, #328]	; 20cc <_malloc_r+0x2fc>
    1f84:	4574      	cmp	r4, lr
    1f86:	d184      	bne.n	1e92 <_malloc_r+0xc2>
    1f88:	2101      	movs	r1, #1
    1f8a:	687a      	ldr	r2, [r7, #4]
    1f8c:	ea4f 03ac 	mov.w	r3, ip, asr #2
    1f90:	4099      	lsls	r1, r3
    1f92:	4291      	cmp	r1, r2
    1f94:	d9a5      	bls.n	1ee2 <_malloc_r+0x112>
    1f96:	68bc      	ldr	r4, [r7, #8]
    1f98:	6863      	ldr	r3, [r4, #4]
    1f9a:	f023 0903 	bic.w	r9, r3, #3
    1f9e:	454d      	cmp	r5, r9
    1fa0:	d803      	bhi.n	1faa <_malloc_r+0x1da>
    1fa2:	eba9 0305 	sub.w	r3, r9, r5
    1fa6:	2b0f      	cmp	r3, #15
    1fa8:	dc7a      	bgt.n	20a0 <_malloc_r+0x2d0>
    1faa:	f8df b124 	ldr.w	fp, [pc, #292]	; 20d0 <_malloc_r+0x300>
    1fae:	4b49      	ldr	r3, [pc, #292]	; (20d4 <_malloc_r+0x304>)
    1fb0:	f8db 2000 	ldr.w	r2, [fp]
    1fb4:	681b      	ldr	r3, [r3, #0]
    1fb6:	3201      	adds	r2, #1
    1fb8:	442b      	add	r3, r5
    1fba:	eb04 0a09 	add.w	sl, r4, r9
    1fbe:	f000 812f 	beq.w	2220 <_malloc_r+0x450>
    1fc2:	f503 5380 	add.w	r3, r3, #4096	; 0x1000
    1fc6:	330f      	adds	r3, #15
    1fc8:	f423 687f 	bic.w	r8, r3, #4080	; 0xff0
    1fcc:	f028 080f 	bic.w	r8, r8, #15
    1fd0:	4641      	mov	r1, r8
    1fd2:	4630      	mov	r0, r6
    1fd4:	f000 fcd2 	bl	297c <_sbrk_r>
    1fd8:	1c41      	adds	r1, r0, #1
    1fda:	4602      	mov	r2, r0
    1fdc:	f000 80ef 	beq.w	21be <_malloc_r+0x3ee>
    1fe0:	4582      	cmp	sl, r0
    1fe2:	f200 80ea 	bhi.w	21ba <_malloc_r+0x3ea>
    1fe6:	4b3c      	ldr	r3, [pc, #240]	; (20d8 <_malloc_r+0x308>)
    1fe8:	6819      	ldr	r1, [r3, #0]
    1fea:	4441      	add	r1, r8
    1fec:	4608      	mov	r0, r1
    1fee:	6019      	str	r1, [r3, #0]
    1ff0:	f000 8149 	beq.w	2286 <_malloc_r+0x4b6>
    1ff4:	f8db 1000 	ldr.w	r1, [fp]
    1ff8:	9301      	str	r3, [sp, #4]
    1ffa:	3101      	adds	r1, #1
    1ffc:	bf1b      	ittet	ne
    1ffe:	eba2 0a0a 	subne.w	sl, r2, sl
    2002:	4450      	addne	r0, sl
    2004:	f8cb 2000 	streq.w	r2, [fp]
    2008:	6018      	strne	r0, [r3, #0]
    200a:	f012 0b07 	ands.w	fp, r2, #7
    200e:	f000 8111 	beq.w	2234 <_malloc_r+0x464>
    2012:	f1cb 0108 	rsb	r1, fp, #8
    2016:	440a      	add	r2, r1
    2018:	f5cb 5180 	rsb	r1, fp, #4096	; 0x1000
    201c:	4490      	add	r8, r2
    201e:	3108      	adds	r1, #8
    2020:	eba1 0108 	sub.w	r1, r1, r8
    2024:	f3c1 0a0b 	ubfx	sl, r1, #0, #12
    2028:	4651      	mov	r1, sl
    202a:	4630      	mov	r0, r6
    202c:	9200      	str	r2, [sp, #0]
    202e:	f000 fca5 	bl	297c <_sbrk_r>
    2032:	1c42      	adds	r2, r0, #1
    2034:	e9dd 2300 	ldrd	r2, r3, [sp]
    2038:	f000 814b 	beq.w	22d2 <_malloc_r+0x502>
    203c:	1a80      	subs	r0, r0, r2
    203e:	eb00 080a 	add.w	r8, r0, sl
    2042:	6819      	ldr	r1, [r3, #0]
    2044:	f048 0001 	orr.w	r0, r8, #1
    2048:	4451      	add	r1, sl
    204a:	42bc      	cmp	r4, r7
    204c:	60ba      	str	r2, [r7, #8]
    204e:	6019      	str	r1, [r3, #0]
    2050:	6050      	str	r0, [r2, #4]
    2052:	f000 8124 	beq.w	229e <_malloc_r+0x4ce>
    2056:	f1b9 0f0f 	cmp.w	r9, #15
    205a:	f240 8122 	bls.w	22a2 <_malloc_r+0x4d2>
    205e:	f04f 0e05 	mov.w	lr, #5
    2062:	6860      	ldr	r0, [r4, #4]
    2064:	f1a9 0c0c 	sub.w	ip, r9, #12
    2068:	f02c 0c07 	bic.w	ip, ip, #7
    206c:	f000 0001 	and.w	r0, r0, #1
    2070:	ea40 000c 	orr.w	r0, r0, ip
    2074:	6060      	str	r0, [r4, #4]
    2076:	f1bc 0f0f 	cmp.w	ip, #15
    207a:	eb04 000c 	add.w	r0, r4, ip
    207e:	e9c0 ee01 	strd	lr, lr, [r0, #4]
    2082:	f200 812e 	bhi.w	22e2 <_malloc_r+0x512>
    2086:	4614      	mov	r4, r2
    2088:	6850      	ldr	r0, [r2, #4]
    208a:	4b14      	ldr	r3, [pc, #80]	; (20dc <_malloc_r+0x30c>)
    208c:	681a      	ldr	r2, [r3, #0]
    208e:	428a      	cmp	r2, r1
    2090:	bf38      	it	cc
    2092:	6019      	strcc	r1, [r3, #0]
    2094:	4b12      	ldr	r3, [pc, #72]	; (20e0 <_malloc_r+0x310>)
    2096:	681a      	ldr	r2, [r3, #0]
    2098:	428a      	cmp	r2, r1
    209a:	bf38      	it	cc
    209c:	6019      	strcc	r1, [r3, #0]
    209e:	e090      	b.n	21c2 <_malloc_r+0x3f2>
    20a0:	1962      	adds	r2, r4, r5
    20a2:	f043 0301 	orr.w	r3, r3, #1
    20a6:	f045 0501 	orr.w	r5, r5, #1
    20aa:	6065      	str	r5, [r4, #4]
    20ac:	4630      	mov	r0, r6
    20ae:	60ba      	str	r2, [r7, #8]
    20b0:	3408      	adds	r4, #8
    20b2:	6053      	str	r3, [r2, #4]
    20b4:	f000 fa02 	bl	24bc <__malloc_unlock>
    20b8:	4620      	mov	r0, r4
    20ba:	b003      	add	sp, #12
    20bc:	e8bd 8ff0 	ldmia.w	sp!, {r4, r5, r6, r7, r8, r9, sl, fp, pc}
    20c0:	68d9      	ldr	r1, [r3, #12]
    20c2:	441a      	add	r2, r3
    20c4:	e6a2      	b.n	1e0c <_malloc_r+0x3c>
    20c6:	bf00      	nop
    20c8:	2000054c 	.word	0x2000054c
    20cc:	20000554 	.word	0x20000554
    20d0:	20000954 	.word	0x20000954
    20d4:	200009e4 	.word	0x200009e4
    20d8:	200009b4 	.word	0x200009b4
    20dc:	200009dc 	.word	0x200009dc
    20e0:	200009e0 	.word	0x200009e0
    20e4:	f5b2 6f20 	cmp.w	r2, #2560	; 0xa00
    20e8:	ea4f 2352 	mov.w	r3, r2, lsr #9
    20ec:	d35f      	bcc.n	21ae <_malloc_r+0x3de>
    20ee:	2b14      	cmp	r3, #20
    20f0:	f200 80b1 	bhi.w	2256 <_malloc_r+0x486>
    20f4:	f103 015c 	add.w	r1, r3, #92	; 0x5c
    20f8:	00c9      	lsls	r1, r1, #3
    20fa:	335b      	adds	r3, #91	; 0x5b
    20fc:	1878      	adds	r0, r7, r1
    20fe:	5879      	ldr	r1, [r7, r1]
    2100:	3808      	subs	r0, #8
    2102:	4288      	cmp	r0, r1
    2104:	f000 808f 	beq.w	2226 <_malloc_r+0x456>
    2108:	684b      	ldr	r3, [r1, #4]
    210a:	f023 0303 	bic.w	r3, r3, #3
    210e:	4293      	cmp	r3, r2
    2110:	d902      	bls.n	2118 <_malloc_r+0x348>
    2112:	6889      	ldr	r1, [r1, #8]
    2114:	4288      	cmp	r0, r1
    2116:	d1f7      	bne.n	2108 <_malloc_r+0x338>
    2118:	68c8      	ldr	r0, [r1, #12]
    211a:	687a      	ldr	r2, [r7, #4]
    211c:	e9c4 1002 	strd	r1, r0, [r4, #8]
    2120:	6084      	str	r4, [r0, #8]
    2122:	60cc      	str	r4, [r1, #12]
    2124:	e6d7      	b.n	1ed6 <_malloc_r+0x106>
    2126:	2b14      	cmp	r3, #20
    2128:	d959      	bls.n	21de <_malloc_r+0x40e>
    212a:	2b54      	cmp	r3, #84	; 0x54
    212c:	f200 809b 	bhi.w	2266 <_malloc_r+0x496>
    2130:	0b2b      	lsrs	r3, r5, #12
    2132:	f103 0c6f 	add.w	ip, r3, #111	; 0x6f
    2136:	f103 046e 	add.w	r4, r3, #110	; 0x6e
    213a:	ea4f 00cc 	mov.w	r0, ip, lsl #3
    213e:	e68f      	b.n	1e60 <_malloc_r+0x90>
    2140:	3401      	adds	r4, #1
    2142:	07a3      	lsls	r3, r4, #30
    2144:	f100 0008 	add.w	r0, r0, #8
    2148:	f47f aed8 	bne.w	1efc <_malloc_r+0x12c>
    214c:	e053      	b.n	21f6 <_malloc_r+0x426>
    214e:	4644      	mov	r4, r8
    2150:	4442      	add	r2, r8
    2152:	6853      	ldr	r3, [r2, #4]
    2154:	f8d8 100c 	ldr.w	r1, [r8, #12]
    2158:	f043 0301 	orr.w	r3, r3, #1
    215c:	6053      	str	r3, [r2, #4]
    215e:	f854 3f08 	ldr.w	r3, [r4, #8]!
    2162:	4630      	mov	r0, r6
    2164:	60d9      	str	r1, [r3, #12]
    2166:	608b      	str	r3, [r1, #8]
    2168:	f000 f9a8 	bl	24bc <__malloc_unlock>
    216c:	e6f6      	b.n	1f5c <_malloc_r+0x18c>
    216e:	ea4f 0cd5 	mov.w	ip, r5, lsr #3
    2172:	f105 0208 	add.w	r2, r5, #8
    2176:	e63c      	b.n	1df2 <_malloc_r+0x22>
    2178:	4422      	add	r2, r4
    217a:	6853      	ldr	r3, [r2, #4]
    217c:	4630      	mov	r0, r6
    217e:	f043 0301 	orr.w	r3, r3, #1
    2182:	6053      	str	r3, [r2, #4]
    2184:	f000 f99a 	bl	24bc <__malloc_unlock>
    2188:	3408      	adds	r4, #8
    218a:	e6e7      	b.n	1f5c <_malloc_r+0x18c>
    218c:	1961      	adds	r1, r4, r5
    218e:	f045 0501 	orr.w	r5, r5, #1
    2192:	6065      	str	r5, [r4, #4]
    2194:	f043 0501 	orr.w	r5, r3, #1
    2198:	e9c7 1104 	strd	r1, r1, [r7, #16]
    219c:	4630      	mov	r0, r6
    219e:	e9c1 ee02 	strd	lr, lr, [r1, #8]
    21a2:	604d      	str	r5, [r1, #4]
    21a4:	50a3      	str	r3, [r4, r2]
    21a6:	f000 f989 	bl	24bc <__malloc_unlock>
    21aa:	3408      	adds	r4, #8
    21ac:	e6d6      	b.n	1f5c <_malloc_r+0x18c>
    21ae:	0993      	lsrs	r3, r2, #6
    21b0:	f103 0139 	add.w	r1, r3, #57	; 0x39
    21b4:	00c9      	lsls	r1, r1, #3
    21b6:	3338      	adds	r3, #56	; 0x38
    21b8:	e7a0      	b.n	20fc <_malloc_r+0x32c>
    21ba:	42bc      	cmp	r4, r7
    21bc:	d05e      	beq.n	227c <_malloc_r+0x4ac>
    21be:	68bc      	ldr	r4, [r7, #8]
    21c0:	6860      	ldr	r0, [r4, #4]
    21c2:	f020 0803 	bic.w	r8, r0, #3
    21c6:	4545      	cmp	r5, r8
    21c8:	eba8 0305 	sub.w	r3, r8, r5
    21cc:	d802      	bhi.n	21d4 <_malloc_r+0x404>
    21ce:	2b0f      	cmp	r3, #15
    21d0:	f73f af66 	bgt.w	20a0 <_malloc_r+0x2d0>
    21d4:	4630      	mov	r0, r6
    21d6:	f000 f971 	bl	24bc <__malloc_unlock>
    21da:	2400      	movs	r4, #0
    21dc:	e6be      	b.n	1f5c <_malloc_r+0x18c>
    21de:	f103 0c5c 	add.w	ip, r3, #92	; 0x5c
    21e2:	f103 045b 	add.w	r4, r3, #91	; 0x5b
    21e6:	ea4f 00cc 	mov.w	r0, ip, lsl #3
    21ea:	e639      	b.n	1e60 <_malloc_r+0x90>
    21ec:	f859 3908 	ldr.w	r3, [r9], #-8
    21f0:	454b      	cmp	r3, r9
    21f2:	f040 8095 	bne.w	2320 <_malloc_r+0x550>
    21f6:	f01c 0f03 	tst.w	ip, #3
    21fa:	f10c 3cff 	add.w	ip, ip, #4294967295	; 0xffffffff
    21fe:	d1f5      	bne.n	21ec <_malloc_r+0x41c>
    2200:	687b      	ldr	r3, [r7, #4]
    2202:	ea23 0301 	bic.w	r3, r3, r1
    2206:	607b      	str	r3, [r7, #4]
    2208:	0049      	lsls	r1, r1, #1
    220a:	4299      	cmp	r1, r3
    220c:	f63f aec3 	bhi.w	1f96 <_malloc_r+0x1c6>
    2210:	b911      	cbnz	r1, 2218 <_malloc_r+0x448>
    2212:	e6c0      	b.n	1f96 <_malloc_r+0x1c6>
    2214:	0049      	lsls	r1, r1, #1
    2216:	3404      	adds	r4, #4
    2218:	4219      	tst	r1, r3
    221a:	d0fb      	beq.n	2214 <_malloc_r+0x444>
    221c:	46a4      	mov	ip, r4
    221e:	e669      	b.n	1ef4 <_malloc_r+0x124>
    2220:	f103 0810 	add.w	r8, r3, #16
    2224:	e6d4      	b.n	1fd0 <_malloc_r+0x200>
    2226:	2201      	movs	r2, #1
    2228:	109b      	asrs	r3, r3, #2
    222a:	409a      	lsls	r2, r3
    222c:	687b      	ldr	r3, [r7, #4]
    222e:	431a      	orrs	r2, r3
    2230:	607a      	str	r2, [r7, #4]
    2232:	e773      	b.n	211c <_malloc_r+0x34c>
    2234:	eb02 0108 	add.w	r1, r2, r8
    2238:	4249      	negs	r1, r1
    223a:	f3c1 0a0b 	ubfx	sl, r1, #0, #12
    223e:	4651      	mov	r1, sl
    2240:	4630      	mov	r0, r6
    2242:	9200      	str	r2, [sp, #0]
    2244:	f000 fb9a 	bl	297c <_sbrk_r>
    2248:	1c43      	adds	r3, r0, #1
    224a:	e9dd 2300 	ldrd	r2, r3, [sp]
    224e:	f47f aef5 	bne.w	203c <_malloc_r+0x26c>
    2252:	46da      	mov	sl, fp
    2254:	e6f5      	b.n	2042 <_malloc_r+0x272>
    2256:	2b54      	cmp	r3, #84	; 0x54
    2258:	d826      	bhi.n	22a8 <_malloc_r+0x4d8>
    225a:	0b13      	lsrs	r3, r2, #12
    225c:	f103 016f 	add.w	r1, r3, #111	; 0x6f
    2260:	00c9      	lsls	r1, r1, #3
    2262:	336e      	adds	r3, #110	; 0x6e
    2264:	e74a      	b.n	20fc <_malloc_r+0x32c>
    2266:	f5b3 7faa 	cmp.w	r3, #340	; 0x154
    226a:	d826      	bhi.n	22ba <_malloc_r+0x4ea>
    226c:	0beb      	lsrs	r3, r5, #15
    226e:	f103 0c78 	add.w	ip, r3, #120	; 0x78
    2272:	f103 0477 	add.w	r4, r3, #119	; 0x77
    2276:	ea4f 00cc 	mov.w	r0, ip, lsl #3
    227a:	e5f1      	b.n	1e60 <_malloc_r+0x90>
    227c:	4b29      	ldr	r3, [pc, #164]	; (2324 <_malloc_r+0x554>)
    227e:	6818      	ldr	r0, [r3, #0]
    2280:	4440      	add	r0, r8
    2282:	6018      	str	r0, [r3, #0]
    2284:	e6b6      	b.n	1ff4 <_malloc_r+0x224>
    2286:	f3ca 0c0b 	ubfx	ip, sl, #0, #12
    228a:	f1bc 0f00 	cmp.w	ip, #0
    228e:	f47f aeb1 	bne.w	1ff4 <_malloc_r+0x224>
    2292:	68bc      	ldr	r4, [r7, #8]
    2294:	44c8      	add	r8, r9
    2296:	f048 0001 	orr.w	r0, r8, #1
    229a:	6060      	str	r0, [r4, #4]
    229c:	e6f5      	b.n	208a <_malloc_r+0x2ba>
    229e:	4614      	mov	r4, r2
    22a0:	e6f3      	b.n	208a <_malloc_r+0x2ba>
    22a2:	2301      	movs	r3, #1
    22a4:	6053      	str	r3, [r2, #4]
    22a6:	e795      	b.n	21d4 <_malloc_r+0x404>
    22a8:	f5b3 7faa 	cmp.w	r3, #340	; 0x154
    22ac:	d824      	bhi.n	22f8 <_malloc_r+0x528>
    22ae:	0bd3      	lsrs	r3, r2, #15
    22b0:	f103 0178 	add.w	r1, r3, #120	; 0x78
    22b4:	00c9      	lsls	r1, r1, #3
    22b6:	3377      	adds	r3, #119	; 0x77
    22b8:	e720      	b.n	20fc <_malloc_r+0x32c>
    22ba:	f240 5254 	movw	r2, #1364	; 0x554
    22be:	4293      	cmp	r3, r2
    22c0:	d824      	bhi.n	230c <_malloc_r+0x53c>
    22c2:	0cab      	lsrs	r3, r5, #18
    22c4:	f103 0c7d 	add.w	ip, r3, #125	; 0x7d
    22c8:	f103 047c 	add.w	r4, r3, #124	; 0x7c
    22cc:	ea4f 00cc 	mov.w	r0, ip, lsl #3
    22d0:	e5c6      	b.n	1e60 <_malloc_r+0x90>
    22d2:	f1ab 0b08 	sub.w	fp, fp, #8
    22d6:	44d8      	add	r8, fp
    22d8:	f04f 0a00 	mov.w	sl, #0
    22dc:	eba8 0802 	sub.w	r8, r8, r2
    22e0:	e6af      	b.n	2042 <_malloc_r+0x272>
    22e2:	f104 0108 	add.w	r1, r4, #8
    22e6:	4630      	mov	r0, r6
    22e8:	9300      	str	r3, [sp, #0]
    22ea:	f000 fe31 	bl	2f50 <_free_r>
    22ee:	68bc      	ldr	r4, [r7, #8]
    22f0:	9b00      	ldr	r3, [sp, #0]
    22f2:	6860      	ldr	r0, [r4, #4]
    22f4:	6819      	ldr	r1, [r3, #0]
    22f6:	e6c8      	b.n	208a <_malloc_r+0x2ba>
    22f8:	f240 5154 	movw	r1, #1364	; 0x554
    22fc:	428b      	cmp	r3, r1
    22fe:	d80b      	bhi.n	2318 <_malloc_r+0x548>
    2300:	0c93      	lsrs	r3, r2, #18
    2302:	f103 017d 	add.w	r1, r3, #125	; 0x7d
    2306:	00c9      	lsls	r1, r1, #3
    2308:	337c      	adds	r3, #124	; 0x7c
    230a:	e6f7      	b.n	20fc <_malloc_r+0x32c>
    230c:	f44f 707e 	mov.w	r0, #1016	; 0x3f8
    2310:	f04f 0c7f 	mov.w	ip, #127	; 0x7f
    2314:	247e      	movs	r4, #126	; 0x7e
    2316:	e5a3      	b.n	1e60 <_malloc_r+0x90>
    2318:	f44f 717e 	mov.w	r1, #1016	; 0x3f8
    231c:	237e      	movs	r3, #126	; 0x7e
    231e:	e6ed      	b.n	20fc <_malloc_r+0x32c>
    2320:	687b      	ldr	r3, [r7, #4]
    2322:	e771      	b.n	2208 <_malloc_r+0x438>
    2324:	200009b4 	.word	0x200009b4

00002328 <memchr>:
    2328:	fa5f fc81 	uxtb.w	ip, r1
    232c:	0781      	lsls	r1, r0, #30
    232e:	d010      	beq.n	2352 <memchr+0x2a>
    2330:	4603      	mov	r3, r0
    2332:	1e51      	subs	r1, r2, #1
    2334:	b92a      	cbnz	r2, 2342 <memchr+0x1a>
    2336:	e00a      	b.n	234e <memchr+0x26>
    2338:	079a      	lsls	r2, r3, #30
    233a:	4618      	mov	r0, r3
    233c:	d00a      	beq.n	2354 <memchr+0x2c>
    233e:	3901      	subs	r1, #1
    2340:	d305      	bcc.n	234e <memchr+0x26>
    2342:	4618      	mov	r0, r3
    2344:	f813 2b01 	ldrb.w	r2, [r3], #1
    2348:	4562      	cmp	r2, ip
    234a:	d1f5      	bne.n	2338 <memchr+0x10>
    234c:	4770      	bx	lr
    234e:	2000      	movs	r0, #0
    2350:	4770      	bx	lr
    2352:	4611      	mov	r1, r2
    2354:	2903      	cmp	r1, #3
    2356:	d80c      	bhi.n	2372 <memchr+0x4a>
    2358:	2900      	cmp	r1, #0
    235a:	d0f8      	beq.n	234e <memchr+0x26>
    235c:	4603      	mov	r3, r0
    235e:	4401      	add	r1, r0
    2360:	e001      	b.n	2366 <memchr+0x3e>
    2362:	428b      	cmp	r3, r1
    2364:	d0f3      	beq.n	234e <memchr+0x26>
    2366:	4618      	mov	r0, r3
    2368:	f813 2b01 	ldrb.w	r2, [r3], #1
    236c:	4562      	cmp	r2, ip
    236e:	d1f8      	bne.n	2362 <memchr+0x3a>
    2370:	e7ec      	b.n	234c <memchr+0x24>
    2372:	4602      	mov	r2, r0
    2374:	b510      	push	{r4, lr}
    2376:	ea4c 240c 	orr.w	r4, ip, ip, lsl #8
    237a:	ea44 4404 	orr.w	r4, r4, r4, lsl #16
    237e:	4610      	mov	r0, r2
    2380:	6803      	ldr	r3, [r0, #0]
    2382:	3204      	adds	r2, #4
    2384:	4063      	eors	r3, r4
    2386:	f1a3 3e01 	sub.w	lr, r3, #16843009	; 0x1010101
    238a:	ea2e 0303 	bic.w	r3, lr, r3
    238e:	f013 3f80 	tst.w	r3, #2155905152	; 0x80808080
    2392:	d104      	bne.n	239e <memchr+0x76>
    2394:	3904      	subs	r1, #4
    2396:	2903      	cmp	r1, #3
    2398:	4610      	mov	r0, r2
    239a:	d8f0      	bhi.n	237e <memchr+0x56>
    239c:	b151      	cbz	r1, 23b4 <memchr+0x8c>
    239e:	4603      	mov	r3, r0
    23a0:	4401      	add	r1, r0
    23a2:	e001      	b.n	23a8 <memchr+0x80>
    23a4:	428b      	cmp	r3, r1
    23a6:	d005      	beq.n	23b4 <memchr+0x8c>
    23a8:	4618      	mov	r0, r3
    23aa:	f813 2b01 	ldrb.w	r2, [r3], #1
    23ae:	4562      	cmp	r2, ip
    23b0:	d1f8      	bne.n	23a4 <memchr+0x7c>
    23b2:	bd10      	pop	{r4, pc}
    23b4:	2000      	movs	r0, #0
    23b6:	bd10      	pop	{r4, pc}

000023b8 <memmove>:
    23b8:	4288      	cmp	r0, r1
    23ba:	d90d      	bls.n	23d8 <memmove+0x20>
    23bc:	188b      	adds	r3, r1, r2
    23be:	4283      	cmp	r3, r0
    23c0:	d90a      	bls.n	23d8 <memmove+0x20>
    23c2:	eb00 0c02 	add.w	ip, r0, r2
    23c6:	b1ba      	cbz	r2, 23f8 <memmove+0x40>
    23c8:	4662      	mov	r2, ip
    23ca:	f813 cd01 	ldrb.w	ip, [r3, #-1]!
    23ce:	4299      	cmp	r1, r3
    23d0:	f802 cd01 	strb.w	ip, [r2, #-1]!
    23d4:	d1f9      	bne.n	23ca <memmove+0x12>
    23d6:	4770      	bx	lr
    23d8:	2a0f      	cmp	r2, #15
    23da:	d80e      	bhi.n	23fa <memmove+0x42>
    23dc:	4603      	mov	r3, r0
    23de:	f102 3cff 	add.w	ip, r2, #4294967295	; 0xffffffff
    23e2:	b14a      	cbz	r2, 23f8 <memmove+0x40>
    23e4:	f10c 0c01 	add.w	ip, ip, #1
    23e8:	3b01      	subs	r3, #1
    23ea:	448c      	add	ip, r1
    23ec:	f811 2b01 	ldrb.w	r2, [r1], #1
    23f0:	4561      	cmp	r1, ip
    23f2:	f803 2f01 	strb.w	r2, [r3, #1]!
    23f6:	d1f9      	bne.n	23ec <memmove+0x34>
    23f8:	4770      	bx	lr
    23fa:	ea40 0301 	orr.w	r3, r0, r1
    23fe:	079b      	lsls	r3, r3, #30
    2400:	d14f      	bne.n	24a2 <memmove+0xea>
    2402:	f1a2 0310 	sub.w	r3, r2, #16
    2406:	b570      	push	{r4, r5, r6, lr}
    2408:	f101 0c20 	add.w	ip, r1, #32
    240c:	f023 050f 	bic.w	r5, r3, #15
    2410:	f101 0e10 	add.w	lr, r1, #16
    2414:	f100 0410 	add.w	r4, r0, #16
    2418:	44ac      	add	ip, r5
    241a:	091b      	lsrs	r3, r3, #4
    241c:	f85e 5c10 	ldr.w	r5, [lr, #-16]
    2420:	f10e 0e10 	add.w	lr, lr, #16
    2424:	f844 5c10 	str.w	r5, [r4, #-16]
    2428:	f85e 5c1c 	ldr.w	r5, [lr, #-28]
    242c:	3410      	adds	r4, #16
    242e:	f844 5c1c 	str.w	r5, [r4, #-28]
    2432:	f85e 5c18 	ldr.w	r5, [lr, #-24]
    2436:	f844 5c18 	str.w	r5, [r4, #-24]
    243a:	f85e 5c14 	ldr.w	r5, [lr, #-20]
    243e:	45e6      	cmp	lr, ip
    2440:	f844 5c14 	str.w	r5, [r4, #-20]
    2444:	d1ea      	bne.n	241c <memmove+0x64>
    2446:	3301      	adds	r3, #1
    2448:	f012 0f0c 	tst.w	r2, #12
    244c:	eb01 1103 	add.w	r1, r1, r3, lsl #4
    2450:	f002 040f 	and.w	r4, r2, #15
    2454:	eb00 1303 	add.w	r3, r0, r3, lsl #4
    2458:	d027      	beq.n	24aa <memmove+0xf2>
    245a:	468e      	mov	lr, r1
    245c:	3c04      	subs	r4, #4
    245e:	f024 0603 	bic.w	r6, r4, #3
    2462:	ea4f 0c94 	mov.w	ip, r4, lsr #2
    2466:	441e      	add	r6, r3
    2468:	1f1c      	subs	r4, r3, #4
    246a:	f85e 5b04 	ldr.w	r5, [lr], #4
    246e:	f844 5f04 	str.w	r5, [r4, #4]!
    2472:	42b4      	cmp	r4, r6
    2474:	d1f9      	bne.n	246a <memmove+0xb2>
    2476:	f10c 0401 	add.w	r4, ip, #1
    247a:	f002 0203 	and.w	r2, r2, #3
    247e:	eb03 0384 	add.w	r3, r3, r4, lsl #2
    2482:	eb01 0184 	add.w	r1, r1, r4, lsl #2
    2486:	f102 3cff 	add.w	ip, r2, #4294967295	; 0xffffffff
    248a:	b14a      	cbz	r2, 24a0 <memmove+0xe8>
    248c:	f10c 0c01 	add.w	ip, ip, #1
    2490:	3b01      	subs	r3, #1
    2492:	448c      	add	ip, r1
    2494:	f811 2b01 	ldrb.w	r2, [r1], #1
    2498:	4561      	cmp	r1, ip
    249a:	f803 2f01 	strb.w	r2, [r3, #1]!
    249e:	d1f9      	bne.n	2494 <memmove+0xdc>
    24a0:	bd70      	pop	{r4, r5, r6, pc}
    24a2:	4603      	mov	r3, r0
    24a4:	f102 3cff 	add.w	ip, r2, #4294967295	; 0xffffffff
    24a8:	e79c      	b.n	23e4 <memmove+0x2c>
    24aa:	4622      	mov	r2, r4
    24ac:	e7eb      	b.n	2486 <memmove+0xce>
    24ae:	bf00      	nop

000024b0 <__malloc_lock>:
    24b0:	4801      	ldr	r0, [pc, #4]	; (24b8 <__malloc_lock+0x8>)
    24b2:	f7ff bc83 	b.w	1dbc <__retarget_lock_acquire_recursive>
    24b6:	bf00      	nop
    24b8:	200009a4 	.word	0x200009a4

000024bc <__malloc_unlock>:
    24bc:	4801      	ldr	r0, [pc, #4]	; (24c4 <__malloc_unlock+0x8>)
    24be:	f7ff bc85 	b.w	1dcc <__retarget_lock_release_recursive>
    24c2:	bf00      	nop
    24c4:	200009a4 	.word	0x200009a4

000024c8 <_realloc_r>:
    24c8:	e92d 4ff8 	stmdb	sp!, {r3, r4, r5, r6, r7, r8, r9, sl, fp, lr}
    24cc:	4616      	mov	r6, r2
    24ce:	2900      	cmp	r1, #0
    24d0:	f000 8098 	beq.w	2604 <_realloc_r+0x13c>
    24d4:	f106 050b 	add.w	r5, r6, #11
    24d8:	4680      	mov	r8, r0
    24da:	460c      	mov	r4, r1
    24dc:	f7ff ffe8 	bl	24b0 <__malloc_lock>
    24e0:	2d16      	cmp	r5, #22
    24e2:	d85d      	bhi.n	25a0 <_realloc_r+0xd8>
    24e4:	2510      	movs	r5, #16
    24e6:	462a      	mov	r2, r5
    24e8:	42ae      	cmp	r6, r5
    24ea:	d85e      	bhi.n	25aa <_realloc_r+0xe2>
    24ec:	f854 1c04 	ldr.w	r1, [r4, #-4]
    24f0:	f1a4 0908 	sub.w	r9, r4, #8
    24f4:	f021 0703 	bic.w	r7, r1, #3
    24f8:	4297      	cmp	r7, r2
    24fa:	da62      	bge.n	25c2 <_realloc_r+0xfa>
    24fc:	4bbc      	ldr	r3, [pc, #752]	; (27f0 <_realloc_r+0x328>)
    24fe:	eb09 0007 	add.w	r0, r9, r7
    2502:	f8d3 c008 	ldr.w	ip, [r3, #8]
    2506:	4584      	cmp	ip, r0
    2508:	f000 8097 	beq.w	263a <_realloc_r+0x172>
    250c:	f8d0 c004 	ldr.w	ip, [r0, #4]
    2510:	f02c 0301 	bic.w	r3, ip, #1
    2514:	4403      	add	r3, r0
    2516:	685b      	ldr	r3, [r3, #4]
    2518:	07db      	lsls	r3, r3, #31
    251a:	d468      	bmi.n	25ee <_realloc_r+0x126>
    251c:	f02c 0c03 	bic.w	ip, ip, #3
    2520:	eb07 030c 	add.w	r3, r7, ip
    2524:	4293      	cmp	r3, r2
    2526:	da47      	bge.n	25b8 <_realloc_r+0xf0>
    2528:	07cb      	lsls	r3, r1, #31
    252a:	d410      	bmi.n	254e <_realloc_r+0x86>
    252c:	f854 3c08 	ldr.w	r3, [r4, #-8]
    2530:	eba9 0a03 	sub.w	sl, r9, r3
    2534:	f8da 3004 	ldr.w	r3, [sl, #4]
    2538:	f023 0103 	bic.w	r1, r3, #3
    253c:	448c      	add	ip, r1
    253e:	44bc      	add	ip, r7
    2540:	4594      	cmp	ip, r2
    2542:	f280 8111 	bge.w	2768 <_realloc_r+0x2a0>
    2546:	187b      	adds	r3, r7, r1
    2548:	4293      	cmp	r3, r2
    254a:	f280 80e8 	bge.w	271e <_realloc_r+0x256>
    254e:	4631      	mov	r1, r6
    2550:	4640      	mov	r0, r8
    2552:	f7ff fc3d 	bl	1dd0 <_malloc_r>
    2556:	4606      	mov	r6, r0
    2558:	b1e0      	cbz	r0, 2594 <_realloc_r+0xcc>
    255a:	f854 3c04 	ldr.w	r3, [r4, #-4]
    255e:	f1a0 0208 	sub.w	r2, r0, #8
    2562:	f023 0301 	bic.w	r3, r3, #1
    2566:	444b      	add	r3, r9
    2568:	4293      	cmp	r3, r2
    256a:	f000 80d2 	beq.w	2712 <_realloc_r+0x24a>
    256e:	1f3a      	subs	r2, r7, #4
    2570:	2a24      	cmp	r2, #36	; 0x24
    2572:	f200 80f5 	bhi.w	2760 <_realloc_r+0x298>
    2576:	2a13      	cmp	r2, #19
    2578:	f200 80ac 	bhi.w	26d4 <_realloc_r+0x20c>
    257c:	4603      	mov	r3, r0
    257e:	4622      	mov	r2, r4
    2580:	6811      	ldr	r1, [r2, #0]
    2582:	6019      	str	r1, [r3, #0]
    2584:	6851      	ldr	r1, [r2, #4]
    2586:	6059      	str	r1, [r3, #4]
    2588:	6892      	ldr	r2, [r2, #8]
    258a:	609a      	str	r2, [r3, #8]
    258c:	4621      	mov	r1, r4
    258e:	4640      	mov	r0, r8
    2590:	f000 fcde 	bl	2f50 <_free_r>
    2594:	4640      	mov	r0, r8
    2596:	f7ff ff91 	bl	24bc <__malloc_unlock>
    259a:	4630      	mov	r0, r6
    259c:	e8bd 8ff8 	ldmia.w	sp!, {r3, r4, r5, r6, r7, r8, r9, sl, fp, pc}
    25a0:	f025 0507 	bic.w	r5, r5, #7
    25a4:	2d00      	cmp	r5, #0
    25a6:	462a      	mov	r2, r5
    25a8:	da9e      	bge.n	24e8 <_realloc_r+0x20>
    25aa:	230c      	movs	r3, #12
    25ac:	2600      	movs	r6, #0
    25ae:	f8c8 3000 	str.w	r3, [r8]
    25b2:	4630      	mov	r0, r6
    25b4:	e8bd 8ff8 	ldmia.w	sp!, {r3, r4, r5, r6, r7, r8, r9, sl, fp, pc}
    25b8:	461f      	mov	r7, r3
    25ba:	e9d0 2302 	ldrd	r2, r3, [r0, #8]
    25be:	60d3      	str	r3, [r2, #12]
    25c0:	609a      	str	r2, [r3, #8]
    25c2:	1b7b      	subs	r3, r7, r5
    25c4:	2b0f      	cmp	r3, #15
    25c6:	d822      	bhi.n	260e <_realloc_r+0x146>
    25c8:	f8d9 3004 	ldr.w	r3, [r9, #4]
    25cc:	f003 0301 	and.w	r3, r3, #1
    25d0:	433b      	orrs	r3, r7
    25d2:	f8c9 3004 	str.w	r3, [r9, #4]
    25d6:	444f      	add	r7, r9
    25d8:	687b      	ldr	r3, [r7, #4]
    25da:	f043 0301 	orr.w	r3, r3, #1
    25de:	607b      	str	r3, [r7, #4]
    25e0:	4626      	mov	r6, r4
    25e2:	4640      	mov	r0, r8
    25e4:	f7ff ff6a 	bl	24bc <__malloc_unlock>
    25e8:	4630      	mov	r0, r6
    25ea:	e8bd 8ff8 	ldmia.w	sp!, {r3, r4, r5, r6, r7, r8, r9, sl, fp, pc}
    25ee:	07c9      	lsls	r1, r1, #31
    25f0:	d4ad      	bmi.n	254e <_realloc_r+0x86>
    25f2:	f854 3c08 	ldr.w	r3, [r4, #-8]
    25f6:	eba9 0a03 	sub.w	sl, r9, r3
    25fa:	f8da 1004 	ldr.w	r1, [sl, #4]
    25fe:	f021 0103 	bic.w	r1, r1, #3
    2602:	e7a0      	b.n	2546 <_realloc_r+0x7e>
    2604:	4611      	mov	r1, r2
    2606:	e8bd 4ff8 	ldmia.w	sp!, {r3, r4, r5, r6, r7, r8, r9, sl, fp, lr}
    260a:	f7ff bbe1 	b.w	1dd0 <_malloc_r>
    260e:	f8d9 1004 	ldr.w	r1, [r9, #4]
    2612:	f043 0301 	orr.w	r3, r3, #1
    2616:	f001 0101 	and.w	r1, r1, #1
    261a:	4329      	orrs	r1, r5
    261c:	f8c9 1004 	str.w	r1, [r9, #4]
    2620:	eb09 0105 	add.w	r1, r9, r5
    2624:	604b      	str	r3, [r1, #4]
    2626:	444f      	add	r7, r9
    2628:	687b      	ldr	r3, [r7, #4]
    262a:	4640      	mov	r0, r8
    262c:	f043 0301 	orr.w	r3, r3, #1
    2630:	3108      	adds	r1, #8
    2632:	607b      	str	r3, [r7, #4]
    2634:	f000 fc8c 	bl	2f50 <_free_r>
    2638:	e7d2      	b.n	25e0 <_realloc_r+0x118>
    263a:	f8dc 0004 	ldr.w	r0, [ip, #4]
    263e:	f020 0b03 	bic.w	fp, r0, #3
    2642:	eb07 0c0b 	add.w	ip, r7, fp
    2646:	f105 0010 	add.w	r0, r5, #16
    264a:	4584      	cmp	ip, r0
    264c:	da4d      	bge.n	26ea <_realloc_r+0x222>
    264e:	07c9      	lsls	r1, r1, #31
    2650:	f53f af7d 	bmi.w	254e <_realloc_r+0x86>
    2654:	f854 1c08 	ldr.w	r1, [r4, #-8]
    2658:	eba9 0a01 	sub.w	sl, r9, r1
    265c:	f8da 1004 	ldr.w	r1, [sl, #4]
    2660:	f021 0103 	bic.w	r1, r1, #3
    2664:	448b      	add	fp, r1
    2666:	44bb      	add	fp, r7
    2668:	4558      	cmp	r0, fp
    266a:	f73f af6c 	bgt.w	2546 <_realloc_r+0x7e>
    266e:	4656      	mov	r6, sl
    2670:	f8da 100c 	ldr.w	r1, [sl, #12]
    2674:	f856 0f08 	ldr.w	r0, [r6, #8]!
    2678:	1f3a      	subs	r2, r7, #4
    267a:	2a24      	cmp	r2, #36	; 0x24
    267c:	60c1      	str	r1, [r0, #12]
    267e:	6088      	str	r0, [r1, #8]
    2680:	f200 80db 	bhi.w	283a <_realloc_r+0x372>
    2684:	2a13      	cmp	r2, #19
    2686:	f240 80d6 	bls.w	2836 <_realloc_r+0x36e>
    268a:	6821      	ldr	r1, [r4, #0]
    268c:	2a1b      	cmp	r2, #27
    268e:	f8ca 1008 	str.w	r1, [sl, #8]
    2692:	6861      	ldr	r1, [r4, #4]
    2694:	f8ca 100c 	str.w	r1, [sl, #12]
    2698:	f200 80e0 	bhi.w	285c <_realloc_r+0x394>
    269c:	3408      	adds	r4, #8
    269e:	f10a 0210 	add.w	r2, sl, #16
    26a2:	6821      	ldr	r1, [r4, #0]
    26a4:	6011      	str	r1, [r2, #0]
    26a6:	6861      	ldr	r1, [r4, #4]
    26a8:	6051      	str	r1, [r2, #4]
    26aa:	68a1      	ldr	r1, [r4, #8]
    26ac:	6091      	str	r1, [r2, #8]
    26ae:	ebab 0205 	sub.w	r2, fp, r5
    26b2:	eb0a 0105 	add.w	r1, sl, r5
    26b6:	f042 0201 	orr.w	r2, r2, #1
    26ba:	6099      	str	r1, [r3, #8]
    26bc:	604a      	str	r2, [r1, #4]
    26be:	f8da 3004 	ldr.w	r3, [sl, #4]
    26c2:	4640      	mov	r0, r8
    26c4:	f003 0301 	and.w	r3, r3, #1
    26c8:	431d      	orrs	r5, r3
    26ca:	f8ca 5004 	str.w	r5, [sl, #4]
    26ce:	f7ff fef5 	bl	24bc <__malloc_unlock>
    26d2:	e76e      	b.n	25b2 <_realloc_r+0xea>
    26d4:	6823      	ldr	r3, [r4, #0]
    26d6:	2a1b      	cmp	r2, #27
    26d8:	6003      	str	r3, [r0, #0]
    26da:	6863      	ldr	r3, [r4, #4]
    26dc:	6043      	str	r3, [r0, #4]
    26de:	d868      	bhi.n	27b2 <_realloc_r+0x2ea>
    26e0:	f104 0208 	add.w	r2, r4, #8
    26e4:	f100 0308 	add.w	r3, r0, #8
    26e8:	e74a      	b.n	2580 <_realloc_r+0xb8>
    26ea:	eb09 0205 	add.w	r2, r9, r5
    26ee:	ebac 0c05 	sub.w	ip, ip, r5
    26f2:	609a      	str	r2, [r3, #8]
    26f4:	f04c 0301 	orr.w	r3, ip, #1
    26f8:	6053      	str	r3, [r2, #4]
    26fa:	f854 3c04 	ldr.w	r3, [r4, #-4]
    26fe:	4640      	mov	r0, r8
    2700:	f003 0301 	and.w	r3, r3, #1
    2704:	431d      	orrs	r5, r3
    2706:	f844 5c04 	str.w	r5, [r4, #-4]
    270a:	f7ff fed7 	bl	24bc <__malloc_unlock>
    270e:	4626      	mov	r6, r4
    2710:	e74f      	b.n	25b2 <_realloc_r+0xea>
    2712:	f850 3c04 	ldr.w	r3, [r0, #-4]
    2716:	f023 0303 	bic.w	r3, r3, #3
    271a:	441f      	add	r7, r3
    271c:	e751      	b.n	25c2 <_realloc_r+0xfa>
    271e:	4656      	mov	r6, sl
    2720:	f8da 100c 	ldr.w	r1, [sl, #12]
    2724:	f856 0f08 	ldr.w	r0, [r6, #8]!
    2728:	1f3a      	subs	r2, r7, #4
    272a:	2a24      	cmp	r2, #36	; 0x24
    272c:	60c1      	str	r1, [r0, #12]
    272e:	6088      	str	r0, [r1, #8]
    2730:	d84c      	bhi.n	27cc <_realloc_r+0x304>
    2732:	2a13      	cmp	r2, #19
    2734:	d948      	bls.n	27c8 <_realloc_r+0x300>
    2736:	6821      	ldr	r1, [r4, #0]
    2738:	2a1b      	cmp	r2, #27
    273a:	f8ca 1008 	str.w	r1, [sl, #8]
    273e:	6861      	ldr	r1, [r4, #4]
    2740:	f8ca 100c 	str.w	r1, [sl, #12]
    2744:	d856      	bhi.n	27f4 <_realloc_r+0x32c>
    2746:	3408      	adds	r4, #8
    2748:	f10a 0210 	add.w	r2, sl, #16
    274c:	461f      	mov	r7, r3
    274e:	6823      	ldr	r3, [r4, #0]
    2750:	46d1      	mov	r9, sl
    2752:	6013      	str	r3, [r2, #0]
    2754:	6863      	ldr	r3, [r4, #4]
    2756:	6053      	str	r3, [r2, #4]
    2758:	68a3      	ldr	r3, [r4, #8]
    275a:	4634      	mov	r4, r6
    275c:	6093      	str	r3, [r2, #8]
    275e:	e730      	b.n	25c2 <_realloc_r+0xfa>
    2760:	4621      	mov	r1, r4
    2762:	f7ff fe29 	bl	23b8 <memmove>
    2766:	e711      	b.n	258c <_realloc_r+0xc4>
    2768:	4656      	mov	r6, sl
    276a:	e9d0 1302 	ldrd	r1, r3, [r0, #8]
    276e:	60cb      	str	r3, [r1, #12]
    2770:	6099      	str	r1, [r3, #8]
    2772:	f856 1f08 	ldr.w	r1, [r6, #8]!
    2776:	f8da 300c 	ldr.w	r3, [sl, #12]
    277a:	1f3a      	subs	r2, r7, #4
    277c:	2a24      	cmp	r2, #36	; 0x24
    277e:	60cb      	str	r3, [r1, #12]
    2780:	6099      	str	r1, [r3, #8]
    2782:	d82d      	bhi.n	27e0 <_realloc_r+0x318>
    2784:	2a13      	cmp	r2, #19
    2786:	d929      	bls.n	27dc <_realloc_r+0x314>
    2788:	6823      	ldr	r3, [r4, #0]
    278a:	2a1b      	cmp	r2, #27
    278c:	f8ca 3008 	str.w	r3, [sl, #8]
    2790:	6863      	ldr	r3, [r4, #4]
    2792:	f8ca 300c 	str.w	r3, [sl, #12]
    2796:	d842      	bhi.n	281e <_realloc_r+0x356>
    2798:	3408      	adds	r4, #8
    279a:	f10a 0310 	add.w	r3, sl, #16
    279e:	6822      	ldr	r2, [r4, #0]
    27a0:	4667      	mov	r7, ip
    27a2:	601a      	str	r2, [r3, #0]
    27a4:	6862      	ldr	r2, [r4, #4]
    27a6:	46d1      	mov	r9, sl
    27a8:	605a      	str	r2, [r3, #4]
    27aa:	68a2      	ldr	r2, [r4, #8]
    27ac:	4634      	mov	r4, r6
    27ae:	609a      	str	r2, [r3, #8]
    27b0:	e707      	b.n	25c2 <_realloc_r+0xfa>
    27b2:	68a3      	ldr	r3, [r4, #8]
    27b4:	2a24      	cmp	r2, #36	; 0x24
    27b6:	6083      	str	r3, [r0, #8]
    27b8:	68e3      	ldr	r3, [r4, #12]
    27ba:	60c3      	str	r3, [r0, #12]
    27bc:	d026      	beq.n	280c <_realloc_r+0x344>
    27be:	f104 0210 	add.w	r2, r4, #16
    27c2:	f100 0310 	add.w	r3, r0, #16
    27c6:	e6db      	b.n	2580 <_realloc_r+0xb8>
    27c8:	4632      	mov	r2, r6
    27ca:	e7bf      	b.n	274c <_realloc_r+0x284>
    27cc:	4621      	mov	r1, r4
    27ce:	4630      	mov	r0, r6
    27d0:	461f      	mov	r7, r3
    27d2:	46d1      	mov	r9, sl
    27d4:	f7ff fdf0 	bl	23b8 <memmove>
    27d8:	4634      	mov	r4, r6
    27da:	e6f2      	b.n	25c2 <_realloc_r+0xfa>
    27dc:	4633      	mov	r3, r6
    27de:	e7de      	b.n	279e <_realloc_r+0x2d6>
    27e0:	4621      	mov	r1, r4
    27e2:	4630      	mov	r0, r6
    27e4:	4667      	mov	r7, ip
    27e6:	46d1      	mov	r9, sl
    27e8:	f7ff fde6 	bl	23b8 <memmove>
    27ec:	4634      	mov	r4, r6
    27ee:	e6e8      	b.n	25c2 <_realloc_r+0xfa>
    27f0:	2000054c 	.word	0x2000054c
    27f4:	68a1      	ldr	r1, [r4, #8]
    27f6:	2a24      	cmp	r2, #36	; 0x24
    27f8:	f8ca 1010 	str.w	r1, [sl, #16]
    27fc:	68e1      	ldr	r1, [r4, #12]
    27fe:	f8ca 1014 	str.w	r1, [sl, #20]
    2802:	d020      	beq.n	2846 <_realloc_r+0x37e>
    2804:	3410      	adds	r4, #16
    2806:	f10a 0218 	add.w	r2, sl, #24
    280a:	e79f      	b.n	274c <_realloc_r+0x284>
    280c:	6923      	ldr	r3, [r4, #16]
    280e:	f104 0218 	add.w	r2, r4, #24
    2812:	6103      	str	r3, [r0, #16]
    2814:	6963      	ldr	r3, [r4, #20]
    2816:	6143      	str	r3, [r0, #20]
    2818:	f100 0318 	add.w	r3, r0, #24
    281c:	e6b0      	b.n	2580 <_realloc_r+0xb8>
    281e:	68a3      	ldr	r3, [r4, #8]
    2820:	2a24      	cmp	r2, #36	; 0x24
    2822:	f8ca 3010 	str.w	r3, [sl, #16]
    2826:	68e3      	ldr	r3, [r4, #12]
    2828:	f8ca 3014 	str.w	r3, [sl, #20]
    282c:	d022      	beq.n	2874 <_realloc_r+0x3ac>
    282e:	3410      	adds	r4, #16
    2830:	f10a 0318 	add.w	r3, sl, #24
    2834:	e7b3      	b.n	279e <_realloc_r+0x2d6>
    2836:	4632      	mov	r2, r6
    2838:	e733      	b.n	26a2 <_realloc_r+0x1da>
    283a:	4621      	mov	r1, r4
    283c:	4630      	mov	r0, r6
    283e:	f7ff fdbb 	bl	23b8 <memmove>
    2842:	4b17      	ldr	r3, [pc, #92]	; (28a0 <_realloc_r+0x3d8>)
    2844:	e733      	b.n	26ae <_realloc_r+0x1e6>
    2846:	6922      	ldr	r2, [r4, #16]
    2848:	3418      	adds	r4, #24
    284a:	f8ca 2018 	str.w	r2, [sl, #24]
    284e:	f854 2c04 	ldr.w	r2, [r4, #-4]
    2852:	f8ca 201c 	str.w	r2, [sl, #28]
    2856:	f10a 0220 	add.w	r2, sl, #32
    285a:	e777      	b.n	274c <_realloc_r+0x284>
    285c:	68a1      	ldr	r1, [r4, #8]
    285e:	2a24      	cmp	r2, #36	; 0x24
    2860:	f8ca 1010 	str.w	r1, [sl, #16]
    2864:	68e1      	ldr	r1, [r4, #12]
    2866:	f8ca 1014 	str.w	r1, [sl, #20]
    286a:	d00e      	beq.n	288a <_realloc_r+0x3c2>
    286c:	3410      	adds	r4, #16
    286e:	f10a 0218 	add.w	r2, sl, #24
    2872:	e716      	b.n	26a2 <_realloc_r+0x1da>
    2874:	6923      	ldr	r3, [r4, #16]
    2876:	3418      	adds	r4, #24
    2878:	f8ca 3018 	str.w	r3, [sl, #24]
    287c:	f854 3c04 	ldr.w	r3, [r4, #-4]
    2880:	f8ca 301c 	str.w	r3, [sl, #28]
    2884:	f10a 0320 	add.w	r3, sl, #32
    2888:	e789      	b.n	279e <_realloc_r+0x2d6>
    288a:	6922      	ldr	r2, [r4, #16]
    288c:	3418      	adds	r4, #24
    288e:	f8ca 2018 	str.w	r2, [sl, #24]
    2892:	f854 2c04 	ldr.w	r2, [r4, #-4]
    2896:	f8ca 201c 	str.w	r2, [sl, #28]
    289a:	f10a 0220 	add.w	r2, sl, #32
    289e:	e700      	b.n	26a2 <_realloc_r+0x1da>
    28a0:	2000054c 	.word	0x2000054c

000028a4 <cleanup_glue>:
    28a4:	e92d 41f0 	stmdb	sp!, {r4, r5, r6, r7, r8, lr}
    28a8:	680e      	ldr	r6, [r1, #0]
    28aa:	460c      	mov	r4, r1
    28ac:	4605      	mov	r5, r0
    28ae:	b1be      	cbz	r6, 28e0 <cleanup_glue+0x3c>
    28b0:	6837      	ldr	r7, [r6, #0]
    28b2:	b18f      	cbz	r7, 28d8 <cleanup_glue+0x34>
    28b4:	f8d7 8000 	ldr.w	r8, [r7]
    28b8:	f1b8 0f00 	cmp.w	r8, #0
    28bc:	d008      	beq.n	28d0 <cleanup_glue+0x2c>
    28be:	f8d8 1000 	ldr.w	r1, [r8]
    28c2:	b109      	cbz	r1, 28c8 <cleanup_glue+0x24>
    28c4:	f7ff ffee 	bl	28a4 <cleanup_glue>
    28c8:	4641      	mov	r1, r8
    28ca:	4628      	mov	r0, r5
    28cc:	f000 fb40 	bl	2f50 <_free_r>
    28d0:	4639      	mov	r1, r7
    28d2:	4628      	mov	r0, r5
    28d4:	f000 fb3c 	bl	2f50 <_free_r>
    28d8:	4631      	mov	r1, r6
    28da:	4628      	mov	r0, r5
    28dc:	f000 fb38 	bl	2f50 <_free_r>
    28e0:	4621      	mov	r1, r4
    28e2:	4628      	mov	r0, r5
    28e4:	e8bd 41f0 	ldmia.w	sp!, {r4, r5, r6, r7, r8, lr}
    28e8:	f000 bb32 	b.w	2f50 <_free_r>

000028ec <_reclaim_reent>:
    28ec:	4b22      	ldr	r3, [pc, #136]	; (2978 <_reclaim_reent+0x8c>)
    28ee:	681b      	ldr	r3, [r3, #0]
    28f0:	4283      	cmp	r3, r0
    28f2:	d040      	beq.n	2976 <_reclaim_reent+0x8a>
    28f4:	6cc1      	ldr	r1, [r0, #76]	; 0x4c
    28f6:	b570      	push	{r4, r5, r6, lr}
    28f8:	4605      	mov	r5, r0
    28fa:	b181      	cbz	r1, 291e <_reclaim_reent+0x32>
    28fc:	2600      	movs	r6, #0
    28fe:	598c      	ldr	r4, [r1, r6]
    2900:	b13c      	cbz	r4, 2912 <_reclaim_reent+0x26>
    2902:	4621      	mov	r1, r4
    2904:	6824      	ldr	r4, [r4, #0]
    2906:	4628      	mov	r0, r5
    2908:	f000 fb22 	bl	2f50 <_free_r>
    290c:	2c00      	cmp	r4, #0
    290e:	d1f8      	bne.n	2902 <_reclaim_reent+0x16>
    2910:	6ce9      	ldr	r1, [r5, #76]	; 0x4c
    2912:	3604      	adds	r6, #4
    2914:	2e80      	cmp	r6, #128	; 0x80
    2916:	d1f2      	bne.n	28fe <_reclaim_reent+0x12>
    2918:	4628      	mov	r0, r5
    291a:	f000 fb19 	bl	2f50 <_free_r>
    291e:	6c29      	ldr	r1, [r5, #64]	; 0x40
    2920:	b111      	cbz	r1, 2928 <_reclaim_reent+0x3c>
    2922:	4628      	mov	r0, r5
    2924:	f000 fb14 	bl	2f50 <_free_r>
    2928:	f8d5 4148 	ldr.w	r4, [r5, #328]	; 0x148
    292c:	b154      	cbz	r4, 2944 <_reclaim_reent+0x58>
    292e:	f505 76a6 	add.w	r6, r5, #332	; 0x14c
    2932:	42b4      	cmp	r4, r6
    2934:	d006      	beq.n	2944 <_reclaim_reent+0x58>
    2936:	4621      	mov	r1, r4
    2938:	6824      	ldr	r4, [r4, #0]
    293a:	4628      	mov	r0, r5
    293c:	f000 fb08 	bl	2f50 <_free_r>
    2940:	42a6      	cmp	r6, r4
    2942:	d1f8      	bne.n	2936 <_reclaim_reent+0x4a>
    2944:	6d69      	ldr	r1, [r5, #84]	; 0x54
    2946:	b111      	cbz	r1, 294e <_reclaim_reent+0x62>
    2948:	4628      	mov	r0, r5
    294a:	f000 fb01 	bl	2f50 <_free_r>
    294e:	6bab      	ldr	r3, [r5, #56]	; 0x38
    2950:	b183      	cbz	r3, 2974 <_reclaim_reent+0x88>
    2952:	4628      	mov	r0, r5
    2954:	6beb      	ldr	r3, [r5, #60]	; 0x3c
    2956:	4798      	blx	r3
    2958:	f8d5 42e0 	ldr.w	r4, [r5, #736]	; 0x2e0
    295c:	b154      	cbz	r4, 2974 <_reclaim_reent+0x88>
    295e:	6821      	ldr	r1, [r4, #0]
    2960:	b111      	cbz	r1, 2968 <_reclaim_reent+0x7c>
    2962:	4628      	mov	r0, r5
    2964:	f7ff ff9e 	bl	28a4 <cleanup_glue>
    2968:	4621      	mov	r1, r4
    296a:	4628      	mov	r0, r5
    296c:	e8bd 4070 	ldmia.w	sp!, {r4, r5, r6, lr}
    2970:	f000 baee 	b.w	2f50 <_free_r>
    2974:	bd70      	pop	{r4, r5, r6, pc}
    2976:	4770      	bx	lr
    2978:	2000011c 	.word	0x2000011c

0000297c <_sbrk_r>:
    297c:	2200      	movs	r2, #0
    297e:	b538      	push	{r3, r4, r5, lr}
    2980:	4d06      	ldr	r5, [pc, #24]	; (299c <_sbrk_r+0x20>)
    2982:	4604      	mov	r4, r0
    2984:	4608      	mov	r0, r1
    2986:	602a      	str	r2, [r5, #0]
    2988:	f000 fe94 	bl	36b4 <_sbrk>
    298c:	1c43      	adds	r3, r0, #1
    298e:	d000      	beq.n	2992 <_sbrk_r+0x16>
    2990:	bd38      	pop	{r3, r4, r5, pc}
    2992:	682b      	ldr	r3, [r5, #0]
    2994:	2b00      	cmp	r3, #0
    2996:	d0fb      	beq.n	2990 <_sbrk_r+0x14>
    2998:	6023      	str	r3, [r4, #0]
    299a:	bd38      	pop	{r3, r4, r5, pc}
    299c:	200009e8 	.word	0x200009e8

000029a0 <__sread>:
    29a0:	b510      	push	{r4, lr}
    29a2:	460c      	mov	r4, r1
    29a4:	f9b1 100e 	ldrsh.w	r1, [r1, #14]
    29a8:	f000 fc88 	bl	32bc <_read_r>
    29ac:	2800      	cmp	r0, #0
    29ae:	db03      	blt.n	29b8 <__sread+0x18>
    29b0:	6d23      	ldr	r3, [r4, #80]	; 0x50
    29b2:	4403      	add	r3, r0
    29b4:	6523      	str	r3, [r4, #80]	; 0x50
    29b6:	bd10      	pop	{r4, pc}
    29b8:	89a3      	ldrh	r3, [r4, #12]
    29ba:	f423 5380 	bic.w	r3, r3, #4096	; 0x1000
    29be:	81a3      	strh	r3, [r4, #12]
    29c0:	bd10      	pop	{r4, pc}
    29c2:	bf00      	nop

000029c4 <__seofread>:
    29c4:	2000      	movs	r0, #0
    29c6:	4770      	bx	lr

000029c8 <__swrite>:
    29c8:	e92d 41f0 	stmdb	sp!, {r4, r5, r6, r7, r8, lr}
    29cc:	460c      	mov	r4, r1
    29ce:	f9b1 100c 	ldrsh.w	r1, [r1, #12]
    29d2:	461f      	mov	r7, r3
    29d4:	05cb      	lsls	r3, r1, #23
    29d6:	4605      	mov	r5, r0
    29d8:	4616      	mov	r6, r2
    29da:	d40b      	bmi.n	29f4 <__swrite+0x2c>
    29dc:	f421 5180 	bic.w	r1, r1, #4096	; 0x1000
    29e0:	81a1      	strh	r1, [r4, #12]
    29e2:	463b      	mov	r3, r7
    29e4:	4632      	mov	r2, r6
    29e6:	4628      	mov	r0, r5
    29e8:	f9b4 100e 	ldrsh.w	r1, [r4, #14]
    29ec:	e8bd 41f0 	ldmia.w	sp!, {r4, r5, r6, r7, r8, lr}
    29f0:	f000 b81e 	b.w	2a30 <_write_r>
    29f4:	f9b4 100e 	ldrsh.w	r1, [r4, #14]
    29f8:	2302      	movs	r3, #2
    29fa:	2200      	movs	r2, #0
    29fc:	f000 fba8 	bl	3150 <_lseek_r>
    2a00:	f9b4 100c 	ldrsh.w	r1, [r4, #12]
    2a04:	e7ea      	b.n	29dc <__swrite+0x14>
    2a06:	bf00      	nop

00002a08 <__sseek>:
    2a08:	b510      	push	{r4, lr}
    2a0a:	460c      	mov	r4, r1
    2a0c:	f9b1 100e 	ldrsh.w	r1, [r1, #14]
    2a10:	f000 fb9e 	bl	3150 <_lseek_r>
    2a14:	89a3      	ldrh	r3, [r4, #12]
    2a16:	1c42      	adds	r2, r0, #1
    2a18:	bf0e      	itee	eq
    2a1a:	f423 5380 	biceq.w	r3, r3, #4096	; 0x1000
    2a1e:	f443 5380 	orrne.w	r3, r3, #4096	; 0x1000
    2a22:	6520      	strne	r0, [r4, #80]	; 0x50
    2a24:	81a3      	strh	r3, [r4, #12]
    2a26:	bd10      	pop	{r4, pc}

00002a28 <__sclose>:
    2a28:	f9b1 100e 	ldrsh.w	r1, [r1, #14]
    2a2c:	f000 b8c6 	b.w	2bbc <_close_r>

00002a30 <_write_r>:
    2a30:	b538      	push	{r3, r4, r5, lr}
    2a32:	460c      	mov	r4, r1
    2a34:	4611      	mov	r1, r2
    2a36:	2200      	movs	r2, #0
    2a38:	4684      	mov	ip, r0
    2a3a:	4d07      	ldr	r5, [pc, #28]	; (2a58 <_write_r+0x28>)
    2a3c:	4620      	mov	r0, r4
    2a3e:	602a      	str	r2, [r5, #0]
    2a40:	461a      	mov	r2, r3
    2a42:	4664      	mov	r4, ip
    2a44:	f000 fd6e 	bl	3524 <_write>
    2a48:	1c43      	adds	r3, r0, #1
    2a4a:	d000      	beq.n	2a4e <_write_r+0x1e>
    2a4c:	bd38      	pop	{r3, r4, r5, pc}
    2a4e:	682b      	ldr	r3, [r5, #0]
    2a50:	2b00      	cmp	r3, #0
    2a52:	d0fb      	beq.n	2a4c <_write_r+0x1c>
    2a54:	6023      	str	r3, [r4, #0]
    2a56:	bd38      	pop	{r3, r4, r5, pc}
    2a58:	200009e8 	.word	0x200009e8

00002a5c <__swsetup_r>:
    2a5c:	b538      	push	{r3, r4, r5, lr}
    2a5e:	4b33      	ldr	r3, [pc, #204]	; (2b2c <__swsetup_r+0xd0>)
    2a60:	4605      	mov	r5, r0
    2a62:	681b      	ldr	r3, [r3, #0]
    2a64:	460c      	mov	r4, r1
    2a66:	b10b      	cbz	r3, 2a6c <__swsetup_r+0x10>
    2a68:	6b9a      	ldr	r2, [r3, #56]	; 0x38
    2a6a:	b312      	cbz	r2, 2ab2 <__swsetup_r+0x56>
    2a6c:	f9b4 300c 	ldrsh.w	r3, [r4, #12]
    2a70:	0718      	lsls	r0, r3, #28
    2a72:	b29a      	uxth	r2, r3
    2a74:	d525      	bpl.n	2ac2 <__swsetup_r+0x66>
    2a76:	6921      	ldr	r1, [r4, #16]
    2a78:	2900      	cmp	r1, #0
    2a7a:	d02d      	beq.n	2ad8 <__swsetup_r+0x7c>
    2a7c:	f012 0001 	ands.w	r0, r2, #1
    2a80:	d007      	beq.n	2a92 <__swsetup_r+0x36>
    2a82:	2500      	movs	r5, #0
    2a84:	6960      	ldr	r0, [r4, #20]
    2a86:	60a5      	str	r5, [r4, #8]
    2a88:	4240      	negs	r0, r0
    2a8a:	61a0      	str	r0, [r4, #24]
    2a8c:	b139      	cbz	r1, 2a9e <__swsetup_r+0x42>
    2a8e:	2000      	movs	r0, #0
    2a90:	bd38      	pop	{r3, r4, r5, pc}
    2a92:	0795      	lsls	r5, r2, #30
    2a94:	bf58      	it	pl
    2a96:	6960      	ldrpl	r0, [r4, #20]
    2a98:	60a0      	str	r0, [r4, #8]
    2a9a:	2900      	cmp	r1, #0
    2a9c:	d1f7      	bne.n	2a8e <__swsetup_r+0x32>
    2a9e:	0612      	lsls	r2, r2, #24
    2aa0:	bf58      	it	pl
    2aa2:	4608      	movpl	r0, r1
    2aa4:	d5f4      	bpl.n	2a90 <__swsetup_r+0x34>
    2aa6:	f043 0340 	orr.w	r3, r3, #64	; 0x40
    2aaa:	f04f 30ff 	mov.w	r0, #4294967295	; 0xffffffff
    2aae:	81a3      	strh	r3, [r4, #12]
    2ab0:	bd38      	pop	{r3, r4, r5, pc}
    2ab2:	4618      	mov	r0, r3
    2ab4:	f7fe fe80 	bl	17b8 <__sinit>
    2ab8:	f9b4 300c 	ldrsh.w	r3, [r4, #12]
    2abc:	0718      	lsls	r0, r3, #28
    2abe:	b29a      	uxth	r2, r3
    2ac0:	d4d9      	bmi.n	2a76 <__swsetup_r+0x1a>
    2ac2:	06d1      	lsls	r1, r2, #27
    2ac4:	d52a      	bpl.n	2b1c <__swsetup_r+0xc0>
    2ac6:	0752      	lsls	r2, r2, #29
    2ac8:	d414      	bmi.n	2af4 <__swsetup_r+0x98>
    2aca:	6921      	ldr	r1, [r4, #16]
    2acc:	f043 0308 	orr.w	r3, r3, #8
    2ad0:	81a3      	strh	r3, [r4, #12]
    2ad2:	b29a      	uxth	r2, r3
    2ad4:	2900      	cmp	r1, #0
    2ad6:	d1d1      	bne.n	2a7c <__swsetup_r+0x20>
    2ad8:	f402 7020 	and.w	r0, r2, #640	; 0x280
    2adc:	f5b0 7f00 	cmp.w	r0, #512	; 0x200
    2ae0:	d0cc      	beq.n	2a7c <__swsetup_r+0x20>
    2ae2:	4621      	mov	r1, r4
    2ae4:	4628      	mov	r0, r5
    2ae6:	f000 fb49 	bl	317c <__smakebuf_r>
    2aea:	f9b4 300c 	ldrsh.w	r3, [r4, #12]
    2aee:	6921      	ldr	r1, [r4, #16]
    2af0:	b29a      	uxth	r2, r3
    2af2:	e7c3      	b.n	2a7c <__swsetup_r+0x20>
    2af4:	6b21      	ldr	r1, [r4, #48]	; 0x30
    2af6:	b151      	cbz	r1, 2b0e <__swsetup_r+0xb2>
    2af8:	f104 0240 	add.w	r2, r4, #64	; 0x40
    2afc:	4291      	cmp	r1, r2
    2afe:	d004      	beq.n	2b0a <__swsetup_r+0xae>
    2b00:	4628      	mov	r0, r5
    2b02:	f000 fa25 	bl	2f50 <_free_r>
    2b06:	f9b4 300c 	ldrsh.w	r3, [r4, #12]
    2b0a:	2200      	movs	r2, #0
    2b0c:	6322      	str	r2, [r4, #48]	; 0x30
    2b0e:	2200      	movs	r2, #0
    2b10:	6921      	ldr	r1, [r4, #16]
    2b12:	f023 0324 	bic.w	r3, r3, #36	; 0x24
    2b16:	e9c4 1200 	strd	r1, r2, [r4]
    2b1a:	e7d7      	b.n	2acc <__swsetup_r+0x70>
    2b1c:	2209      	movs	r2, #9
    2b1e:	f043 0340 	orr.w	r3, r3, #64	; 0x40
    2b22:	602a      	str	r2, [r5, #0]
    2b24:	f04f 30ff 	mov.w	r0, #4294967295	; 0xffffffff
    2b28:	81a3      	strh	r3, [r4, #12]
    2b2a:	bd38      	pop	{r3, r4, r5, pc}
    2b2c:	2000011c 	.word	0x2000011c

00002b30 <__register_exitproc>:
    2b30:	e92d 47f0 	stmdb	sp!, {r4, r5, r6, r7, r8, r9, sl, lr}
    2b34:	f8df a07c 	ldr.w	sl, [pc, #124]	; 2bb4 <__register_exitproc+0x84>
    2b38:	4606      	mov	r6, r0
    2b3a:	f8da 0000 	ldr.w	r0, [sl]
    2b3e:	4698      	mov	r8, r3
    2b40:	460f      	mov	r7, r1
    2b42:	4691      	mov	r9, r2
    2b44:	f7ff f93a 	bl	1dbc <__retarget_lock_acquire_recursive>
    2b48:	4b1b      	ldr	r3, [pc, #108]	; (2bb8 <__register_exitproc+0x88>)
    2b4a:	681b      	ldr	r3, [r3, #0]
    2b4c:	f8d3 4148 	ldr.w	r4, [r3, #328]	; 0x148
    2b50:	b324      	cbz	r4, 2b9c <__register_exitproc+0x6c>
    2b52:	6865      	ldr	r5, [r4, #4]
    2b54:	2d1f      	cmp	r5, #31
    2b56:	dc26      	bgt.n	2ba6 <__register_exitproc+0x76>
    2b58:	b95e      	cbnz	r6, 2b72 <__register_exitproc+0x42>
    2b5a:	1c6b      	adds	r3, r5, #1
    2b5c:	3502      	adds	r5, #2
    2b5e:	f8da 0000 	ldr.w	r0, [sl]
    2b62:	6063      	str	r3, [r4, #4]
    2b64:	f844 7025 	str.w	r7, [r4, r5, lsl #2]
    2b68:	f7ff f930 	bl	1dcc <__retarget_lock_release_recursive>
    2b6c:	2000      	movs	r0, #0
    2b6e:	e8bd 87f0 	ldmia.w	sp!, {r4, r5, r6, r7, r8, r9, sl, pc}
    2b72:	2301      	movs	r3, #1
    2b74:	eb04 0185 	add.w	r1, r4, r5, lsl #2
    2b78:	f8c1 9088 	str.w	r9, [r1, #136]	; 0x88
    2b7c:	f8d4 2188 	ldr.w	r2, [r4, #392]	; 0x188
    2b80:	40ab      	lsls	r3, r5
    2b82:	431a      	orrs	r2, r3
    2b84:	2e02      	cmp	r6, #2
    2b86:	f8c4 2188 	str.w	r2, [r4, #392]	; 0x188
    2b8a:	f8c1 8108 	str.w	r8, [r1, #264]	; 0x108
    2b8e:	d1e4      	bne.n	2b5a <__register_exitproc+0x2a>
    2b90:	f8d4 218c 	ldr.w	r2, [r4, #396]	; 0x18c
    2b94:	4313      	orrs	r3, r2
    2b96:	f8c4 318c 	str.w	r3, [r4, #396]	; 0x18c
    2b9a:	e7de      	b.n	2b5a <__register_exitproc+0x2a>
    2b9c:	f503 74a6 	add.w	r4, r3, #332	; 0x14c
    2ba0:	f8c3 4148 	str.w	r4, [r3, #328]	; 0x148
    2ba4:	e7d5      	b.n	2b52 <__register_exitproc+0x22>
    2ba6:	f8da 0000 	ldr.w	r0, [sl]
    2baa:	f7ff f90f 	bl	1dcc <__retarget_lock_release_recursive>
    2bae:	f04f 30ff 	mov.w	r0, #4294967295	; 0xffffffff
    2bb2:	e7dc      	b.n	2b6e <__register_exitproc+0x3e>
    2bb4:	20000548 	.word	0x20000548
    2bb8:	00003e1c 	.word	0x00003e1c

00002bbc <_close_r>:
    2bbc:	2200      	movs	r2, #0
    2bbe:	b538      	push	{r3, r4, r5, lr}
    2bc0:	4d06      	ldr	r5, [pc, #24]	; (2bdc <_close_r+0x20>)
    2bc2:	4604      	mov	r4, r0
    2bc4:	4608      	mov	r0, r1
    2bc6:	602a      	str	r2, [r5, #0]
    2bc8:	f000 fd26 	bl	3618 <_close>
    2bcc:	1c43      	adds	r3, r0, #1
    2bce:	d000      	beq.n	2bd2 <_close_r+0x16>
    2bd0:	bd38      	pop	{r3, r4, r5, pc}
    2bd2:	682b      	ldr	r3, [r5, #0]
    2bd4:	2b00      	cmp	r3, #0
    2bd6:	d0fb      	beq.n	2bd0 <_close_r+0x14>
    2bd8:	6023      	str	r3, [r4, #0]
    2bda:	bd38      	pop	{r3, r4, r5, pc}
    2bdc:	200009e8 	.word	0x200009e8

00002be0 <_fclose_r>:
    2be0:	b570      	push	{r4, r5, r6, lr}
    2be2:	2900      	cmp	r1, #0
    2be4:	d04b      	beq.n	2c7e <_fclose_r+0x9e>
    2be6:	4606      	mov	r6, r0
    2be8:	460c      	mov	r4, r1
    2bea:	b110      	cbz	r0, 2bf2 <_fclose_r+0x12>
    2bec:	6b83      	ldr	r3, [r0, #56]	; 0x38
    2bee:	2b00      	cmp	r3, #0
    2bf0:	d048      	beq.n	2c84 <_fclose_r+0xa4>
    2bf2:	6e63      	ldr	r3, [r4, #100]	; 0x64
    2bf4:	07d8      	lsls	r0, r3, #31
    2bf6:	d534      	bpl.n	2c62 <_fclose_r+0x82>
    2bf8:	f9b4 300c 	ldrsh.w	r3, [r4, #12]
    2bfc:	2b00      	cmp	r3, #0
    2bfe:	d03e      	beq.n	2c7e <_fclose_r+0x9e>
    2c00:	4621      	mov	r1, r4
    2c02:	4630      	mov	r0, r6
    2c04:	f000 f85a 	bl	2cbc <__sflush_r>
    2c08:	6ae3      	ldr	r3, [r4, #44]	; 0x2c
    2c0a:	4605      	mov	r5, r0
    2c0c:	b133      	cbz	r3, 2c1c <_fclose_r+0x3c>
    2c0e:	4630      	mov	r0, r6
    2c10:	69e1      	ldr	r1, [r4, #28]
    2c12:	4798      	blx	r3
    2c14:	2800      	cmp	r0, #0
    2c16:	bfb8      	it	lt
    2c18:	f04f 35ff 	movlt.w	r5, #4294967295	; 0xffffffff
    2c1c:	89a3      	ldrh	r3, [r4, #12]
    2c1e:	061a      	lsls	r2, r3, #24
    2c20:	d43b      	bmi.n	2c9a <_fclose_r+0xba>
    2c22:	6b21      	ldr	r1, [r4, #48]	; 0x30
    2c24:	b141      	cbz	r1, 2c38 <_fclose_r+0x58>
    2c26:	f104 0340 	add.w	r3, r4, #64	; 0x40
    2c2a:	4299      	cmp	r1, r3
    2c2c:	d002      	beq.n	2c34 <_fclose_r+0x54>
    2c2e:	4630      	mov	r0, r6
    2c30:	f000 f98e 	bl	2f50 <_free_r>
    2c34:	2300      	movs	r3, #0
    2c36:	6323      	str	r3, [r4, #48]	; 0x30
    2c38:	6c61      	ldr	r1, [r4, #68]	; 0x44
    2c3a:	b121      	cbz	r1, 2c46 <_fclose_r+0x66>
    2c3c:	4630      	mov	r0, r6
    2c3e:	f000 f987 	bl	2f50 <_free_r>
    2c42:	2300      	movs	r3, #0
    2c44:	6463      	str	r3, [r4, #68]	; 0x44
    2c46:	f7fe fea1 	bl	198c <__sfp_lock_acquire>
    2c4a:	2200      	movs	r2, #0
    2c4c:	6e63      	ldr	r3, [r4, #100]	; 0x64
    2c4e:	81a2      	strh	r2, [r4, #12]
    2c50:	07db      	lsls	r3, r3, #31
    2c52:	d527      	bpl.n	2ca4 <_fclose_r+0xc4>
    2c54:	6da0      	ldr	r0, [r4, #88]	; 0x58
    2c56:	f7ff f8ad 	bl	1db4 <__retarget_lock_close_recursive>
    2c5a:	f7fe fe9d 	bl	1998 <__sfp_lock_release>
    2c5e:	4628      	mov	r0, r5
    2c60:	bd70      	pop	{r4, r5, r6, pc}
    2c62:	89a3      	ldrh	r3, [r4, #12]
    2c64:	0599      	lsls	r1, r3, #22
    2c66:	d4cb      	bmi.n	2c00 <_fclose_r+0x20>
    2c68:	6da0      	ldr	r0, [r4, #88]	; 0x58
    2c6a:	f7ff f8a7 	bl	1dbc <__retarget_lock_acquire_recursive>
    2c6e:	f9b4 300c 	ldrsh.w	r3, [r4, #12]
    2c72:	2b00      	cmp	r3, #0
    2c74:	d1c4      	bne.n	2c00 <_fclose_r+0x20>
    2c76:	6e65      	ldr	r5, [r4, #100]	; 0x64
    2c78:	f015 0501 	ands.w	r5, r5, #1
    2c7c:	d008      	beq.n	2c90 <_fclose_r+0xb0>
    2c7e:	2500      	movs	r5, #0
    2c80:	4628      	mov	r0, r5
    2c82:	bd70      	pop	{r4, r5, r6, pc}
    2c84:	f7fe fd98 	bl	17b8 <__sinit>
    2c88:	6e63      	ldr	r3, [r4, #100]	; 0x64
    2c8a:	07d8      	lsls	r0, r3, #31
    2c8c:	d4b4      	bmi.n	2bf8 <_fclose_r+0x18>
    2c8e:	e7e8      	b.n	2c62 <_fclose_r+0x82>
    2c90:	6da0      	ldr	r0, [r4, #88]	; 0x58
    2c92:	f7ff f89b 	bl	1dcc <__retarget_lock_release_recursive>
    2c96:	4628      	mov	r0, r5
    2c98:	bd70      	pop	{r4, r5, r6, pc}
    2c9a:	4630      	mov	r0, r6
    2c9c:	6921      	ldr	r1, [r4, #16]
    2c9e:	f000 f957 	bl	2f50 <_free_r>
    2ca2:	e7be      	b.n	2c22 <_fclose_r+0x42>
    2ca4:	6da0      	ldr	r0, [r4, #88]	; 0x58
    2ca6:	f7ff f891 	bl	1dcc <__retarget_lock_release_recursive>
    2caa:	e7d3      	b.n	2c54 <_fclose_r+0x74>

00002cac <fclose>:
    2cac:	4b02      	ldr	r3, [pc, #8]	; (2cb8 <fclose+0xc>)
    2cae:	4601      	mov	r1, r0
    2cb0:	6818      	ldr	r0, [r3, #0]
    2cb2:	f7ff bf95 	b.w	2be0 <_fclose_r>
    2cb6:	bf00      	nop
    2cb8:	2000011c 	.word	0x2000011c

00002cbc <__sflush_r>:
    2cbc:	f9b1 200c 	ldrsh.w	r2, [r1, #12]
    2cc0:	b5f8      	push	{r3, r4, r5, r6, r7, lr}
    2cc2:	460c      	mov	r4, r1
    2cc4:	0711      	lsls	r1, r2, #28
    2cc6:	4607      	mov	r7, r0
    2cc8:	d443      	bmi.n	2d52 <__sflush_r+0x96>
    2cca:	6863      	ldr	r3, [r4, #4]
    2ccc:	f442 6200 	orr.w	r2, r2, #2048	; 0x800
    2cd0:	2b00      	cmp	r3, #0
    2cd2:	81a2      	strh	r2, [r4, #12]
    2cd4:	dd5b      	ble.n	2d8e <__sflush_r+0xd2>
    2cd6:	6aa5      	ldr	r5, [r4, #40]	; 0x28
    2cd8:	2d00      	cmp	r5, #0
    2cda:	d056      	beq.n	2d8a <__sflush_r+0xce>
    2cdc:	2300      	movs	r3, #0
    2cde:	683e      	ldr	r6, [r7, #0]
    2ce0:	603b      	str	r3, [r7, #0]
    2ce2:	b293      	uxth	r3, r2
    2ce4:	f412 5280 	ands.w	r2, r2, #4096	; 0x1000
    2ce8:	d155      	bne.n	2d96 <__sflush_r+0xda>
    2cea:	2301      	movs	r3, #1
    2cec:	4638      	mov	r0, r7
    2cee:	69e1      	ldr	r1, [r4, #28]
    2cf0:	47a8      	blx	r5
    2cf2:	1c42      	adds	r2, r0, #1
    2cf4:	d065      	beq.n	2dc2 <__sflush_r+0x106>
    2cf6:	89a3      	ldrh	r3, [r4, #12]
    2cf8:	6aa5      	ldr	r5, [r4, #40]	; 0x28
    2cfa:	075b      	lsls	r3, r3, #29
    2cfc:	d505      	bpl.n	2d0a <__sflush_r+0x4e>
    2cfe:	6863      	ldr	r3, [r4, #4]
    2d00:	1ac0      	subs	r0, r0, r3
    2d02:	6b23      	ldr	r3, [r4, #48]	; 0x30
    2d04:	b10b      	cbz	r3, 2d0a <__sflush_r+0x4e>
    2d06:	6be3      	ldr	r3, [r4, #60]	; 0x3c
    2d08:	1ac0      	subs	r0, r0, r3
    2d0a:	4602      	mov	r2, r0
    2d0c:	69e1      	ldr	r1, [r4, #28]
    2d0e:	2300      	movs	r3, #0
    2d10:	4638      	mov	r0, r7
    2d12:	47a8      	blx	r5
    2d14:	1c41      	adds	r1, r0, #1
    2d16:	d140      	bne.n	2d9a <__sflush_r+0xde>
    2d18:	683b      	ldr	r3, [r7, #0]
    2d1a:	2b00      	cmp	r3, #0
    2d1c:	d03d      	beq.n	2d9a <__sflush_r+0xde>
    2d1e:	2b1d      	cmp	r3, #29
    2d20:	d001      	beq.n	2d26 <__sflush_r+0x6a>
    2d22:	2b16      	cmp	r3, #22
    2d24:	d154      	bne.n	2dd0 <__sflush_r+0x114>
    2d26:	2200      	movs	r2, #0
    2d28:	89a3      	ldrh	r3, [r4, #12]
    2d2a:	f423 6300 	bic.w	r3, r3, #2048	; 0x800
    2d2e:	81a3      	strh	r3, [r4, #12]
    2d30:	6923      	ldr	r3, [r4, #16]
    2d32:	e9c4 3200 	strd	r3, r2, [r4]
    2d36:	6b21      	ldr	r1, [r4, #48]	; 0x30
    2d38:	603e      	str	r6, [r7, #0]
    2d3a:	b331      	cbz	r1, 2d8a <__sflush_r+0xce>
    2d3c:	f104 0340 	add.w	r3, r4, #64	; 0x40
    2d40:	4299      	cmp	r1, r3
    2d42:	d002      	beq.n	2d4a <__sflush_r+0x8e>
    2d44:	4638      	mov	r0, r7
    2d46:	f000 f903 	bl	2f50 <_free_r>
    2d4a:	2300      	movs	r3, #0
    2d4c:	4618      	mov	r0, r3
    2d4e:	6323      	str	r3, [r4, #48]	; 0x30
    2d50:	bdf8      	pop	{r3, r4, r5, r6, r7, pc}
    2d52:	6926      	ldr	r6, [r4, #16]
    2d54:	b1ce      	cbz	r6, 2d8a <__sflush_r+0xce>
    2d56:	b293      	uxth	r3, r2
    2d58:	079a      	lsls	r2, r3, #30
    2d5a:	bf18      	it	ne
    2d5c:	2300      	movne	r3, #0
    2d5e:	6825      	ldr	r5, [r4, #0]
    2d60:	bf08      	it	eq
    2d62:	6963      	ldreq	r3, [r4, #20]
    2d64:	6026      	str	r6, [r4, #0]
    2d66:	1bad      	subs	r5, r5, r6
    2d68:	60a3      	str	r3, [r4, #8]
    2d6a:	e00c      	b.n	2d86 <__sflush_r+0xca>
    2d6c:	462b      	mov	r3, r5
    2d6e:	4632      	mov	r2, r6
    2d70:	f8d4 c024 	ldr.w	ip, [r4, #36]	; 0x24
    2d74:	4638      	mov	r0, r7
    2d76:	69e1      	ldr	r1, [r4, #28]
    2d78:	47e0      	blx	ip
    2d7a:	f1b0 0c00 	subs.w	ip, r0, #0
    2d7e:	eba5 050c 	sub.w	r5, r5, ip
    2d82:	4466      	add	r6, ip
    2d84:	dd16      	ble.n	2db4 <__sflush_r+0xf8>
    2d86:	2d00      	cmp	r5, #0
    2d88:	dcf0      	bgt.n	2d6c <__sflush_r+0xb0>
    2d8a:	2000      	movs	r0, #0
    2d8c:	bdf8      	pop	{r3, r4, r5, r6, r7, pc}
    2d8e:	6be3      	ldr	r3, [r4, #60]	; 0x3c
    2d90:	2b00      	cmp	r3, #0
    2d92:	dca0      	bgt.n	2cd6 <__sflush_r+0x1a>
    2d94:	e7f9      	b.n	2d8a <__sflush_r+0xce>
    2d96:	6d20      	ldr	r0, [r4, #80]	; 0x50
    2d98:	e7af      	b.n	2cfa <__sflush_r+0x3e>
    2d9a:	2200      	movs	r2, #0
    2d9c:	f9b4 300c 	ldrsh.w	r3, [r4, #12]
    2da0:	6062      	str	r2, [r4, #4]
    2da2:	f423 6300 	bic.w	r3, r3, #2048	; 0x800
    2da6:	6922      	ldr	r2, [r4, #16]
    2da8:	81a3      	strh	r3, [r4, #12]
    2daa:	04db      	lsls	r3, r3, #19
    2dac:	6022      	str	r2, [r4, #0]
    2dae:	d5c2      	bpl.n	2d36 <__sflush_r+0x7a>
    2db0:	6520      	str	r0, [r4, #80]	; 0x50
    2db2:	e7c0      	b.n	2d36 <__sflush_r+0x7a>
    2db4:	89a3      	ldrh	r3, [r4, #12]
    2db6:	f04f 30ff 	mov.w	r0, #4294967295	; 0xffffffff
    2dba:	f043 0340 	orr.w	r3, r3, #64	; 0x40
    2dbe:	81a3      	strh	r3, [r4, #12]
    2dc0:	bdf8      	pop	{r3, r4, r5, r6, r7, pc}
    2dc2:	683b      	ldr	r3, [r7, #0]
    2dc4:	2b00      	cmp	r3, #0
    2dc6:	d096      	beq.n	2cf6 <__sflush_r+0x3a>
    2dc8:	2b1d      	cmp	r3, #29
    2dca:	d006      	beq.n	2dda <__sflush_r+0x11e>
    2dcc:	2b16      	cmp	r3, #22
    2dce:	d004      	beq.n	2dda <__sflush_r+0x11e>
    2dd0:	89a3      	ldrh	r3, [r4, #12]
    2dd2:	f043 0340 	orr.w	r3, r3, #64	; 0x40
    2dd6:	81a3      	strh	r3, [r4, #12]
    2dd8:	bdf8      	pop	{r3, r4, r5, r6, r7, pc}
    2dda:	2000      	movs	r0, #0
    2ddc:	603e      	str	r6, [r7, #0]
    2dde:	bdf8      	pop	{r3, r4, r5, r6, r7, pc}

00002de0 <_fflush_r>:
    2de0:	b538      	push	{r3, r4, r5, lr}
    2de2:	4605      	mov	r5, r0
    2de4:	460c      	mov	r4, r1
    2de6:	b108      	cbz	r0, 2dec <_fflush_r+0xc>
    2de8:	6b83      	ldr	r3, [r0, #56]	; 0x38
    2dea:	b1a3      	cbz	r3, 2e16 <_fflush_r+0x36>
    2dec:	f9b4 000c 	ldrsh.w	r0, [r4, #12]
    2df0:	b1b8      	cbz	r0, 2e22 <_fflush_r+0x42>
    2df2:	6e63      	ldr	r3, [r4, #100]	; 0x64
    2df4:	07db      	lsls	r3, r3, #31
    2df6:	d401      	bmi.n	2dfc <_fflush_r+0x1c>
    2df8:	0581      	lsls	r1, r0, #22
    2dfa:	d515      	bpl.n	2e28 <_fflush_r+0x48>
    2dfc:	4628      	mov	r0, r5
    2dfe:	4621      	mov	r1, r4
    2e00:	f7ff ff5c 	bl	2cbc <__sflush_r>
    2e04:	6e63      	ldr	r3, [r4, #100]	; 0x64
    2e06:	4605      	mov	r5, r0
    2e08:	07da      	lsls	r2, r3, #31
    2e0a:	d402      	bmi.n	2e12 <_fflush_r+0x32>
    2e0c:	89a3      	ldrh	r3, [r4, #12]
    2e0e:	059b      	lsls	r3, r3, #22
    2e10:	d50e      	bpl.n	2e30 <_fflush_r+0x50>
    2e12:	4628      	mov	r0, r5
    2e14:	bd38      	pop	{r3, r4, r5, pc}
    2e16:	f7fe fccf 	bl	17b8 <__sinit>
    2e1a:	f9b4 000c 	ldrsh.w	r0, [r4, #12]
    2e1e:	2800      	cmp	r0, #0
    2e20:	d1e7      	bne.n	2df2 <_fflush_r+0x12>
    2e22:	4605      	mov	r5, r0
    2e24:	4628      	mov	r0, r5
    2e26:	bd38      	pop	{r3, r4, r5, pc}
    2e28:	6da0      	ldr	r0, [r4, #88]	; 0x58
    2e2a:	f7fe ffc7 	bl	1dbc <__retarget_lock_acquire_recursive>
    2e2e:	e7e5      	b.n	2dfc <_fflush_r+0x1c>
    2e30:	6da0      	ldr	r0, [r4, #88]	; 0x58
    2e32:	f7fe ffcb 	bl	1dcc <__retarget_lock_release_recursive>
    2e36:	4628      	mov	r0, r5
    2e38:	bd38      	pop	{r3, r4, r5, pc}
    2e3a:	bf00      	nop

00002e3c <fflush>:
    2e3c:	b538      	push	{r3, r4, r5, lr}
    2e3e:	b348      	cbz	r0, 2e94 <fflush+0x58>
    2e40:	4b18      	ldr	r3, [pc, #96]	; (2ea4 <fflush+0x68>)
    2e42:	4604      	mov	r4, r0
    2e44:	681d      	ldr	r5, [r3, #0]
    2e46:	b10d      	cbz	r5, 2e4c <fflush+0x10>
    2e48:	6bab      	ldr	r3, [r5, #56]	; 0x38
    2e4a:	b1bb      	cbz	r3, 2e7c <fflush+0x40>
    2e4c:	f9b4 000c 	ldrsh.w	r0, [r4, #12]
    2e50:	b188      	cbz	r0, 2e76 <fflush+0x3a>
    2e52:	6e63      	ldr	r3, [r4, #100]	; 0x64
    2e54:	07db      	lsls	r3, r3, #31
    2e56:	d401      	bmi.n	2e5c <fflush+0x20>
    2e58:	0581      	lsls	r1, r0, #22
    2e5a:	d513      	bpl.n	2e84 <fflush+0x48>
    2e5c:	4628      	mov	r0, r5
    2e5e:	4621      	mov	r1, r4
    2e60:	f7ff ff2c 	bl	2cbc <__sflush_r>
    2e64:	6e63      	ldr	r3, [r4, #100]	; 0x64
    2e66:	4605      	mov	r5, r0
    2e68:	07da      	lsls	r2, r3, #31
    2e6a:	d402      	bmi.n	2e72 <fflush+0x36>
    2e6c:	89a3      	ldrh	r3, [r4, #12]
    2e6e:	059b      	lsls	r3, r3, #22
    2e70:	d50c      	bpl.n	2e8c <fflush+0x50>
    2e72:	4628      	mov	r0, r5
    2e74:	bd38      	pop	{r3, r4, r5, pc}
    2e76:	4605      	mov	r5, r0
    2e78:	4628      	mov	r0, r5
    2e7a:	bd38      	pop	{r3, r4, r5, pc}
    2e7c:	4628      	mov	r0, r5
    2e7e:	f7fe fc9b 	bl	17b8 <__sinit>
    2e82:	e7e3      	b.n	2e4c <fflush+0x10>
    2e84:	6da0      	ldr	r0, [r4, #88]	; 0x58
    2e86:	f7fe ff99 	bl	1dbc <__retarget_lock_acquire_recursive>
    2e8a:	e7e7      	b.n	2e5c <fflush+0x20>
    2e8c:	6da0      	ldr	r0, [r4, #88]	; 0x58
    2e8e:	f7fe ff9d 	bl	1dcc <__retarget_lock_release_recursive>
    2e92:	e7ee      	b.n	2e72 <fflush+0x36>
    2e94:	4b04      	ldr	r3, [pc, #16]	; (2ea8 <fflush+0x6c>)
    2e96:	4905      	ldr	r1, [pc, #20]	; (2eac <fflush+0x70>)
    2e98:	6818      	ldr	r0, [r3, #0]
    2e9a:	e8bd 4038 	ldmia.w	sp!, {r3, r4, r5, lr}
    2e9e:	f7fe bf5f 	b.w	1d60 <_fwalk_reent>
    2ea2:	bf00      	nop
    2ea4:	2000011c 	.word	0x2000011c
    2ea8:	00003e1c 	.word	0x00003e1c
    2eac:	00002de1 	.word	0x00002de1

00002eb0 <_malloc_trim_r>:
    2eb0:	b5f8      	push	{r3, r4, r5, r6, r7, lr}
    2eb2:	460c      	mov	r4, r1
    2eb4:	4f23      	ldr	r7, [pc, #140]	; (2f44 <_malloc_trim_r+0x94>)
    2eb6:	4606      	mov	r6, r0
    2eb8:	f7ff fafa 	bl	24b0 <__malloc_lock>
    2ebc:	68bb      	ldr	r3, [r7, #8]
    2ebe:	685d      	ldr	r5, [r3, #4]
    2ec0:	f5c4 637e 	rsb	r3, r4, #4064	; 0xfe0
    2ec4:	f025 0503 	bic.w	r5, r5, #3
    2ec8:	330f      	adds	r3, #15
    2eca:	442b      	add	r3, r5
    2ecc:	f423 637f 	bic.w	r3, r3, #4080	; 0xff0
    2ed0:	f023 030f 	bic.w	r3, r3, #15
    2ed4:	f5a3 5480 	sub.w	r4, r3, #4096	; 0x1000
    2ed8:	f5b4 5f80 	cmp.w	r4, #4096	; 0x1000
    2edc:	db07      	blt.n	2eee <_malloc_trim_r+0x3e>
    2ede:	2100      	movs	r1, #0
    2ee0:	4630      	mov	r0, r6
    2ee2:	f7ff fd4b 	bl	297c <_sbrk_r>
    2ee6:	68bb      	ldr	r3, [r7, #8]
    2ee8:	442b      	add	r3, r5
    2eea:	4298      	cmp	r0, r3
    2eec:	d004      	beq.n	2ef8 <_malloc_trim_r+0x48>
    2eee:	4630      	mov	r0, r6
    2ef0:	f7ff fae4 	bl	24bc <__malloc_unlock>
    2ef4:	2000      	movs	r0, #0
    2ef6:	bdf8      	pop	{r3, r4, r5, r6, r7, pc}
    2ef8:	4630      	mov	r0, r6
    2efa:	4261      	negs	r1, r4
    2efc:	f7ff fd3e 	bl	297c <_sbrk_r>
    2f00:	3001      	adds	r0, #1
    2f02:	d00d      	beq.n	2f20 <_malloc_trim_r+0x70>
    2f04:	4a10      	ldr	r2, [pc, #64]	; (2f48 <_malloc_trim_r+0x98>)
    2f06:	68bb      	ldr	r3, [r7, #8]
    2f08:	1b2d      	subs	r5, r5, r4
    2f0a:	f045 0501 	orr.w	r5, r5, #1
    2f0e:	605d      	str	r5, [r3, #4]
    2f10:	6813      	ldr	r3, [r2, #0]
    2f12:	4630      	mov	r0, r6
    2f14:	1b1b      	subs	r3, r3, r4
    2f16:	6013      	str	r3, [r2, #0]
    2f18:	f7ff fad0 	bl	24bc <__malloc_unlock>
    2f1c:	2001      	movs	r0, #1
    2f1e:	bdf8      	pop	{r3, r4, r5, r6, r7, pc}
    2f20:	2100      	movs	r1, #0
    2f22:	4630      	mov	r0, r6
    2f24:	f7ff fd2a 	bl	297c <_sbrk_r>
    2f28:	68ba      	ldr	r2, [r7, #8]
    2f2a:	1a83      	subs	r3, r0, r2
    2f2c:	2b0f      	cmp	r3, #15
    2f2e:	ddde      	ble.n	2eee <_malloc_trim_r+0x3e>
    2f30:	f043 0301 	orr.w	r3, r3, #1
    2f34:	6053      	str	r3, [r2, #4]
    2f36:	4b05      	ldr	r3, [pc, #20]	; (2f4c <_malloc_trim_r+0x9c>)
    2f38:	4903      	ldr	r1, [pc, #12]	; (2f48 <_malloc_trim_r+0x98>)
    2f3a:	681b      	ldr	r3, [r3, #0]
    2f3c:	1ac0      	subs	r0, r0, r3
    2f3e:	6008      	str	r0, [r1, #0]
    2f40:	e7d5      	b.n	2eee <_malloc_trim_r+0x3e>
    2f42:	bf00      	nop
    2f44:	2000054c 	.word	0x2000054c
    2f48:	200009b4 	.word	0x200009b4
    2f4c:	20000954 	.word	0x20000954

00002f50 <_free_r>:
    2f50:	2900      	cmp	r1, #0
    2f52:	d05e      	beq.n	3012 <_free_r+0xc2>
    2f54:	b5f8      	push	{r3, r4, r5, r6, r7, lr}
    2f56:	460c      	mov	r4, r1
    2f58:	4606      	mov	r6, r0
    2f5a:	f7ff faa9 	bl	24b0 <__malloc_lock>
    2f5e:	f854 2c04 	ldr.w	r2, [r4, #-4]
    2f62:	4f78      	ldr	r7, [pc, #480]	; (3144 <_free_r+0x1f4>)
    2f64:	f1a4 0508 	sub.w	r5, r4, #8
    2f68:	f022 0101 	bic.w	r1, r2, #1
    2f6c:	1868      	adds	r0, r5, r1
    2f6e:	f8d7 c008 	ldr.w	ip, [r7, #8]
    2f72:	6843      	ldr	r3, [r0, #4]
    2f74:	4584      	cmp	ip, r0
    2f76:	f023 0303 	bic.w	r3, r3, #3
    2f7a:	f000 8087 	beq.w	308c <_free_r+0x13c>
    2f7e:	07d2      	lsls	r2, r2, #31
    2f80:	6043      	str	r3, [r0, #4]
    2f82:	d434      	bmi.n	2fee <_free_r+0x9e>
    2f84:	f854 2c08 	ldr.w	r2, [r4, #-8]
    2f88:	f107 0408 	add.w	r4, r7, #8
    2f8c:	1aad      	subs	r5, r5, r2
    2f8e:	4411      	add	r1, r2
    2f90:	68aa      	ldr	r2, [r5, #8]
    2f92:	42a2      	cmp	r2, r4
    2f94:	d068      	beq.n	3068 <_free_r+0x118>
    2f96:	eb00 0c03 	add.w	ip, r0, r3
    2f9a:	f8dc e004 	ldr.w	lr, [ip, #4]
    2f9e:	f8d5 c00c 	ldr.w	ip, [r5, #12]
    2fa2:	f01e 0f01 	tst.w	lr, #1
    2fa6:	f8c2 c00c 	str.w	ip, [r2, #12]
    2faa:	f8cc 2008 	str.w	r2, [ip, #8]
    2fae:	f000 8091 	beq.w	30d4 <_free_r+0x184>
    2fb2:	f041 0301 	orr.w	r3, r1, #1
    2fb6:	606b      	str	r3, [r5, #4]
    2fb8:	6001      	str	r1, [r0, #0]
    2fba:	f5b1 7f00 	cmp.w	r1, #512	; 0x200
    2fbe:	d231      	bcs.n	3024 <_free_r+0xd4>
    2fc0:	094a      	lsrs	r2, r1, #5
    2fc2:	08cb      	lsrs	r3, r1, #3
    2fc4:	2101      	movs	r1, #1
    2fc6:	4091      	lsls	r1, r2
    2fc8:	687a      	ldr	r2, [r7, #4]
    2fca:	3301      	adds	r3, #1
    2fcc:	4311      	orrs	r1, r2
    2fce:	6079      	str	r1, [r7, #4]
    2fd0:	eb07 02c3 	add.w	r2, r7, r3, lsl #3
    2fd4:	f857 1033 	ldr.w	r1, [r7, r3, lsl #3]
    2fd8:	3a08      	subs	r2, #8
    2fda:	e9c5 1202 	strd	r1, r2, [r5, #8]
    2fde:	f847 5033 	str.w	r5, [r7, r3, lsl #3]
    2fe2:	60cd      	str	r5, [r1, #12]
    2fe4:	4630      	mov	r0, r6
    2fe6:	e8bd 40f8 	ldmia.w	sp!, {r3, r4, r5, r6, r7, lr}
    2fea:	f7ff ba67 	b.w	24bc <__malloc_unlock>
    2fee:	18c2      	adds	r2, r0, r3
    2ff0:	6852      	ldr	r2, [r2, #4]
    2ff2:	07d2      	lsls	r2, r2, #31
    2ff4:	d40e      	bmi.n	3014 <_free_r+0xc4>
    2ff6:	4419      	add	r1, r3
    2ff8:	f107 0408 	add.w	r4, r7, #8
    2ffc:	6883      	ldr	r3, [r0, #8]
    2ffe:	42a3      	cmp	r3, r4
    3000:	d070      	beq.n	30e4 <_free_r+0x194>
    3002:	68c2      	ldr	r2, [r0, #12]
    3004:	60da      	str	r2, [r3, #12]
    3006:	6093      	str	r3, [r2, #8]
    3008:	f041 0301 	orr.w	r3, r1, #1
    300c:	606b      	str	r3, [r5, #4]
    300e:	5069      	str	r1, [r5, r1]
    3010:	e7d3      	b.n	2fba <_free_r+0x6a>
    3012:	4770      	bx	lr
    3014:	f041 0301 	orr.w	r3, r1, #1
    3018:	f5b1 7f00 	cmp.w	r1, #512	; 0x200
    301c:	f844 3c04 	str.w	r3, [r4, #-4]
    3020:	6001      	str	r1, [r0, #0]
    3022:	d3cd      	bcc.n	2fc0 <_free_r+0x70>
    3024:	f5b1 6f20 	cmp.w	r1, #2560	; 0xa00
    3028:	ea4f 2351 	mov.w	r3, r1, lsr #9
    302c:	d247      	bcs.n	30be <_free_r+0x16e>
    302e:	098b      	lsrs	r3, r1, #6
    3030:	f103 0039 	add.w	r0, r3, #57	; 0x39
    3034:	f103 0238 	add.w	r2, r3, #56	; 0x38
    3038:	00c3      	lsls	r3, r0, #3
    303a:	18f8      	adds	r0, r7, r3
    303c:	58fb      	ldr	r3, [r7, r3]
    303e:	3808      	subs	r0, #8
    3040:	4298      	cmp	r0, r3
    3042:	d058      	beq.n	30f6 <_free_r+0x1a6>
    3044:	685a      	ldr	r2, [r3, #4]
    3046:	f022 0203 	bic.w	r2, r2, #3
    304a:	428a      	cmp	r2, r1
    304c:	d902      	bls.n	3054 <_free_r+0x104>
    304e:	689b      	ldr	r3, [r3, #8]
    3050:	4298      	cmp	r0, r3
    3052:	d1f7      	bne.n	3044 <_free_r+0xf4>
    3054:	68d8      	ldr	r0, [r3, #12]
    3056:	e9c5 3002 	strd	r3, r0, [r5, #8]
    305a:	6085      	str	r5, [r0, #8]
    305c:	4630      	mov	r0, r6
    305e:	60dd      	str	r5, [r3, #12]
    3060:	e8bd 40f8 	ldmia.w	sp!, {r3, r4, r5, r6, r7, lr}
    3064:	f7ff ba2a 	b.w	24bc <__malloc_unlock>
    3068:	18c2      	adds	r2, r0, r3
    306a:	6852      	ldr	r2, [r2, #4]
    306c:	07d2      	lsls	r2, r2, #31
    306e:	d463      	bmi.n	3138 <_free_r+0x1e8>
    3070:	440b      	add	r3, r1
    3072:	e9d0 1202 	ldrd	r1, r2, [r0, #8]
    3076:	60ca      	str	r2, [r1, #12]
    3078:	6091      	str	r1, [r2, #8]
    307a:	f043 0201 	orr.w	r2, r3, #1
    307e:	606a      	str	r2, [r5, #4]
    3080:	4630      	mov	r0, r6
    3082:	50eb      	str	r3, [r5, r3]
    3084:	e8bd 40f8 	ldmia.w	sp!, {r3, r4, r5, r6, r7, lr}
    3088:	f7ff ba18 	b.w	24bc <__malloc_unlock>
    308c:	440b      	add	r3, r1
    308e:	07d1      	lsls	r1, r2, #31
    3090:	d407      	bmi.n	30a2 <_free_r+0x152>
    3092:	f854 2c08 	ldr.w	r2, [r4, #-8]
    3096:	1aad      	subs	r5, r5, r2
    3098:	4413      	add	r3, r2
    309a:	e9d5 1202 	ldrd	r1, r2, [r5, #8]
    309e:	60ca      	str	r2, [r1, #12]
    30a0:	6091      	str	r1, [r2, #8]
    30a2:	f043 0201 	orr.w	r2, r3, #1
    30a6:	606a      	str	r2, [r5, #4]
    30a8:	4a27      	ldr	r2, [pc, #156]	; (3148 <_free_r+0x1f8>)
    30aa:	60bd      	str	r5, [r7, #8]
    30ac:	6812      	ldr	r2, [r2, #0]
    30ae:	429a      	cmp	r2, r3
    30b0:	d898      	bhi.n	2fe4 <_free_r+0x94>
    30b2:	4b26      	ldr	r3, [pc, #152]	; (314c <_free_r+0x1fc>)
    30b4:	4630      	mov	r0, r6
    30b6:	6819      	ldr	r1, [r3, #0]
    30b8:	f7ff fefa 	bl	2eb0 <_malloc_trim_r>
    30bc:	e792      	b.n	2fe4 <_free_r+0x94>
    30be:	2b14      	cmp	r3, #20
    30c0:	d90a      	bls.n	30d8 <_free_r+0x188>
    30c2:	2b54      	cmp	r3, #84	; 0x54
    30c4:	d81f      	bhi.n	3106 <_free_r+0x1b6>
    30c6:	0b0b      	lsrs	r3, r1, #12
    30c8:	f103 006f 	add.w	r0, r3, #111	; 0x6f
    30cc:	f103 026e 	add.w	r2, r3, #110	; 0x6e
    30d0:	00c3      	lsls	r3, r0, #3
    30d2:	e7b2      	b.n	303a <_free_r+0xea>
    30d4:	4419      	add	r1, r3
    30d6:	e791      	b.n	2ffc <_free_r+0xac>
    30d8:	f103 005c 	add.w	r0, r3, #92	; 0x5c
    30dc:	f103 025b 	add.w	r2, r3, #91	; 0x5b
    30e0:	00c3      	lsls	r3, r0, #3
    30e2:	e7aa      	b.n	303a <_free_r+0xea>
    30e4:	f041 0301 	orr.w	r3, r1, #1
    30e8:	e9c7 5504 	strd	r5, r5, [r7, #16]
    30ec:	e9c5 4402 	strd	r4, r4, [r5, #8]
    30f0:	606b      	str	r3, [r5, #4]
    30f2:	5069      	str	r1, [r5, r1]
    30f4:	e776      	b.n	2fe4 <_free_r+0x94>
    30f6:	2101      	movs	r1, #1
    30f8:	1092      	asrs	r2, r2, #2
    30fa:	fa01 f202 	lsl.w	r2, r1, r2
    30fe:	6879      	ldr	r1, [r7, #4]
    3100:	430a      	orrs	r2, r1
    3102:	607a      	str	r2, [r7, #4]
    3104:	e7a7      	b.n	3056 <_free_r+0x106>
    3106:	f5b3 7faa 	cmp.w	r3, #340	; 0x154
    310a:	d806      	bhi.n	311a <_free_r+0x1ca>
    310c:	0bcb      	lsrs	r3, r1, #15
    310e:	f103 0078 	add.w	r0, r3, #120	; 0x78
    3112:	f103 0277 	add.w	r2, r3, #119	; 0x77
    3116:	00c3      	lsls	r3, r0, #3
    3118:	e78f      	b.n	303a <_free_r+0xea>
    311a:	f240 5254 	movw	r2, #1364	; 0x554
    311e:	4293      	cmp	r3, r2
    3120:	d806      	bhi.n	3130 <_free_r+0x1e0>
    3122:	0c8b      	lsrs	r3, r1, #18
    3124:	f103 007d 	add.w	r0, r3, #125	; 0x7d
    3128:	f103 027c 	add.w	r2, r3, #124	; 0x7c
    312c:	00c3      	lsls	r3, r0, #3
    312e:	e784      	b.n	303a <_free_r+0xea>
    3130:	f44f 737e 	mov.w	r3, #1016	; 0x3f8
    3134:	227e      	movs	r2, #126	; 0x7e
    3136:	e780      	b.n	303a <_free_r+0xea>
    3138:	f041 0301 	orr.w	r3, r1, #1
    313c:	606b      	str	r3, [r5, #4]
    313e:	6001      	str	r1, [r0, #0]
    3140:	e750      	b.n	2fe4 <_free_r+0x94>
    3142:	bf00      	nop
    3144:	2000054c 	.word	0x2000054c
    3148:	20000958 	.word	0x20000958
    314c:	200009e4 	.word	0x200009e4

00003150 <_lseek_r>:
    3150:	b538      	push	{r3, r4, r5, lr}
    3152:	460c      	mov	r4, r1
    3154:	4611      	mov	r1, r2
    3156:	2200      	movs	r2, #0
    3158:	4684      	mov	ip, r0
    315a:	4d07      	ldr	r5, [pc, #28]	; (3178 <_lseek_r+0x28>)
    315c:	4620      	mov	r0, r4
    315e:	602a      	str	r2, [r5, #0]
    3160:	461a      	mov	r2, r3
    3162:	4664      	mov	r4, ip
    3164:	f000 f9be 	bl	34e4 <_lseek>
    3168:	1c43      	adds	r3, r0, #1
    316a:	d000      	beq.n	316e <_lseek_r+0x1e>
    316c:	bd38      	pop	{r3, r4, r5, pc}
    316e:	682b      	ldr	r3, [r5, #0]
    3170:	2b00      	cmp	r3, #0
    3172:	d0fb      	beq.n	316c <_lseek_r+0x1c>
    3174:	6023      	str	r3, [r4, #0]
    3176:	bd38      	pop	{r3, r4, r5, pc}
    3178:	200009e8 	.word	0x200009e8

0000317c <__smakebuf_r>:
    317c:	e92d 41f0 	stmdb	sp!, {r4, r5, r6, r7, r8, lr}
    3180:	898b      	ldrh	r3, [r1, #12]
    3182:	460c      	mov	r4, r1
    3184:	0799      	lsls	r1, r3, #30
    3186:	b096      	sub	sp, #88	; 0x58
    3188:	d508      	bpl.n	319c <__smakebuf_r+0x20>
    318a:	2201      	movs	r2, #1
    318c:	f104 0343 	add.w	r3, r4, #67	; 0x43
    3190:	e9c4 3204 	strd	r3, r2, [r4, #16]
    3194:	6023      	str	r3, [r4, #0]
    3196:	b016      	add	sp, #88	; 0x58
    3198:	e8bd 81f0 	ldmia.w	sp!, {r4, r5, r6, r7, r8, pc}
    319c:	f9b4 100e 	ldrsh.w	r1, [r4, #14]
    31a0:	4606      	mov	r6, r0
    31a2:	2900      	cmp	r1, #0
    31a4:	db27      	blt.n	31f6 <__smakebuf_r+0x7a>
    31a6:	466a      	mov	r2, sp
    31a8:	f000 f89e 	bl	32e8 <_fstat_r>
    31ac:	2800      	cmp	r0, #0
    31ae:	db21      	blt.n	31f4 <__smakebuf_r+0x78>
    31b0:	9d01      	ldr	r5, [sp, #4]
    31b2:	f44f 6880 	mov.w	r8, #1024	; 0x400
    31b6:	f405 4570 	and.w	r5, r5, #61440	; 0xf000
    31ba:	f5a5 5500 	sub.w	r5, r5, #8192	; 0x2000
    31be:	fab5 f585 	clz	r5, r5
    31c2:	f44f 6700 	mov.w	r7, #2048	; 0x800
    31c6:	096d      	lsrs	r5, r5, #5
    31c8:	4641      	mov	r1, r8
    31ca:	4630      	mov	r0, r6
    31cc:	f7fe fe00 	bl	1dd0 <_malloc_r>
    31d0:	f9b4 300c 	ldrsh.w	r3, [r4, #12]
    31d4:	b1f0      	cbz	r0, 3214 <__smakebuf_r+0x98>
    31d6:	4a20      	ldr	r2, [pc, #128]	; (3258 <__smakebuf_r+0xdc>)
    31d8:	f043 0380 	orr.w	r3, r3, #128	; 0x80
    31dc:	63f2      	str	r2, [r6, #60]	; 0x3c
    31de:	f8c4 8014 	str.w	r8, [r4, #20]
    31e2:	81a3      	strh	r3, [r4, #12]
    31e4:	6020      	str	r0, [r4, #0]
    31e6:	6120      	str	r0, [r4, #16]
    31e8:	bb35      	cbnz	r5, 3238 <__smakebuf_r+0xbc>
    31ea:	433b      	orrs	r3, r7
    31ec:	81a3      	strh	r3, [r4, #12]
    31ee:	b016      	add	sp, #88	; 0x58
    31f0:	e8bd 81f0 	ldmia.w	sp!, {r4, r5, r6, r7, r8, pc}
    31f4:	89a3      	ldrh	r3, [r4, #12]
    31f6:	f013 0580 	ands.w	r5, r3, #128	; 0x80
    31fa:	d019      	beq.n	3230 <__smakebuf_r+0xb4>
    31fc:	f04f 0840 	mov.w	r8, #64	; 0x40
    3200:	4630      	mov	r0, r6
    3202:	4641      	mov	r1, r8
    3204:	2500      	movs	r5, #0
    3206:	f7fe fde3 	bl	1dd0 <_malloc_r>
    320a:	462f      	mov	r7, r5
    320c:	f9b4 300c 	ldrsh.w	r3, [r4, #12]
    3210:	2800      	cmp	r0, #0
    3212:	d1e0      	bne.n	31d6 <__smakebuf_r+0x5a>
    3214:	059a      	lsls	r2, r3, #22
    3216:	d4be      	bmi.n	3196 <__smakebuf_r+0x1a>
    3218:	2101      	movs	r1, #1
    321a:	f023 0303 	bic.w	r3, r3, #3
    321e:	f104 0243 	add.w	r2, r4, #67	; 0x43
    3222:	f043 0302 	orr.w	r3, r3, #2
    3226:	e9c4 2104 	strd	r2, r1, [r4, #16]
    322a:	81a3      	strh	r3, [r4, #12]
    322c:	6022      	str	r2, [r4, #0]
    322e:	e7b2      	b.n	3196 <__smakebuf_r+0x1a>
    3230:	f44f 6880 	mov.w	r8, #1024	; 0x400
    3234:	462f      	mov	r7, r5
    3236:	e7c7      	b.n	31c8 <__smakebuf_r+0x4c>
    3238:	4630      	mov	r0, r6
    323a:	f9b4 100e 	ldrsh.w	r1, [r4, #14]
    323e:	f000 f867 	bl	3310 <_isatty_r>
    3242:	b910      	cbnz	r0, 324a <__smakebuf_r+0xce>
    3244:	f9b4 300c 	ldrsh.w	r3, [r4, #12]
    3248:	e7cf      	b.n	31ea <__smakebuf_r+0x6e>
    324a:	89a3      	ldrh	r3, [r4, #12]
    324c:	f023 0303 	bic.w	r3, r3, #3
    3250:	f043 0301 	orr.w	r3, r3, #1
    3254:	b21b      	sxth	r3, r3
    3256:	e7c8      	b.n	31ea <__smakebuf_r+0x6e>
    3258:	00001731 	.word	0x00001731

0000325c <__swhatbuf_r>:
    325c:	b570      	push	{r4, r5, r6, lr}
    325e:	460c      	mov	r4, r1
    3260:	f9b1 100e 	ldrsh.w	r1, [r1, #14]
    3264:	4615      	mov	r5, r2
    3266:	2900      	cmp	r1, #0
    3268:	461e      	mov	r6, r3
    326a:	b096      	sub	sp, #88	; 0x58
    326c:	db14      	blt.n	3298 <__swhatbuf_r+0x3c>
    326e:	466a      	mov	r2, sp
    3270:	f000 f83a 	bl	32e8 <_fstat_r>
    3274:	2800      	cmp	r0, #0
    3276:	db0f      	blt.n	3298 <__swhatbuf_r+0x3c>
    3278:	9a01      	ldr	r2, [sp, #4]
    327a:	f44f 6380 	mov.w	r3, #1024	; 0x400
    327e:	f402 4270 	and.w	r2, r2, #61440	; 0xf000
    3282:	f5a2 5200 	sub.w	r2, r2, #8192	; 0x2000
    3286:	fab2 f282 	clz	r2, r2
    328a:	f44f 6000 	mov.w	r0, #2048	; 0x800
    328e:	0952      	lsrs	r2, r2, #5
    3290:	6032      	str	r2, [r6, #0]
    3292:	602b      	str	r3, [r5, #0]
    3294:	b016      	add	sp, #88	; 0x58
    3296:	bd70      	pop	{r4, r5, r6, pc}
    3298:	2300      	movs	r3, #0
    329a:	f9b4 100c 	ldrsh.w	r1, [r4, #12]
    329e:	6033      	str	r3, [r6, #0]
    32a0:	f011 0080 	ands.w	r0, r1, #128	; 0x80
    32a4:	d004      	beq.n	32b0 <__swhatbuf_r+0x54>
    32a6:	2240      	movs	r2, #64	; 0x40
    32a8:	4618      	mov	r0, r3
    32aa:	602a      	str	r2, [r5, #0]
    32ac:	b016      	add	sp, #88	; 0x58
    32ae:	bd70      	pop	{r4, r5, r6, pc}
    32b0:	f44f 6380 	mov.w	r3, #1024	; 0x400
    32b4:	602b      	str	r3, [r5, #0]
    32b6:	b016      	add	sp, #88	; 0x58
    32b8:	bd70      	pop	{r4, r5, r6, pc}
    32ba:	bf00      	nop

000032bc <_read_r>:
    32bc:	b538      	push	{r3, r4, r5, lr}
    32be:	460c      	mov	r4, r1
    32c0:	4611      	mov	r1, r2
    32c2:	2200      	movs	r2, #0
    32c4:	4684      	mov	ip, r0
    32c6:	4d07      	ldr	r5, [pc, #28]	; (32e4 <_read_r+0x28>)
    32c8:	4620      	mov	r0, r4
    32ca:	602a      	str	r2, [r5, #0]
    32cc:	461a      	mov	r2, r3
    32ce:	4664      	mov	r4, ip
    32d0:	f000 f84e 	bl	3370 <_read>
    32d4:	1c43      	adds	r3, r0, #1
    32d6:	d000      	beq.n	32da <_read_r+0x1e>
    32d8:	bd38      	pop	{r3, r4, r5, pc}
    32da:	682b      	ldr	r3, [r5, #0]
    32dc:	2b00      	cmp	r3, #0
    32de:	d0fb      	beq.n	32d8 <_read_r+0x1c>
    32e0:	6023      	str	r3, [r4, #0]
    32e2:	bd38      	pop	{r3, r4, r5, pc}
    32e4:	200009e8 	.word	0x200009e8

000032e8 <_fstat_r>:
    32e8:	b570      	push	{r4, r5, r6, lr}
    32ea:	2600      	movs	r6, #0
    32ec:	4d07      	ldr	r5, [pc, #28]	; (330c <_fstat_r+0x24>)
    32ee:	4604      	mov	r4, r0
    32f0:	4608      	mov	r0, r1
    32f2:	4611      	mov	r1, r2
    32f4:	602e      	str	r6, [r5, #0]
    32f6:	f000 fa43 	bl	3780 <_fstat>
    32fa:	1c43      	adds	r3, r0, #1
    32fc:	d000      	beq.n	3300 <_fstat_r+0x18>
    32fe:	bd70      	pop	{r4, r5, r6, pc}
    3300:	682b      	ldr	r3, [r5, #0]
    3302:	2b00      	cmp	r3, #0
    3304:	d0fb      	beq.n	32fe <_fstat_r+0x16>
    3306:	6023      	str	r3, [r4, #0]
    3308:	bd70      	pop	{r4, r5, r6, pc}
    330a:	bf00      	nop
    330c:	200009e8 	.word	0x200009e8

00003310 <_isatty_r>:
    3310:	2200      	movs	r2, #0
    3312:	b538      	push	{r3, r4, r5, lr}
    3314:	4d06      	ldr	r5, [pc, #24]	; (3330 <_isatty_r+0x20>)
    3316:	4604      	mov	r4, r0
    3318:	4608      	mov	r0, r1
    331a:	602a      	str	r2, [r5, #0]
    331c:	f000 fca0 	bl	3c60 <_isatty>
    3320:	1c43      	adds	r3, r0, #1
    3322:	d000      	beq.n	3326 <_isatty_r+0x16>
    3324:	bd38      	pop	{r3, r4, r5, pc}
    3326:	682b      	ldr	r3, [r5, #0]
    3328:	2b00      	cmp	r3, #0
    332a:	d0fb      	beq.n	3324 <_isatty_r+0x14>
    332c:	6023      	str	r3, [r4, #0]
    332e:	bd38      	pop	{r3, r4, r5, pc}
    3330:	200009e8 	.word	0x200009e8

00003334 <_swiread>:
    3334:	b5f0      	push	{r4, r5, r6, r7, lr}
    3336:	b085      	sub	sp, #20
    3338:	2406      	movs	r4, #6
    333a:	e9cd 0101 	strd	r0, r1, [sp, #4]
    333e:	ad01      	add	r5, sp, #4
    3340:	9203      	str	r2, [sp, #12]
    3342:	4620      	mov	r0, r4
    3344:	4629      	mov	r1, r5
    3346:	beab      	bkpt	0x00ab
    3348:	4604      	mov	r4, r0
    334a:	1c63      	adds	r3, r4, #1
    334c:	d002      	beq.n	3354 <_swiread+0x20>
    334e:	4620      	mov	r0, r4
    3350:	b005      	add	sp, #20
    3352:	bdf0      	pop	{r4, r5, r6, r7, pc}
    3354:	f000 fd36 	bl	3dc4 <__errno>
    3358:	2613      	movs	r6, #19
    335a:	2700      	movs	r7, #0
    335c:	4605      	mov	r5, r0
    335e:	4630      	mov	r0, r6
    3360:	4639      	mov	r1, r7
    3362:	beab      	bkpt	0x00ab
    3364:	4606      	mov	r6, r0
    3366:	4620      	mov	r0, r4
    3368:	602e      	str	r6, [r5, #0]
    336a:	b005      	add	sp, #20
    336c:	bdf0      	pop	{r4, r5, r6, r7, pc}
    336e:	bf00      	nop

00003370 <_read>:
    3370:	e92d 41f0 	stmdb	sp!, {r4, r5, r6, r7, r8, lr}
    3374:	4b20      	ldr	r3, [pc, #128]	; (33f8 <_read+0x88>)
    3376:	4607      	mov	r7, r0
    3378:	681b      	ldr	r3, [r3, #0]
    337a:	460d      	mov	r5, r1
    337c:	4616      	mov	r6, r2
    337e:	b084      	sub	sp, #16
    3380:	b10b      	cbz	r3, 3386 <_read+0x16>
    3382:	6b9a      	ldr	r2, [r3, #56]	; 0x38
    3384:	b1ea      	cbz	r2, 33c2 <_read+0x52>
    3386:	2f13      	cmp	r7, #19
    3388:	d820      	bhi.n	33cc <_read+0x5c>
    338a:	f8df 8070 	ldr.w	r8, [pc, #112]	; 33fc <_read+0x8c>
    338e:	f858 3037 	ldr.w	r3, [r8, r7, lsl #3]
    3392:	1c5a      	adds	r2, r3, #1
    3394:	d01a      	beq.n	33cc <_read+0x5c>
    3396:	e9cd 5602 	strd	r5, r6, [sp, #8]
    339a:	2406      	movs	r4, #6
    339c:	9301      	str	r3, [sp, #4]
    339e:	ad01      	add	r5, sp, #4
    33a0:	4620      	mov	r0, r4
    33a2:	4629      	mov	r1, r5
    33a4:	beab      	bkpt	0x00ab
    33a6:	4604      	mov	r4, r0
    33a8:	1c63      	adds	r3, r4, #1
    33aa:	d016      	beq.n	33da <_read+0x6a>
    33ac:	eb08 00c7 	add.w	r0, r8, r7, lsl #3
    33b0:	6843      	ldr	r3, [r0, #4]
    33b2:	1b32      	subs	r2, r6, r4
    33b4:	4614      	mov	r4, r2
    33b6:	441a      	add	r2, r3
    33b8:	6042      	str	r2, [r0, #4]
    33ba:	4620      	mov	r0, r4
    33bc:	b004      	add	sp, #16
    33be:	e8bd 81f0 	ldmia.w	sp!, {r4, r5, r6, r7, r8, pc}
    33c2:	4618      	mov	r0, r3
    33c4:	f7fe f9f8 	bl	17b8 <__sinit>
    33c8:	2f13      	cmp	r7, #19
    33ca:	d9de      	bls.n	338a <_read+0x1a>
    33cc:	f000 fcfa 	bl	3dc4 <__errno>
    33d0:	2309      	movs	r3, #9
    33d2:	f04f 34ff 	mov.w	r4, #4294967295	; 0xffffffff
    33d6:	6003      	str	r3, [r0, #0]
    33d8:	e7ef      	b.n	33ba <_read+0x4a>
    33da:	f000 fcf3 	bl	3dc4 <__errno>
    33de:	2613      	movs	r6, #19
    33e0:	2700      	movs	r7, #0
    33e2:	4605      	mov	r5, r0
    33e4:	4630      	mov	r0, r6
    33e6:	4639      	mov	r1, r7
    33e8:	beab      	bkpt	0x00ab
    33ea:	4606      	mov	r6, r0
    33ec:	4620      	mov	r0, r4
    33ee:	602e      	str	r6, [r5, #0]
    33f0:	b004      	add	sp, #16
    33f2:	e8bd 81f0 	ldmia.w	sp!, {r4, r5, r6, r7, r8, pc}
    33f6:	bf00      	nop
    33f8:	2000011c 	.word	0x2000011c
    33fc:	200009fc 	.word	0x200009fc

00003400 <_swilseek>:
    3400:	e92d 43f0 	stmdb	sp!, {r4, r5, r6, r7, r8, r9, lr}
    3404:	4b35      	ldr	r3, [pc, #212]	; (34dc <_swilseek+0xdc>)
    3406:	4605      	mov	r5, r0
    3408:	681b      	ldr	r3, [r3, #0]
    340a:	4688      	mov	r8, r1
    340c:	4614      	mov	r4, r2
    340e:	b083      	sub	sp, #12
    3410:	b10b      	cbz	r3, 3416 <_swilseek+0x16>
    3412:	6b9a      	ldr	r2, [r3, #56]	; 0x38
    3414:	b312      	cbz	r2, 345c <_swilseek+0x5c>
    3416:	2d13      	cmp	r5, #19
    3418:	d825      	bhi.n	3466 <_swilseek+0x66>
    341a:	4e31      	ldr	r6, [pc, #196]	; (34e0 <_swilseek+0xe0>)
    341c:	f856 3035 	ldr.w	r3, [r6, r5, lsl #3]
    3420:	1c59      	adds	r1, r3, #1
    3422:	d020      	beq.n	3466 <_swilseek+0x66>
    3424:	2c02      	cmp	r4, #2
    3426:	d838      	bhi.n	349a <_swilseek+0x9a>
    3428:	2c01      	cmp	r4, #1
    342a:	d030      	beq.n	348e <_swilseek+0x8e>
    342c:	2c02      	cmp	r4, #2
    342e:	d021      	beq.n	3474 <_swilseek+0x74>
    3430:	4644      	mov	r4, r8
    3432:	46e9      	mov	r9, sp
    3434:	270a      	movs	r7, #10
    3436:	9300      	str	r3, [sp, #0]
    3438:	9401      	str	r4, [sp, #4]
    343a:	4638      	mov	r0, r7
    343c:	4649      	mov	r1, r9
    343e:	beab      	bkpt	0x00ab
    3440:	4607      	mov	r7, r0
    3442:	1c7b      	adds	r3, r7, #1
    3444:	d030      	beq.n	34a8 <_swilseek+0xa8>
    3446:	2f00      	cmp	r7, #0
    3448:	bfb2      	itee	lt
    344a:	f04f 34ff 	movlt.w	r4, #4294967295	; 0xffffffff
    344e:	eb06 05c5 	addge.w	r5, r6, r5, lsl #3
    3452:	606c      	strge	r4, [r5, #4]
    3454:	4620      	mov	r0, r4
    3456:	b003      	add	sp, #12
    3458:	e8bd 83f0 	ldmia.w	sp!, {r4, r5, r6, r7, r8, r9, pc}
    345c:	4618      	mov	r0, r3
    345e:	f7fe f9ab 	bl	17b8 <__sinit>
    3462:	2d13      	cmp	r5, #19
    3464:	d9d9      	bls.n	341a <_swilseek+0x1a>
    3466:	f000 fcad 	bl	3dc4 <__errno>
    346a:	2309      	movs	r3, #9
    346c:	f04f 34ff 	mov.w	r4, #4294967295	; 0xffffffff
    3470:	6003      	str	r3, [r0, #0]
    3472:	e7ef      	b.n	3454 <_swilseek+0x54>
    3474:	240c      	movs	r4, #12
    3476:	46e9      	mov	r9, sp
    3478:	9300      	str	r3, [sp, #0]
    347a:	4620      	mov	r0, r4
    347c:	4649      	mov	r1, r9
    347e:	beab      	bkpt	0x00ab
    3480:	4604      	mov	r4, r0
    3482:	1c62      	adds	r2, r4, #1
    3484:	d01f      	beq.n	34c6 <_swilseek+0xc6>
    3486:	f856 3035 	ldr.w	r3, [r6, r5, lsl #3]
    348a:	4444      	add	r4, r8
    348c:	e7d2      	b.n	3434 <_swilseek+0x34>
    348e:	eb06 02c5 	add.w	r2, r6, r5, lsl #3
    3492:	6854      	ldr	r4, [r2, #4]
    3494:	eb18 0404 	adds.w	r4, r8, r4
    3498:	d5cb      	bpl.n	3432 <_swilseek+0x32>
    349a:	f000 fc93 	bl	3dc4 <__errno>
    349e:	2316      	movs	r3, #22
    34a0:	f04f 34ff 	mov.w	r4, #4294967295	; 0xffffffff
    34a4:	6003      	str	r3, [r0, #0]
    34a6:	e7d5      	b.n	3454 <_swilseek+0x54>
    34a8:	f000 fc8c 	bl	3dc4 <__errno>
    34ac:	2413      	movs	r4, #19
    34ae:	2600      	movs	r6, #0
    34b0:	4605      	mov	r5, r0
    34b2:	4620      	mov	r0, r4
    34b4:	4631      	mov	r1, r6
    34b6:	beab      	bkpt	0x00ab
    34b8:	4606      	mov	r6, r0
    34ba:	463c      	mov	r4, r7
    34bc:	4620      	mov	r0, r4
    34be:	602e      	str	r6, [r5, #0]
    34c0:	b003      	add	sp, #12
    34c2:	e8bd 83f0 	ldmia.w	sp!, {r4, r5, r6, r7, r8, r9, pc}
    34c6:	f000 fc7d 	bl	3dc4 <__errno>
    34ca:	2613      	movs	r6, #19
    34cc:	2700      	movs	r7, #0
    34ce:	4605      	mov	r5, r0
    34d0:	4630      	mov	r0, r6
    34d2:	4639      	mov	r1, r7
    34d4:	beab      	bkpt	0x00ab
    34d6:	4606      	mov	r6, r0
    34d8:	602e      	str	r6, [r5, #0]
    34da:	e7bb      	b.n	3454 <_swilseek+0x54>
    34dc:	2000011c 	.word	0x2000011c
    34e0:	200009fc 	.word	0x200009fc

000034e4 <_lseek>:
    34e4:	f7ff bf8c 	b.w	3400 <_swilseek>

000034e8 <_swiwrite>:
    34e8:	b5f0      	push	{r4, r5, r6, r7, lr}
    34ea:	b085      	sub	sp, #20
    34ec:	2405      	movs	r4, #5
    34ee:	e9cd 0101 	strd	r0, r1, [sp, #4]
    34f2:	ad01      	add	r5, sp, #4
    34f4:	9203      	str	r2, [sp, #12]
    34f6:	4620      	mov	r0, r4
    34f8:	4629      	mov	r1, r5
    34fa:	beab      	bkpt	0x00ab
    34fc:	4604      	mov	r4, r0
    34fe:	1c63      	adds	r3, r4, #1
    3500:	d002      	beq.n	3508 <_swiwrite+0x20>
    3502:	4620      	mov	r0, r4
    3504:	b005      	add	sp, #20
    3506:	bdf0      	pop	{r4, r5, r6, r7, pc}
    3508:	f000 fc5c 	bl	3dc4 <__errno>
    350c:	2613      	movs	r6, #19
    350e:	2700      	movs	r7, #0
    3510:	4605      	mov	r5, r0
    3512:	4630      	mov	r0, r6
    3514:	4639      	mov	r1, r7
    3516:	beab      	bkpt	0x00ab
    3518:	4606      	mov	r6, r0
    351a:	4620      	mov	r0, r4
    351c:	602e      	str	r6, [r5, #0]
    351e:	b005      	add	sp, #20
    3520:	bdf0      	pop	{r4, r5, r6, r7, pc}
    3522:	bf00      	nop

00003524 <_write>:
    3524:	e92d 41f0 	stmdb	sp!, {r4, r5, r6, r7, r8, lr}
    3528:	4b2b      	ldr	r3, [pc, #172]	; (35d8 <_write+0xb4>)
    352a:	4607      	mov	r7, r0
    352c:	681b      	ldr	r3, [r3, #0]
    352e:	460d      	mov	r5, r1
    3530:	4616      	mov	r6, r2
    3532:	b084      	sub	sp, #16
    3534:	b10b      	cbz	r3, 353a <_write+0x16>
    3536:	6b9a      	ldr	r2, [r3, #56]	; 0x38
    3538:	b312      	cbz	r2, 3580 <_write+0x5c>
    353a:	2f13      	cmp	r7, #19
    353c:	d825      	bhi.n	358a <_write+0x66>
    353e:	f8df 809c 	ldr.w	r8, [pc, #156]	; 35dc <_write+0xb8>
    3542:	f858 3037 	ldr.w	r3, [r8, r7, lsl #3]
    3546:	1c5a      	adds	r2, r3, #1
    3548:	d01f      	beq.n	358a <_write+0x66>
    354a:	e9cd 5602 	strd	r5, r6, [sp, #8]
    354e:	2405      	movs	r4, #5
    3550:	9301      	str	r3, [sp, #4]
    3552:	ad01      	add	r5, sp, #4
    3554:	4620      	mov	r0, r4
    3556:	4629      	mov	r1, r5
    3558:	beab      	bkpt	0x00ab
    355a:	4604      	mov	r4, r0
    355c:	1c63      	adds	r3, r4, #1
    355e:	d01b      	beq.n	3598 <_write+0x74>
    3560:	2c00      	cmp	r4, #0
    3562:	db35      	blt.n	35d0 <_write+0xac>
    3564:	eb08 00c7 	add.w	r0, r8, r7, lsl #3
    3568:	6843      	ldr	r3, [r0, #4]
    356a:	1b32      	subs	r2, r6, r4
    356c:	4413      	add	r3, r2
    356e:	42b4      	cmp	r4, r6
    3570:	bf18      	it	ne
    3572:	4614      	movne	r4, r2
    3574:	6043      	str	r3, [r0, #4]
    3576:	d01d      	beq.n	35b4 <_write+0x90>
    3578:	4620      	mov	r0, r4
    357a:	b004      	add	sp, #16
    357c:	e8bd 81f0 	ldmia.w	sp!, {r4, r5, r6, r7, r8, pc}
    3580:	4618      	mov	r0, r3
    3582:	f7fe f919 	bl	17b8 <__sinit>
    3586:	2f13      	cmp	r7, #19
    3588:	d9d9      	bls.n	353e <_write+0x1a>
    358a:	f000 fc1b 	bl	3dc4 <__errno>
    358e:	2309      	movs	r3, #9
    3590:	f04f 34ff 	mov.w	r4, #4294967295	; 0xffffffff
    3594:	6003      	str	r3, [r0, #0]
    3596:	e7ef      	b.n	3578 <_write+0x54>
    3598:	f000 fc14 	bl	3dc4 <__errno>
    359c:	2613      	movs	r6, #19
    359e:	2700      	movs	r7, #0
    35a0:	4605      	mov	r5, r0
    35a2:	4630      	mov	r0, r6
    35a4:	4639      	mov	r1, r7
    35a6:	beab      	bkpt	0x00ab
    35a8:	4606      	mov	r6, r0
    35aa:	4620      	mov	r0, r4
    35ac:	602e      	str	r6, [r5, #0]
    35ae:	b004      	add	sp, #16
    35b0:	e8bd 81f0 	ldmia.w	sp!, {r4, r5, r6, r7, r8, pc}
    35b4:	f000 fc06 	bl	3dc4 <__errno>
    35b8:	2613      	movs	r6, #19
    35ba:	2400      	movs	r4, #0
    35bc:	4605      	mov	r5, r0
    35be:	4630      	mov	r0, r6
    35c0:	4621      	mov	r1, r4
    35c2:	beab      	bkpt	0x00ab
    35c4:	4606      	mov	r6, r0
    35c6:	4620      	mov	r0, r4
    35c8:	602e      	str	r6, [r5, #0]
    35ca:	b004      	add	sp, #16
    35cc:	e8bd 81f0 	ldmia.w	sp!, {r4, r5, r6, r7, r8, pc}
    35d0:	f04f 34ff 	mov.w	r4, #4294967295	; 0xffffffff
    35d4:	e7d0      	b.n	3578 <_write+0x54>
    35d6:	bf00      	nop
    35d8:	2000011c 	.word	0x2000011c
    35dc:	200009fc 	.word	0x200009fc

000035e0 <_swiclose>:
    35e0:	b5f0      	push	{r4, r5, r6, r7, lr}
    35e2:	b083      	sub	sp, #12
    35e4:	2402      	movs	r4, #2
    35e6:	9001      	str	r0, [sp, #4]
    35e8:	ad01      	add	r5, sp, #4
    35ea:	4620      	mov	r0, r4
    35ec:	4629      	mov	r1, r5
    35ee:	beab      	bkpt	0x00ab
    35f0:	4604      	mov	r4, r0
    35f2:	1c63      	adds	r3, r4, #1
    35f4:	d002      	beq.n	35fc <_swiclose+0x1c>
    35f6:	4620      	mov	r0, r4
    35f8:	b003      	add	sp, #12
    35fa:	bdf0      	pop	{r4, r5, r6, r7, pc}
    35fc:	f000 fbe2 	bl	3dc4 <__errno>
    3600:	2613      	movs	r6, #19
    3602:	2700      	movs	r7, #0
    3604:	4605      	mov	r5, r0
    3606:	4630      	mov	r0, r6
    3608:	4639      	mov	r1, r7
    360a:	beab      	bkpt	0x00ab
    360c:	4606      	mov	r6, r0
    360e:	4620      	mov	r0, r4
    3610:	602e      	str	r6, [r5, #0]
    3612:	b003      	add	sp, #12
    3614:	bdf0      	pop	{r4, r5, r6, r7, pc}
    3616:	bf00      	nop

00003618 <_close>:
    3618:	b5f0      	push	{r4, r5, r6, r7, lr}
    361a:	4b23      	ldr	r3, [pc, #140]	; (36a8 <_close+0x90>)
    361c:	4605      	mov	r5, r0
    361e:	681b      	ldr	r3, [r3, #0]
    3620:	b083      	sub	sp, #12
    3622:	b10b      	cbz	r3, 3628 <_close+0x10>
    3624:	6b9a      	ldr	r2, [r3, #56]	; 0x38
    3626:	b1f2      	cbz	r2, 3666 <_close+0x4e>
    3628:	2d13      	cmp	r5, #19
    362a:	d821      	bhi.n	3670 <_close+0x58>
    362c:	4e1f      	ldr	r6, [pc, #124]	; (36ac <_close+0x94>)
    362e:	f856 3035 	ldr.w	r3, [r6, r5, lsl #3]
    3632:	1c5a      	adds	r2, r3, #1
    3634:	d01c      	beq.n	3670 <_close+0x58>
    3636:	1e6a      	subs	r2, r5, #1
    3638:	2a01      	cmp	r2, #1
    363a:	d803      	bhi.n	3644 <_close+0x2c>
    363c:	68b1      	ldr	r1, [r6, #8]
    363e:	6932      	ldr	r2, [r6, #16]
    3640:	4291      	cmp	r1, r2
    3642:	d01c      	beq.n	367e <_close+0x66>
    3644:	2402      	movs	r4, #2
    3646:	9301      	str	r3, [sp, #4]
    3648:	af01      	add	r7, sp, #4
    364a:	4620      	mov	r0, r4
    364c:	4639      	mov	r1, r7
    364e:	beab      	bkpt	0x00ab
    3650:	4604      	mov	r4, r0
    3652:	1c63      	adds	r3, r4, #1
    3654:	d01b      	beq.n	368e <_close+0x76>
    3656:	b91c      	cbnz	r4, 3660 <_close+0x48>
    3658:	f04f 33ff 	mov.w	r3, #4294967295	; 0xffffffff
    365c:	f846 3035 	str.w	r3, [r6, r5, lsl #3]
    3660:	4620      	mov	r0, r4
    3662:	b003      	add	sp, #12
    3664:	bdf0      	pop	{r4, r5, r6, r7, pc}
    3666:	4618      	mov	r0, r3
    3668:	f7fe f8a6 	bl	17b8 <__sinit>
    366c:	2d13      	cmp	r5, #19
    366e:	d9dd      	bls.n	362c <_close+0x14>
    3670:	f000 fba8 	bl	3dc4 <__errno>
    3674:	2309      	movs	r3, #9
    3676:	f04f 34ff 	mov.w	r4, #4294967295	; 0xffffffff
    367a:	6003      	str	r3, [r0, #0]
    367c:	e7f0      	b.n	3660 <_close+0x48>
    367e:	2400      	movs	r4, #0
    3680:	f04f 33ff 	mov.w	r3, #4294967295	; 0xffffffff
    3684:	4620      	mov	r0, r4
    3686:	f846 3035 	str.w	r3, [r6, r5, lsl #3]
    368a:	b003      	add	sp, #12
    368c:	bdf0      	pop	{r4, r5, r6, r7, pc}
    368e:	f000 fb99 	bl	3dc4 <__errno>
    3692:	2613      	movs	r6, #19
    3694:	2700      	movs	r7, #0
    3696:	4605      	mov	r5, r0
    3698:	4630      	mov	r0, r6
    369a:	4639      	mov	r1, r7
    369c:	beab      	bkpt	0x00ab
    369e:	4606      	mov	r6, r0
    36a0:	4620      	mov	r0, r4
    36a2:	602e      	str	r6, [r5, #0]
    36a4:	b003      	add	sp, #12
    36a6:	bdf0      	pop	{r4, r5, r6, r7, pc}
    36a8:	2000011c 	.word	0x2000011c
    36ac:	200009fc 	.word	0x200009fc

000036b0 <_getpid>:
    36b0:	2001      	movs	r0, #1
    36b2:	4770      	bx	lr

000036b4 <_sbrk>:
    36b4:	4a0e      	ldr	r2, [pc, #56]	; (36f0 <_sbrk+0x3c>)
    36b6:	4603      	mov	r3, r0
    36b8:	6810      	ldr	r0, [r2, #0]
    36ba:	b510      	push	{r4, lr}
    36bc:	b1a0      	cbz	r0, 36e8 <_sbrk+0x34>
    36be:	4669      	mov	r1, sp
    36c0:	4403      	add	r3, r0
    36c2:	428b      	cmp	r3, r1
    36c4:	d808      	bhi.n	36d8 <_sbrk+0x24>
    36c6:	490b      	ldr	r1, [pc, #44]	; (36f4 <_sbrk+0x40>)
    36c8:	4c0b      	ldr	r4, [pc, #44]	; (36f8 <_sbrk+0x44>)
    36ca:	6809      	ldr	r1, [r1, #0]
    36cc:	42a1      	cmp	r1, r4
    36ce:	d001      	beq.n	36d4 <_sbrk+0x20>
    36d0:	428b      	cmp	r3, r1
    36d2:	d801      	bhi.n	36d8 <_sbrk+0x24>
    36d4:	6013      	str	r3, [r2, #0]
    36d6:	bd10      	pop	{r4, pc}
    36d8:	f000 fb74 	bl	3dc4 <__errno>
    36dc:	220c      	movs	r2, #12
    36de:	4603      	mov	r3, r0
    36e0:	f04f 30ff 	mov.w	r0, #4294967295	; 0xffffffff
    36e4:	601a      	str	r2, [r3, #0]
    36e6:	bd10      	pop	{r4, pc}
    36e8:	4904      	ldr	r1, [pc, #16]	; (36fc <_sbrk+0x48>)
    36ea:	4608      	mov	r0, r1
    36ec:	6011      	str	r1, [r2, #0]
    36ee:	e7e6      	b.n	36be <_sbrk+0xa>
    36f0:	200009ec 	.word	0x200009ec
    36f4:	2000095c 	.word	0x2000095c
    36f8:	cafedead 	.word	0xcafedead
    36fc:	20000aa0 	.word	0x20000aa0

00003700 <_swistat>:
    3700:	b5f8      	push	{r3, r4, r5, r6, r7, lr}
    3702:	4b1d      	ldr	r3, [pc, #116]	; (3778 <_swistat+0x78>)
    3704:	4604      	mov	r4, r0
    3706:	681b      	ldr	r3, [r3, #0]
    3708:	460e      	mov	r6, r1
    370a:	b10b      	cbz	r3, 3710 <_swistat+0x10>
    370c:	6b9a      	ldr	r2, [r3, #56]	; 0x38
    370e:	b1d2      	cbz	r2, 3746 <_swistat+0x46>
    3710:	2c13      	cmp	r4, #19
    3712:	d81d      	bhi.n	3750 <_swistat+0x50>
    3714:	4819      	ldr	r0, [pc, #100]	; (377c <_swistat+0x7c>)
    3716:	f850 3034 	ldr.w	r3, [r0, r4, lsl #3]
    371a:	3301      	adds	r3, #1
    371c:	d018      	beq.n	3750 <_swistat+0x50>
    371e:	f44f 6280 	mov.w	r2, #1024	; 0x400
    3722:	6873      	ldr	r3, [r6, #4]
    3724:	250c      	movs	r5, #12
    3726:	f443 5300 	orr.w	r3, r3, #8192	; 0x2000
    372a:	eb00 04c4 	add.w	r4, r0, r4, lsl #3
    372e:	6073      	str	r3, [r6, #4]
    3730:	64b2      	str	r2, [r6, #72]	; 0x48
    3732:	4628      	mov	r0, r5
    3734:	4621      	mov	r1, r4
    3736:	beab      	bkpt	0x00ab
    3738:	4604      	mov	r4, r0
    373a:	1c63      	adds	r3, r4, #1
    373c:	d00f      	beq.n	375e <_swistat+0x5e>
    373e:	6134      	str	r4, [r6, #16]
    3740:	2400      	movs	r4, #0
    3742:	4620      	mov	r0, r4
    3744:	bdf8      	pop	{r3, r4, r5, r6, r7, pc}
    3746:	4618      	mov	r0, r3
    3748:	f7fe f836 	bl	17b8 <__sinit>
    374c:	2c13      	cmp	r4, #19
    374e:	d9e1      	bls.n	3714 <_swistat+0x14>
    3750:	f000 fb38 	bl	3dc4 <__errno>
    3754:	2309      	movs	r3, #9
    3756:	f04f 34ff 	mov.w	r4, #4294967295	; 0xffffffff
    375a:	6003      	str	r3, [r0, #0]
    375c:	e7f1      	b.n	3742 <_swistat+0x42>
    375e:	f000 fb31 	bl	3dc4 <__errno>
    3762:	2613      	movs	r6, #19
    3764:	2700      	movs	r7, #0
    3766:	4605      	mov	r5, r0
    3768:	4630      	mov	r0, r6
    376a:	4639      	mov	r1, r7
    376c:	beab      	bkpt	0x00ab
    376e:	4606      	mov	r6, r0
    3770:	4620      	mov	r0, r4
    3772:	602e      	str	r6, [r5, #0]
    3774:	bdf8      	pop	{r3, r4, r5, r6, r7, pc}
    3776:	bf00      	nop
    3778:	2000011c 	.word	0x2000011c
    377c:	200009fc 	.word	0x200009fc

00003780 <_fstat>:
    3780:	460b      	mov	r3, r1
    3782:	b510      	push	{r4, lr}
    3784:	2100      	movs	r1, #0
    3786:	4604      	mov	r4, r0
    3788:	2258      	movs	r2, #88	; 0x58
    378a:	4618      	mov	r0, r3
    378c:	f7fd fd2c 	bl	11e8 <memset>
    3790:	4601      	mov	r1, r0
    3792:	4620      	mov	r0, r4
    3794:	e8bd 4010 	ldmia.w	sp!, {r4, lr}
    3798:	f7ff bfb2 	b.w	3700 <_swistat>

0000379c <_stat>:
    379c:	b538      	push	{r3, r4, r5, lr}
    379e:	460c      	mov	r4, r1
    37a0:	4605      	mov	r5, r0
    37a2:	2258      	movs	r2, #88	; 0x58
    37a4:	2100      	movs	r1, #0
    37a6:	4620      	mov	r0, r4
    37a8:	f7fd fd1e 	bl	11e8 <memset>
    37ac:	4628      	mov	r0, r5
    37ae:	2100      	movs	r1, #0
    37b0:	f000 f812 	bl	37d8 <_swiopen>
    37b4:	1c43      	adds	r3, r0, #1
    37b6:	4605      	mov	r5, r0
    37b8:	d00b      	beq.n	37d2 <_stat+0x36>
    37ba:	6863      	ldr	r3, [r4, #4]
    37bc:	4621      	mov	r1, r4
    37be:	f443 4301 	orr.w	r3, r3, #33024	; 0x8100
    37c2:	6063      	str	r3, [r4, #4]
    37c4:	f7ff ff9c 	bl	3700 <_swistat>
    37c8:	4603      	mov	r3, r0
    37ca:	4628      	mov	r0, r5
    37cc:	461d      	mov	r5, r3
    37ce:	f7ff ff23 	bl	3618 <_close>
    37d2:	4628      	mov	r0, r5
    37d4:	bd38      	pop	{r3, r4, r5, pc}
    37d6:	bf00      	nop

000037d8 <_swiopen>:
    37d8:	e92d 41f0 	stmdb	sp!, {r4, r5, r6, r7, r8, lr}
    37dc:	4603      	mov	r3, r0
    37de:	2400      	movs	r4, #0
    37e0:	460f      	mov	r7, r1
    37e2:	4e2f      	ldr	r6, [pc, #188]	; (38a0 <_swiopen+0xc8>)
    37e4:	b098      	sub	sp, #96	; 0x60
    37e6:	e002      	b.n	37ee <_swiopen+0x16>
    37e8:	3401      	adds	r4, #1
    37ea:	2c14      	cmp	r4, #20
    37ec:	d051      	beq.n	3892 <_swiopen+0xba>
    37ee:	f856 5034 	ldr.w	r5, [r6, r4, lsl #3]
    37f2:	1c68      	adds	r0, r5, #1
    37f4:	d1f8      	bne.n	37e8 <_swiopen+0x10>
    37f6:	f407 6220 	and.w	r2, r7, #2560	; 0xa00
    37fa:	f5b2 6f20 	cmp.w	r2, #2560	; 0xa00
    37fe:	f10d 0808 	add.w	r8, sp, #8
    3802:	d038      	beq.n	3876 <_swiopen+0x9e>
    3804:	f240 6201 	movw	r2, #1537	; 0x601
    3808:	f3c7 4500 	ubfx	r5, r7, #16, #1
    380c:	07b9      	lsls	r1, r7, #30
    380e:	bf48      	it	mi
    3810:	f045 0502 	orrmi.w	r5, r5, #2
    3814:	4217      	tst	r7, r2
    3816:	bf18      	it	ne
    3818:	f045 0504 	orrne.w	r5, r5, #4
    381c:	073a      	lsls	r2, r7, #28
    381e:	bf48      	it	mi
    3820:	f025 0504 	bicmi.w	r5, r5, #4
    3824:	4618      	mov	r0, r3
    3826:	bf48      	it	mi
    3828:	f045 0508 	orrmi.w	r5, r5, #8
    382c:	9302      	str	r3, [sp, #8]
    382e:	f7fd fedf 	bl	15f0 <strlen>
    3832:	9503      	str	r5, [sp, #12]
    3834:	9004      	str	r0, [sp, #16]
    3836:	2501      	movs	r5, #1
    3838:	4628      	mov	r0, r5
    383a:	4641      	mov	r1, r8
    383c:	beab      	bkpt	0x00ab
    383e:	4605      	mov	r5, r0
    3840:	2d00      	cmp	r5, #0
    3842:	db09      	blt.n	3858 <_swiopen+0x80>
    3844:	2200      	movs	r2, #0
    3846:	eb06 03c4 	add.w	r3, r6, r4, lsl #3
    384a:	f846 5034 	str.w	r5, [r6, r4, lsl #3]
    384e:	605a      	str	r2, [r3, #4]
    3850:	4620      	mov	r0, r4
    3852:	b018      	add	sp, #96	; 0x60
    3854:	e8bd 81f0 	ldmia.w	sp!, {r4, r5, r6, r7, r8, pc}
    3858:	f000 fab4 	bl	3dc4 <__errno>
    385c:	2413      	movs	r4, #19
    385e:	2700      	movs	r7, #0
    3860:	4606      	mov	r6, r0
    3862:	4620      	mov	r0, r4
    3864:	4639      	mov	r1, r7
    3866:	beab      	bkpt	0x00ab
    3868:	4607      	mov	r7, r0
    386a:	462c      	mov	r4, r5
    386c:	4620      	mov	r0, r4
    386e:	6037      	str	r7, [r6, #0]
    3870:	b018      	add	sp, #96	; 0x60
    3872:	e8bd 81f0 	ldmia.w	sp!, {r4, r5, r6, r7, r8, pc}
    3876:	4618      	mov	r0, r3
    3878:	4641      	mov	r1, r8
    387a:	9301      	str	r3, [sp, #4]
    387c:	f7ff ff8e 	bl	379c <_stat>
    3880:	3001      	adds	r0, #1
    3882:	9b01      	ldr	r3, [sp, #4]
    3884:	d0be      	beq.n	3804 <_swiopen+0x2c>
    3886:	f000 fa9d 	bl	3dc4 <__errno>
    388a:	2311      	movs	r3, #17
    388c:	462c      	mov	r4, r5
    388e:	6003      	str	r3, [r0, #0]
    3890:	e7de      	b.n	3850 <_swiopen+0x78>
    3892:	f000 fa97 	bl	3dc4 <__errno>
    3896:	2318      	movs	r3, #24
    3898:	f04f 34ff 	mov.w	r4, #4294967295	; 0xffffffff
    389c:	6003      	str	r3, [r0, #0]
    389e:	e7d7      	b.n	3850 <_swiopen+0x78>
    38a0:	200009fc 	.word	0x200009fc

000038a4 <_open>:
    38a4:	b40e      	push	{r1, r2, r3}
    38a6:	b500      	push	{lr}
    38a8:	9901      	ldr	r1, [sp, #4]
    38aa:	f7ff ff95 	bl	37d8 <_swiopen>
    38ae:	f85d eb04 	ldr.w	lr, [sp], #4
    38b2:	b003      	add	sp, #12
    38b4:	4770      	bx	lr
    38b6:	bf00      	nop

000038b8 <_get_semihosting_exts>:
    38b8:	e92d 43f0 	stmdb	sp!, {r4, r5, r6, r7, r8, r9, lr}
    38bc:	4607      	mov	r7, r0
    38be:	4688      	mov	r8, r1
    38c0:	483e      	ldr	r0, [pc, #248]	; (39bc <_get_semihosting_exts+0x104>)
    38c2:	2100      	movs	r1, #0
    38c4:	b083      	sub	sp, #12
    38c6:	4616      	mov	r6, r2
    38c8:	f7ff ff86 	bl	37d8 <_swiopen>
    38cc:	4604      	mov	r4, r0
    38ce:	2100      	movs	r1, #0
    38d0:	4632      	mov	r2, r6
    38d2:	4638      	mov	r0, r7
    38d4:	f7fd fc88 	bl	11e8 <memset>
    38d8:	1c61      	adds	r1, r4, #1
    38da:	d045      	beq.n	3968 <_get_semihosting_exts+0xb0>
    38dc:	4b38      	ldr	r3, [pc, #224]	; (39c0 <_get_semihosting_exts+0x108>)
    38de:	6818      	ldr	r0, [r3, #0]
    38e0:	b110      	cbz	r0, 38e8 <_get_semihosting_exts+0x30>
    38e2:	6b83      	ldr	r3, [r0, #56]	; 0x38
    38e4:	2b00      	cmp	r3, #0
    38e6:	d043      	beq.n	3970 <_get_semihosting_exts+0xb8>
    38e8:	2c13      	cmp	r4, #19
    38ea:	d845      	bhi.n	3978 <_get_semihosting_exts+0xc0>
    38ec:	4d35      	ldr	r5, [pc, #212]	; (39c4 <_get_semihosting_exts+0x10c>)
    38ee:	f855 3034 	ldr.w	r3, [r5, r4, lsl #3]
    38f2:	3301      	adds	r3, #1
    38f4:	d040      	beq.n	3978 <_get_semihosting_exts+0xc0>
    38f6:	eb05 09c4 	add.w	r9, r5, r4, lsl #3
    38fa:	250c      	movs	r5, #12
    38fc:	4628      	mov	r0, r5
    38fe:	4649      	mov	r1, r9
    3900:	beab      	bkpt	0x00ab
    3902:	4605      	mov	r5, r0
    3904:	1c6a      	adds	r2, r5, #1
    3906:	d03a      	beq.n	397e <_get_semihosting_exts+0xc6>
    3908:	2d03      	cmp	r5, #3
    390a:	dd42      	ble.n	3992 <_get_semihosting_exts+0xda>
    390c:	3d03      	subs	r5, #3
    390e:	42b5      	cmp	r5, r6
    3910:	dd3f      	ble.n	3992 <_get_semihosting_exts+0xda>
    3912:	2204      	movs	r2, #4
    3914:	4620      	mov	r0, r4
    3916:	eb0d 0102 	add.w	r1, sp, r2
    391a:	f7ff fd29 	bl	3370 <_read>
    391e:	2803      	cmp	r0, #3
    3920:	dd37      	ble.n	3992 <_get_semihosting_exts+0xda>
    3922:	f89d 3004 	ldrb.w	r3, [sp, #4]
    3926:	2b53      	cmp	r3, #83	; 0x53
    3928:	d133      	bne.n	3992 <_get_semihosting_exts+0xda>
    392a:	f89d 3005 	ldrb.w	r3, [sp, #5]
    392e:	2b48      	cmp	r3, #72	; 0x48
    3930:	d12f      	bne.n	3992 <_get_semihosting_exts+0xda>
    3932:	f89d 3006 	ldrb.w	r3, [sp, #6]
    3936:	2b46      	cmp	r3, #70	; 0x46
    3938:	d12b      	bne.n	3992 <_get_semihosting_exts+0xda>
    393a:	f89d 3007 	ldrb.w	r3, [sp, #7]
    393e:	2b42      	cmp	r3, #66	; 0x42
    3940:	d127      	bne.n	3992 <_get_semihosting_exts+0xda>
    3942:	2201      	movs	r2, #1
    3944:	4641      	mov	r1, r8
    3946:	4620      	mov	r0, r4
    3948:	f7ff fd5a 	bl	3400 <_swilseek>
    394c:	2800      	cmp	r0, #0
    394e:	db20      	blt.n	3992 <_get_semihosting_exts+0xda>
    3950:	4632      	mov	r2, r6
    3952:	4639      	mov	r1, r7
    3954:	4620      	mov	r0, r4
    3956:	f7ff fd0b 	bl	3370 <_read>
    395a:	4603      	mov	r3, r0
    395c:	4620      	mov	r0, r4
    395e:	461c      	mov	r4, r3
    3960:	f7ff fe5a 	bl	3618 <_close>
    3964:	1c63      	adds	r3, r4, #1
    3966:	d01d      	beq.n	39a4 <_get_semihosting_exts+0xec>
    3968:	4620      	mov	r0, r4
    396a:	b003      	add	sp, #12
    396c:	e8bd 83f0 	ldmia.w	sp!, {r4, r5, r6, r7, r8, r9, pc}
    3970:	f7fd ff22 	bl	17b8 <__sinit>
    3974:	2c13      	cmp	r4, #19
    3976:	d9b9      	bls.n	38ec <_get_semihosting_exts+0x34>
    3978:	f04f 0900 	mov.w	r9, #0
    397c:	e7bd      	b.n	38fa <_get_semihosting_exts+0x42>
    397e:	f000 fa21 	bl	3dc4 <__errno>
    3982:	2613      	movs	r6, #19
    3984:	2700      	movs	r7, #0
    3986:	4605      	mov	r5, r0
    3988:	4630      	mov	r0, r6
    398a:	4639      	mov	r1, r7
    398c:	beab      	bkpt	0x00ab
    398e:	4606      	mov	r6, r0
    3990:	602e      	str	r6, [r5, #0]
    3992:	4620      	mov	r0, r4
    3994:	f04f 34ff 	mov.w	r4, #4294967295	; 0xffffffff
    3998:	f7ff fe3e 	bl	3618 <_close>
    399c:	4620      	mov	r0, r4
    399e:	b003      	add	sp, #12
    39a0:	e8bd 83f0 	ldmia.w	sp!, {r4, r5, r6, r7, r8, r9, pc}
    39a4:	f000 fa0e 	bl	3dc4 <__errno>
    39a8:	2613      	movs	r6, #19
    39aa:	2700      	movs	r7, #0
    39ac:	4605      	mov	r5, r0
    39ae:	4630      	mov	r0, r6
    39b0:	4639      	mov	r1, r7
    39b2:	beab      	bkpt	0x00ab
    39b4:	4606      	mov	r6, r0
    39b6:	602e      	str	r6, [r5, #0]
    39b8:	e7d6      	b.n	3968 <_get_semihosting_exts+0xb0>
    39ba:	bf00      	nop
    39bc:	00003e24 	.word	0x00003e24
    39c0:	2000011c 	.word	0x2000011c
    39c4:	200009fc 	.word	0x200009fc

000039c8 <_has_ext_exit_extended>:
    39c8:	b530      	push	{r4, r5, lr}
    39ca:	4c0f      	ldr	r4, [pc, #60]	; (3a08 <_has_ext_exit_extended+0x40>)
    39cc:	b083      	sub	sp, #12
    39ce:	6820      	ldr	r0, [r4, #0]
    39d0:	2800      	cmp	r0, #0
    39d2:	db01      	blt.n	39d8 <_has_ext_exit_extended+0x10>
    39d4:	b003      	add	sp, #12
    39d6:	bd30      	pop	{r4, r5, pc}
    39d8:	2100      	movs	r1, #0
    39da:	2201      	movs	r2, #1
    39dc:	4d0b      	ldr	r5, [pc, #44]	; (3a0c <_has_ext_exit_extended+0x44>)
    39de:	a801      	add	r0, sp, #4
    39e0:	6021      	str	r1, [r4, #0]
    39e2:	602a      	str	r2, [r5, #0]
    39e4:	f7ff ff68 	bl	38b8 <_get_semihosting_exts>
    39e8:	2800      	cmp	r0, #0
    39ea:	dd09      	ble.n	3a00 <_has_ext_exit_extended+0x38>
    39ec:	f89d 3004 	ldrb.w	r3, [sp, #4]
    39f0:	f003 0001 	and.w	r0, r3, #1
    39f4:	f003 0302 	and.w	r3, r3, #2
    39f8:	6020      	str	r0, [r4, #0]
    39fa:	602b      	str	r3, [r5, #0]
    39fc:	b003      	add	sp, #12
    39fe:	bd30      	pop	{r4, r5, pc}
    3a00:	6820      	ldr	r0, [r4, #0]
    3a02:	b003      	add	sp, #12
    3a04:	bd30      	pop	{r4, r5, pc}
    3a06:	bf00      	nop
    3a08:	20000960 	.word	0x20000960
    3a0c:	20000964 	.word	0x20000964

00003a10 <_has_ext_stdout_stderr>:
    3a10:	b530      	push	{r4, r5, lr}
    3a12:	4c0f      	ldr	r4, [pc, #60]	; (3a50 <_has_ext_stdout_stderr+0x40>)
    3a14:	b083      	sub	sp, #12
    3a16:	6820      	ldr	r0, [r4, #0]
    3a18:	2800      	cmp	r0, #0
    3a1a:	db01      	blt.n	3a20 <_has_ext_stdout_stderr+0x10>
    3a1c:	b003      	add	sp, #12
    3a1e:	bd30      	pop	{r4, r5, pc}
    3a20:	2100      	movs	r1, #0
    3a22:	2201      	movs	r2, #1
    3a24:	4d0b      	ldr	r5, [pc, #44]	; (3a54 <_has_ext_stdout_stderr+0x44>)
    3a26:	a801      	add	r0, sp, #4
    3a28:	6029      	str	r1, [r5, #0]
    3a2a:	6022      	str	r2, [r4, #0]
    3a2c:	f7ff ff44 	bl	38b8 <_get_semihosting_exts>
    3a30:	2800      	cmp	r0, #0
    3a32:	dd09      	ble.n	3a48 <_has_ext_stdout_stderr+0x38>
    3a34:	f89d 0004 	ldrb.w	r0, [sp, #4]
    3a38:	f000 0301 	and.w	r3, r0, #1
    3a3c:	f000 0002 	and.w	r0, r0, #2
    3a40:	602b      	str	r3, [r5, #0]
    3a42:	6020      	str	r0, [r4, #0]
    3a44:	b003      	add	sp, #12
    3a46:	bd30      	pop	{r4, r5, pc}
    3a48:	6820      	ldr	r0, [r4, #0]
    3a4a:	b003      	add	sp, #12
    3a4c:	bd30      	pop	{r4, r5, pc}
    3a4e:	bf00      	nop
    3a50:	20000964 	.word	0x20000964
    3a54:	20000960 	.word	0x20000960

00003a58 <initialise_monitor_handles>:
    3a58:	e92d 4ff0 	stmdb	sp!, {r4, r5, r6, r7, r8, r9, sl, fp, lr}
    3a5c:	2303      	movs	r3, #3
    3a5e:	2400      	movs	r4, #0
    3a60:	4e4c      	ldr	r6, [pc, #304]	; (3b94 <initialise_monitor_handles+0x13c>)
    3a62:	b085      	sub	sp, #20
    3a64:	9601      	str	r6, [sp, #4]
    3a66:	f04f 0801 	mov.w	r8, #1
    3a6a:	9303      	str	r3, [sp, #12]
    3a6c:	ad01      	add	r5, sp, #4
    3a6e:	9402      	str	r4, [sp, #8]
    3a70:	4640      	mov	r0, r8
    3a72:	4629      	mov	r1, r5
    3a74:	beab      	bkpt	0x00ab
    3a76:	4680      	mov	r8, r0
    3a78:	f04f 32ff 	mov.w	r2, #4294967295	; 0xffffffff
    3a7c:	4f46      	ldr	r7, [pc, #280]	; (3b98 <initialise_monitor_handles+0x140>)
    3a7e:	4623      	mov	r3, r4
    3a80:	4c46      	ldr	r4, [pc, #280]	; (3b9c <initialise_monitor_handles+0x144>)
    3a82:	f8c7 8000 	str.w	r8, [r7]
    3a86:	f844 2033 	str.w	r2, [r4, r3, lsl #3]
    3a8a:	3301      	adds	r3, #1
    3a8c:	2b14      	cmp	r3, #20
    3a8e:	d1fa      	bne.n	3a86 <initialise_monitor_handles+0x2e>
    3a90:	f8df 810c 	ldr.w	r8, [pc, #268]	; 3ba0 <initialise_monitor_handles+0x148>
    3a94:	f8d8 3000 	ldr.w	r3, [r8]
    3a98:	2b00      	cmp	r3, #0
    3a9a:	db54      	blt.n	3b46 <initialise_monitor_handles+0xee>
    3a9c:	b94b      	cbnz	r3, 3ab2 <initialise_monitor_handles+0x5a>
    3a9e:	4a41      	ldr	r2, [pc, #260]	; (3ba4 <initialise_monitor_handles+0x14c>)
    3aa0:	6811      	ldr	r1, [r2, #0]
    3aa2:	3101      	adds	r1, #1
    3aa4:	d067      	beq.n	3b76 <initialise_monitor_handles+0x11e>
    3aa6:	683a      	ldr	r2, [r7, #0]
    3aa8:	e9c4 2300 	strd	r2, r3, [r4]
    3aac:	b005      	add	sp, #20
    3aae:	e8bd 8ff0 	ldmia.w	sp!, {r4, r5, r6, r7, r8, r9, sl, fp, pc}
    3ab2:	f04f 0b03 	mov.w	fp, #3
    3ab6:	2304      	movs	r3, #4
    3ab8:	9601      	str	r6, [sp, #4]
    3aba:	f04f 0901 	mov.w	r9, #1
    3abe:	f8cd b00c 	str.w	fp, [sp, #12]
    3ac2:	9302      	str	r3, [sp, #8]
    3ac4:	4648      	mov	r0, r9
    3ac6:	4629      	mov	r1, r5
    3ac8:	beab      	bkpt	0x00ab
    3aca:	4682      	mov	sl, r0
    3acc:	2308      	movs	r3, #8
    3ace:	9601      	str	r6, [sp, #4]
    3ad0:	4e35      	ldr	r6, [pc, #212]	; (3ba8 <initialise_monitor_handles+0x150>)
    3ad2:	f8cd b00c 	str.w	fp, [sp, #12]
    3ad6:	f8c6 a000 	str.w	sl, [r6]
    3ada:	9302      	str	r3, [sp, #8]
    3adc:	4648      	mov	r0, r9
    3ade:	4629      	mov	r1, r5
    3ae0:	beab      	bkpt	0x00ab
    3ae2:	4605      	mov	r5, r0
    3ae4:	2100      	movs	r1, #0
    3ae6:	f8df 90bc 	ldr.w	r9, [pc, #188]	; 3ba4 <initialise_monitor_handles+0x14c>
    3aea:	f8d8 3000 	ldr.w	r3, [r8]
    3aee:	f8c9 5000 	str.w	r5, [r9]
    3af2:	3501      	adds	r5, #1
    3af4:	bf08      	it	eq
    3af6:	6832      	ldreq	r2, [r6, #0]
    3af8:	6061      	str	r1, [r4, #4]
    3afa:	bf08      	it	eq
    3afc:	f8c9 2000 	streq.w	r2, [r9]
    3b00:	683a      	ldr	r2, [r7, #0]
    3b02:	428b      	cmp	r3, r1
    3b04:	6022      	str	r2, [r4, #0]
    3b06:	da12      	bge.n	3b2e <initialise_monitor_handles+0xd6>
    3b08:	2201      	movs	r2, #1
    3b0a:	4d28      	ldr	r5, [pc, #160]	; (3bac <initialise_monitor_handles+0x154>)
    3b0c:	4668      	mov	r0, sp
    3b0e:	6029      	str	r1, [r5, #0]
    3b10:	f8c8 2000 	str.w	r2, [r8]
    3b14:	f7ff fed0 	bl	38b8 <_get_semihosting_exts>
    3b18:	2800      	cmp	r0, #0
    3b1a:	dd38      	ble.n	3b8e <initialise_monitor_handles+0x136>
    3b1c:	f89d 3000 	ldrb.w	r3, [sp]
    3b20:	f003 0201 	and.w	r2, r3, #1
    3b24:	f003 0302 	and.w	r3, r3, #2
    3b28:	602a      	str	r2, [r5, #0]
    3b2a:	f8c8 3000 	str.w	r3, [r8]
    3b2e:	b13b      	cbz	r3, 3b40 <initialise_monitor_handles+0xe8>
    3b30:	2300      	movs	r3, #0
    3b32:	f8d9 2000 	ldr.w	r2, [r9]
    3b36:	6831      	ldr	r1, [r6, #0]
    3b38:	e9c4 3203 	strd	r3, r2, [r4, #12]
    3b3c:	60a1      	str	r1, [r4, #8]
    3b3e:	6163      	str	r3, [r4, #20]
    3b40:	b005      	add	sp, #20
    3b42:	e8bd 8ff0 	ldmia.w	sp!, {r4, r5, r6, r7, r8, r9, sl, fp, pc}
    3b46:	2100      	movs	r1, #0
    3b48:	2201      	movs	r2, #1
    3b4a:	f8df 9060 	ldr.w	r9, [pc, #96]	; 3bac <initialise_monitor_handles+0x154>
    3b4e:	4668      	mov	r0, sp
    3b50:	f8c9 1000 	str.w	r1, [r9]
    3b54:	f8c8 2000 	str.w	r2, [r8]
    3b58:	f7ff feae 	bl	38b8 <_get_semihosting_exts>
    3b5c:	2800      	cmp	r0, #0
    3b5e:	dd13      	ble.n	3b88 <initialise_monitor_handles+0x130>
    3b60:	f89d 3000 	ldrb.w	r3, [sp]
    3b64:	f003 0201 	and.w	r2, r3, #1
    3b68:	f003 0302 	and.w	r3, r3, #2
    3b6c:	f8c9 2000 	str.w	r2, [r9]
    3b70:	f8c8 3000 	str.w	r3, [r8]
    3b74:	e792      	b.n	3a9c <initialise_monitor_handles+0x44>
    3b76:	490c      	ldr	r1, [pc, #48]	; (3ba8 <initialise_monitor_handles+0x150>)
    3b78:	6838      	ldr	r0, [r7, #0]
    3b7a:	6809      	ldr	r1, [r1, #0]
    3b7c:	6020      	str	r0, [r4, #0]
    3b7e:	6011      	str	r1, [r2, #0]
    3b80:	6063      	str	r3, [r4, #4]
    3b82:	b005      	add	sp, #20
    3b84:	e8bd 8ff0 	ldmia.w	sp!, {r4, r5, r6, r7, r8, r9, sl, fp, pc}
    3b88:	f8d8 3000 	ldr.w	r3, [r8]
    3b8c:	e786      	b.n	3a9c <initialise_monitor_handles+0x44>
    3b8e:	f8d8 3000 	ldr.w	r3, [r8]
    3b92:	e7cc      	b.n	3b2e <initialise_monitor_handles+0xd6>
    3b94:	00003e3c 	.word	0x00003e3c
    3b98:	200009f4 	.word	0x200009f4
    3b9c:	200009fc 	.word	0x200009fc
    3ba0:	20000964 	.word	0x20000964
    3ba4:	200009f0 	.word	0x200009f0
    3ba8:	200009f8 	.word	0x200009f8
    3bac:	20000960 	.word	0x20000960

00003bb0 <_link>:
    3bb0:	b508      	push	{r3, lr}
    3bb2:	f000 f907 	bl	3dc4 <__errno>
    3bb6:	2258      	movs	r2, #88	; 0x58
    3bb8:	4603      	mov	r3, r0
    3bba:	f04f 30ff 	mov.w	r0, #4294967295	; 0xffffffff
    3bbe:	601a      	str	r2, [r3, #0]
    3bc0:	bd08      	pop	{r3, pc}
    3bc2:	bf00      	nop

00003bc4 <_unlink>:
    3bc4:	b5f0      	push	{r4, r5, r6, r7, lr}
    3bc6:	b083      	sub	sp, #12
    3bc8:	9000      	str	r0, [sp, #0]
    3bca:	f7fd fd11 	bl	15f0 <strlen>
    3bce:	240e      	movs	r4, #14
    3bd0:	466d      	mov	r5, sp
    3bd2:	9001      	str	r0, [sp, #4]
    3bd4:	4620      	mov	r0, r4
    3bd6:	4629      	mov	r1, r5
    3bd8:	beab      	bkpt	0x00ab
    3bda:	4604      	mov	r4, r0
    3bdc:	1c63      	adds	r3, r4, #1
    3bde:	bf18      	it	ne
    3be0:	2400      	movne	r4, #0
    3be2:	d002      	beq.n	3bea <_unlink+0x26>
    3be4:	4620      	mov	r0, r4
    3be6:	b003      	add	sp, #12
    3be8:	bdf0      	pop	{r4, r5, r6, r7, pc}
    3bea:	f000 f8eb 	bl	3dc4 <__errno>
    3bee:	2613      	movs	r6, #19
    3bf0:	2700      	movs	r7, #0
    3bf2:	4605      	mov	r5, r0
    3bf4:	4630      	mov	r0, r6
    3bf6:	4639      	mov	r1, r7
    3bf8:	beab      	bkpt	0x00ab
    3bfa:	4606      	mov	r6, r0
    3bfc:	4620      	mov	r0, r4
    3bfe:	602e      	str	r6, [r5, #0]
    3c00:	b003      	add	sp, #12
    3c02:	bdf0      	pop	{r4, r5, r6, r7, pc}

00003c04 <_gettimeofday>:
    3c04:	b5f0      	push	{r4, r5, r6, r7, lr}
    3c06:	460d      	mov	r5, r1
    3c08:	b150      	cbz	r0, 3c20 <_gettimeofday+0x1c>
    3c0a:	4604      	mov	r4, r0
    3c0c:	2611      	movs	r6, #17
    3c0e:	2700      	movs	r7, #0
    3c10:	4630      	mov	r0, r6
    3c12:	4639      	mov	r1, r7
    3c14:	beab      	bkpt	0x00ab
    3c16:	4606      	mov	r6, r0
    3c18:	17f3      	asrs	r3, r6, #31
    3c1a:	e9c4 6300 	strd	r6, r3, [r4]
    3c1e:	60a7      	str	r7, [r4, #8]
    3c20:	b115      	cbz	r5, 3c28 <_gettimeofday+0x24>
    3c22:	2300      	movs	r3, #0
    3c24:	e9c5 3300 	strd	r3, r3, [r5]
    3c28:	2000      	movs	r0, #0
    3c2a:	bdf0      	pop	{r4, r5, r6, r7, pc}

00003c2c <_clock>:
    3c2c:	b530      	push	{r4, r5, lr}
    3c2e:	2410      	movs	r4, #16
    3c30:	2500      	movs	r5, #0
    3c32:	4620      	mov	r0, r4
    3c34:	4629      	mov	r1, r5
    3c36:	beab      	bkpt	0x00ab
    3c38:	4604      	mov	r4, r0
    3c3a:	4620      	mov	r0, r4
    3c3c:	bd30      	pop	{r4, r5, pc}
    3c3e:	bf00      	nop

00003c40 <_times>:
    3c40:	b570      	push	{r4, r5, r6, lr}
    3c42:	2510      	movs	r5, #16
    3c44:	2600      	movs	r6, #0
    3c46:	4604      	mov	r4, r0
    3c48:	4628      	mov	r0, r5
    3c4a:	4631      	mov	r1, r6
