
/Users/cgg/microemu/tests/system_tests/testbench/build/testbench.elf:     file format elf32-littlearm


Disassembly of section .text:

00000000 <__Vectors>:
       0:	20020000 	.word	0x20020000
       4:	000001f5 	.word	0x000001f5
       8:	000001f9 	.word	0x000001f9
       c:	000001fb 	.word	0x000001fb
      10:	000001fd 	.word	0x000001fd
      14:	00002269 	.word	0x00002269
      18:	00002335 	.word	0x00002335
	...
      2c:	00002911 	.word	0x00002911
      30:	00000205 	.word	0x00000205
      34:	00000000 	.word	0x00000000
      38:	00000207 	.word	0x00000207
      3c:	000029e1 	.word	0x000029e1

00000040 <__do_global_dtors_aux>:
      40:	b510      	push	{r4, lr}
      42:	4c05      	ldr	r4, [pc, #20]	; (58 <__do_global_dtors_aux+0x18>)
      44:	7823      	ldrb	r3, [r4, #0]
      46:	b933      	cbnz	r3, 56 <__do_global_dtors_aux+0x16>
      48:	4b04      	ldr	r3, [pc, #16]	; (5c <__do_global_dtors_aux+0x1c>)
      4a:	b113      	cbz	r3, 52 <__do_global_dtors_aux+0x12>
      4c:	4804      	ldr	r0, [pc, #16]	; (60 <__do_global_dtors_aux+0x20>)
      4e:	f3af 8000 	nop.w
      52:	2301      	movs	r3, #1
      54:	7023      	strb	r3, [r4, #0]
      56:	bd10      	pop	{r4, pc}
      58:	20000aec 	.word	0x20000aec
      5c:	00000000 	.word	0x00000000
      60:	0001a3d0 	.word	0x0001a3d0

00000064 <frame_dummy>:
      64:	b508      	push	{r3, lr}
      66:	4b03      	ldr	r3, [pc, #12]	; (74 <frame_dummy+0x10>)
      68:	b11b      	cbz	r3, 72 <frame_dummy+0xe>
      6a:	4903      	ldr	r1, [pc, #12]	; (78 <frame_dummy+0x14>)
      6c:	4803      	ldr	r0, [pc, #12]	; (7c <frame_dummy+0x18>)
      6e:	f3af 8000 	nop.w
      72:	bd08      	pop	{r3, pc}
      74:	00000000 	.word	0x00000000
      78:	20000af0 	.word	0x20000af0
      7c:	0001a3d0 	.word	0x0001a3d0

00000080 <_stack_init>:
      80:	2a00      	cmp	r2, #0
      82:	d001      	beq.n	88 <_stack_init+0x8>
      84:	f502 7a80 	add.w	sl, r2, #256	; 0x100
      88:	4770      	bx	lr
      8a:	bf00      	nop

0000008c <_mainCRTStartup>:
      8c:	2016      	movs	r0, #22
      8e:	a131      	add	r1, pc, #196	; (adr r1, 154 <_mainCRTStartup+0xc8>)
      90:	beab      	bkpt	0x00ab
      92:	4830      	ldr	r0, [pc, #192]	; (154 <_mainCRTStartup+0xc8>)
      94:	6841      	ldr	r1, [r0, #4]
      96:	2900      	cmp	r1, #0
      98:	d001      	beq.n	9e <_mainCRTStartup+0x12>
      9a:	4a36      	ldr	r2, [pc, #216]	; (174 <_mainCRTStartup+0xe8>)
      9c:	6011      	str	r1, [r2, #0]
      9e:	6801      	ldr	r1, [r0, #0]
      a0:	2900      	cmp	r1, #0
      a2:	d101      	bne.n	a8 <_mainCRTStartup+0x1c>
      a4:	4932      	ldr	r1, [pc, #200]	; (170 <_mainCRTStartup+0xe4>)
      a6:	6001      	str	r1, [r0, #0]
      a8:	6881      	ldr	r1, [r0, #8]
      aa:	68c2      	ldr	r2, [r0, #12]
      ac:	4b2a      	ldr	r3, [pc, #168]	; (158 <_mainCRTStartup+0xcc>)
      ae:	2900      	cmp	r1, #0
      b0:	d000      	beq.n	b4 <_mainCRTStartup+0x28>
      b2:	460b      	mov	r3, r1
      b4:	469d      	mov	sp, r3
      b6:	f7ff ffe3 	bl	80 <_stack_init>
      ba:	2100      	movs	r1, #0
      bc:	468b      	mov	fp, r1
      be:	460f      	mov	r7, r1
      c0:	4826      	ldr	r0, [pc, #152]	; (15c <_mainCRTStartup+0xd0>)
      c2:	4a27      	ldr	r2, [pc, #156]	; (160 <_mainCRTStartup+0xd4>)
      c4:	1a12      	subs	r2, r2, r0
      c6:	f00c fc61 	bl	c98c <memset>
      ca:	f016 fd77 	bl	16bbc <initialise_monitor_handles>
      ce:	2015      	movs	r0, #21
      d0:	4926      	ldr	r1, [pc, #152]	; (16c <_mainCRTStartup+0xe0>)
      d2:	beab      	bkpt	0x00ab
      d4:	4925      	ldr	r1, [pc, #148]	; (16c <_mainCRTStartup+0xe0>)
      d6:	6809      	ldr	r1, [r1, #0]
      d8:	2000      	movs	r0, #0
      da:	b401      	push	{r0}
      dc:	780b      	ldrb	r3, [r1, #0]
      de:	3101      	adds	r1, #1
      e0:	2b00      	cmp	r3, #0
      e2:	d015      	beq.n	110 <_mainCRTStartup+0x84>
      e4:	2b20      	cmp	r3, #32
      e6:	d0f9      	beq.n	dc <_mainCRTStartup+0x50>
      e8:	2b22      	cmp	r3, #34	; 0x22
      ea:	d001      	beq.n	f0 <_mainCRTStartup+0x64>
      ec:	2b27      	cmp	r3, #39	; 0x27
      ee:	d101      	bne.n	f4 <_mainCRTStartup+0x68>
      f0:	001a      	movs	r2, r3
      f2:	e001      	b.n	f8 <_mainCRTStartup+0x6c>
      f4:	2220      	movs	r2, #32
      f6:	3901      	subs	r1, #1
      f8:	b402      	push	{r1}
      fa:	3001      	adds	r0, #1
      fc:	780b      	ldrb	r3, [r1, #0]
      fe:	3101      	adds	r1, #1
     100:	2b00      	cmp	r3, #0
     102:	d005      	beq.n	110 <_mainCRTStartup+0x84>
     104:	429a      	cmp	r2, r3
     106:	d1f9      	bne.n	fc <_mainCRTStartup+0x70>
     108:	2200      	movs	r2, #0
     10a:	1e4b      	subs	r3, r1, #1
     10c:	701a      	strb	r2, [r3, #0]
     10e:	e7e5      	b.n	dc <_mainCRTStartup+0x50>
     110:	4669      	mov	r1, sp
     112:	0002      	movs	r2, r0
     114:	0092      	lsls	r2, r2, #2
     116:	446a      	add	r2, sp
     118:	466b      	mov	r3, sp
     11a:	429a      	cmp	r2, r3
     11c:	d906      	bls.n	12c <_mainCRTStartup+0xa0>
     11e:	3a04      	subs	r2, #4
     120:	6814      	ldr	r4, [r2, #0]
     122:	681d      	ldr	r5, [r3, #0]
     124:	6015      	str	r5, [r2, #0]
     126:	601c      	str	r4, [r3, #0]
     128:	3304      	adds	r3, #4
     12a:	e7f6      	b.n	11a <_mainCRTStartup+0x8e>
     12c:	466c      	mov	r4, sp
     12e:	2507      	movs	r5, #7
     130:	43ac      	bics	r4, r5
     132:	46a5      	mov	sp, r4
     134:	0004      	movs	r4, r0
     136:	000d      	movs	r5, r1
     138:	480a      	ldr	r0, [pc, #40]	; (164 <_mainCRTStartup+0xd8>)
     13a:	2800      	cmp	r0, #0
     13c:	d002      	beq.n	144 <_mainCRTStartup+0xb8>
     13e:	480a      	ldr	r0, [pc, #40]	; (168 <_mainCRTStartup+0xdc>)
     140:	f011 fe70 	bl	11e24 <atexit>
     144:	f00b ff9c 	bl	c080 <__libc_init_array>
     148:	0020      	movs	r0, r4
     14a:	0029      	movs	r1, r5
     14c:	f000 f814 	bl	178 <main>
     150:	f00b fce4 	bl	bb1c <exit>
     154:	20000004 	.word	0x20000004
     158:	20020000 	.word	0x20020000
     15c:	20000aec 	.word	0x20000aec
     160:	2000205c 	.word	0x2000205c
     164:	00011e25 	.word	0x00011e25
     168:	000132f5 	.word	0x000132f5
     16c:	20000114 	.word	0x20000114
     170:	20002060 	.word	0x20002060
     174:	20000ad0 	.word	0x20000ad0

00000178 <main>:
#include <stdlib.h>
#include <time.h>

// Main
// ----------------------------
int main() {
     178:	b580      	push	{r7, lr}
     17a:	af00      	add	r7, sp, #0

#ifdef MEASURE_TIME
  clock_t start_t, end_t;
  start_t = clock();
#endif
  printf("-------------------------------\n");
     17c:	481b      	ldr	r0, [pc, #108]	; (1ec <main+0x74>)
     17e:	f00c fd4d 	bl	cc1c <puts>
  printf("Emulator test bench\n");
     182:	481b      	ldr	r0, [pc, #108]	; (1f0 <main+0x78>)
     184:	f00c fd4a 	bl	cc1c <puts>
  printf("-------------------------------\n");
     188:	4818      	ldr	r0, [pc, #96]	; (1ec <main+0x74>)
     18a:	f00c fd47 	bl	cc1c <puts>

  TestStdOut();
     18e:	f000 fb2d 	bl	7ec <TestStdOut()>

  // Irq test runs in parallel
  StartIrqTest();
     192:	f002 fc99 	bl	2ac8 <StartIrqTest()>

  TestStackAlignment();
     196:	f000 fbca 	bl	92e <TestStackAlignment()>
  TestHeap();
     19a:	f002 fde5 	bl	2d68 <TestHeap()>
  TestIfThenElse();
     19e:	f001 f9c9 	bl	1534 <TestIfThenElse()>
  TestSwitchCase();
     1a2:	f001 fc15 	bl	19d0 <TestSwitchCase()>
  TestIntCalc();
     1a6:	f000 fcf9 	bl	b9c <TestIntCalc()>
  TestUIntCalc();
     1aa:	f000 ff41 	bl	1030 <TestUIntCalc()>
  TestFloat();
     1ae:	f000 f87f 	bl	2b0 <TestFloat()>
  TestTypeCasting();
     1b2:	f001 fa05 	bl	15c0 <TestTypeCasting()>
  TestPolymorphismn();
     1b6:	f001 fa59 	bl	166c <TestPolymorphismn()>
  TestStdAlgos();
     1ba:	f000 fcdd 	bl	b78 <TestStdAlgos()>
  TestSprintf();
     1be:	f000 fa6f 	bl	6a0 <TestSprintf()>
  TestScb();
     1c2:	f002 fb85 	bl	28d0 <TestScb()>
  TestFibonacci();
     1c6:	f001 fc53 	bl	1a70 <TestFibonacci()>
  TestQuicksort();
     1ca:	f001 fcbb 	bl	1b44 <TestQuicksort()>
  TestCrc();
     1ce:	f002 fd9d 	bl	2d0c <TestCrc()>
  TestExceptions();
     1d2:	f002 faf5 	bl	27c0 <TestExceptions()>
  TestProcessStack();
     1d6:	f002 fea1 	bl	2f1c <TestProcessStack()>
  TestIrqs(); // must be at the end
     1da:	f002 fc7d 	bl	2ad8 <TestIrqs()>
  printf("-------------------------------\n");
     1de:	4803      	ldr	r0, [pc, #12]	; (1ec <main+0x74>)
     1e0:	f00c fd1c 	bl	cc1c <puts>
  auto diff_t = static_cast<unsigned long>(end_t) - static_cast<unsigned long>(start_t);
  printf("# Test: Time measurement start_t:%u / end_t:%u / diff_t: %u / CLOCKS_PER_SEC:%u \n",
         start_t, end_t, diff_t, CLOCKS_PER_SEC);
#endif
  // ----------------------------
  return EXIT_SUCCESS;
     1e4:	2300      	movs	r3, #0
     1e6:	4618      	mov	r0, r3
     1e8:	bd80      	pop	{r7, pc}
     1ea:	bf00      	nop
     1ec:	0001701c 	.word	0x0001701c
     1f0:	0001703c 	.word	0x0001703c

000001f4 <Reset_Handler>:
     1f4:	f7ff ff4a 	bl	8c <_mainCRTStartup>

000001f8 <NMI_Handler>:
     1f8:	4770      	bx	lr

000001fa <HardFault_Handler>:
     1fa:	4770      	bx	lr

000001fc <MemManage_Handler>:
     1fc:	4770      	bx	lr
     1fe:	4770      	bx	lr
     200:	4770      	bx	lr
     202:	4770      	bx	lr

00000204 <DebugMon_Handler>:
     204:	4770      	bx	lr

00000206 <PendSV_Handler>:
     206:	4770      	bx	lr
     208:	4770      	bx	lr
     20a:	bf00      	nop

0000020c <GetSysTickBase()>:
  volatile uint32_t CNT; // Current value register {"count"}
  volatile uint32_t CVR; // Calibration value register
};

// SysTick register map base pointer
static inline SysTickRegMap *GetSysTickBase() {
     20c:	b480      	push	{r7}
     20e:	af00      	add	r7, sp, #0
  return reinterpret_cast<SysTickRegMap *>(reinterpret_cast<unsigned *>(0xE000E010u));
     210:	4b02      	ldr	r3, [pc, #8]	; (21c <GetSysTickBase()+0x10>)
};
     212:	4618      	mov	r0, r3
     214:	46bd      	mov	sp, r7
     216:	bc80      	pop	{r7}
     218:	4770      	bx	lr
     21a:	bf00      	nop
     21c:	e000e010 	.word	0xe000e010

00000220 <SysTickInit(unsigned long)>:

#include "systick.h"

volatile uint32_t systick_uptime_millis;

void SysTickInit(uint32_t reload_val) {
     220:	b580      	push	{r7, lr}
     222:	b082      	sub	sp, #8
     224:	af00      	add	r7, sp, #0
     226:	6078      	str	r0, [r7, #4]
  GetSysTickBase()->RVR = reload_val;
     228:	f7ff fff0 	bl	20c <GetSysTickBase()>
     22c:	4602      	mov	r2, r0
     22e:	687b      	ldr	r3, [r7, #4]
     230:	6053      	str	r3, [r2, #4]
  SysTickEnable();
     232:	f000 f80d 	bl	250 <SysTickEnable()>
}
     236:	bf00      	nop
     238:	3708      	adds	r7, #8
     23a:	46bd      	mov	sp, r7
     23c:	bd80      	pop	{r7, pc}

0000023e <SysTickDisable()>:

void SysTickDisable() { GetSysTickBase()->CSR = kSystickCsrClkSourceCore; }
     23e:	b580      	push	{r7, lr}
     240:	af00      	add	r7, sp, #0
     242:	f7ff ffe3 	bl	20c <GetSysTickBase()>
     246:	4603      	mov	r3, r0
     248:	2202      	movs	r2, #2
     24a:	601a      	str	r2, [r3, #0]
     24c:	bf00      	nop
     24e:	bd80      	pop	{r7, pc}

00000250 <SysTickEnable()>:

void SysTickEnable() {
     250:	b580      	push	{r7, lr}
     252:	af00      	add	r7, sp, #0
  /* re-enables init registers without changing reload val */
  GetSysTickBase()->CSR = (kSystickCsrClkSourceCore | kSystickCsrEnable | kSystickCsrTickIntPend);
     254:	f7ff ffda 	bl	20c <GetSysTickBase()>
     258:	4603      	mov	r3, r0
     25a:	2203      	movs	r2, #3
     25c:	601a      	str	r2, [r3, #0]
}
     25e:	bf00      	nop
     260:	bd80      	pop	{r7, pc}
     262:	bf00      	nop

00000264 <IsFloatEqual(float, float)>:
#include <stdint.h>
#include <stdio.h>

static constexpr float kEps = 1.0e-4f;

bool IsFloatEqual(float a, float b) { return ((a >= b - kEps) && (a <= b + kEps)); }
     264:	b580      	push	{r7, lr}
     266:	b082      	sub	sp, #8
     268:	af00      	add	r7, sp, #0
     26a:	6078      	str	r0, [r7, #4]
     26c:	6039      	str	r1, [r7, #0]
     26e:	490f      	ldr	r1, [pc, #60]	; (2ac <IsFloatEqual(float, float)+0x48>)
     270:	6838      	ldr	r0, [r7, #0]
     272:	f00a f985 	bl	a580 <__aeabi_fsub>
     276:	4603      	mov	r3, r0
     278:	4619      	mov	r1, r3
     27a:	6878      	ldr	r0, [r7, #4]
     27c:	f00a fc3c 	bl	aaf8 <__aeabi_fcmpge>
     280:	4603      	mov	r3, r0
     282:	2b00      	cmp	r3, #0
     284:	d00d      	beq.n	2a2 <IsFloatEqual(float, float)+0x3e>
     286:	4909      	ldr	r1, [pc, #36]	; (2ac <IsFloatEqual(float, float)+0x48>)
     288:	6838      	ldr	r0, [r7, #0]
     28a:	f00a f97b 	bl	a584 <__addsf3>
     28e:	4603      	mov	r3, r0
     290:	4619      	mov	r1, r3
     292:	6878      	ldr	r0, [r7, #4]
     294:	f00a fc26 	bl	aae4 <__aeabi_fcmple>
     298:	4603      	mov	r3, r0
     29a:	2b00      	cmp	r3, #0
     29c:	d001      	beq.n	2a2 <IsFloatEqual(float, float)+0x3e>
     29e:	2301      	movs	r3, #1
     2a0:	e000      	b.n	2a4 <IsFloatEqual(float, float)+0x40>
     2a2:	2300      	movs	r3, #0
     2a4:	4618      	mov	r0, r3
     2a6:	3708      	adds	r7, #8
     2a8:	46bd      	mov	sp, r7
     2aa:	bd80      	pop	{r7, pc}
     2ac:	38d1b717 	.word	0x38d1b717

000002b0 <TestFloat()>:

void TestFloat() {
     2b0:	b590      	push	{r4, r7, lr}
     2b2:	b08b      	sub	sp, #44	; 0x2c
     2b4:	af00      	add	r7, sp, #0
  printf("# Test: Simple calculations with floats\n");
     2b6:	489f      	ldr	r0, [pc, #636]	; (534 <TestFloat()+0x284>)
     2b8:	f00c fcb0 	bl	cc1c <puts>

  volatile float f = 123.5f;
     2bc:	4b9e      	ldr	r3, [pc, #632]	; (538 <TestFloat()+0x288>)
     2be:	61fb      	str	r3, [r7, #28]

  assert(f == 123.5f);
     2c0:	69fb      	ldr	r3, [r7, #28]
     2c2:	499d      	ldr	r1, [pc, #628]	; (538 <TestFloat()+0x288>)
     2c4:	4618      	mov	r0, r3
     2c6:	f00a fbf9 	bl	aabc <__aeabi_fcmpeq>
     2ca:	4603      	mov	r3, r0
     2cc:	2b00      	cmp	r3, #0
     2ce:	d105      	bne.n	2dc <TestFloat()+0x2c>
     2d0:	4b9a      	ldr	r3, [pc, #616]	; (53c <TestFloat()+0x28c>)
     2d2:	4a9b      	ldr	r2, [pc, #620]	; (540 <TestFloat()+0x290>)
     2d4:	2110      	movs	r1, #16
     2d6:	489b      	ldr	r0, [pc, #620]	; (544 <TestFloat()+0x294>)
     2d8:	f00b fbfa 	bl	bad0 <__assert_func>

  volatile int32_t f_i = static_cast<int32_t>(f);
     2dc:	69fb      	ldr	r3, [r7, #28]
     2de:	4618      	mov	r0, r3
     2e0:	f00a fc34 	bl	ab4c <__aeabi_f2iz>
     2e4:	4603      	mov	r3, r0
     2e6:	61bb      	str	r3, [r7, #24]
  assert(f_i == 123);
     2e8:	69bb      	ldr	r3, [r7, #24]
     2ea:	2b7b      	cmp	r3, #123	; 0x7b
     2ec:	d005      	beq.n	2fa <TestFloat()+0x4a>
     2ee:	4b96      	ldr	r3, [pc, #600]	; (548 <TestFloat()+0x298>)
     2f0:	4a93      	ldr	r2, [pc, #588]	; (540 <TestFloat()+0x290>)
     2f2:	2113      	movs	r1, #19
     2f4:	4893      	ldr	r0, [pc, #588]	; (544 <TestFloat()+0x294>)
     2f6:	f00b fbeb 	bl	bad0 <__assert_func>

  volatile float frac = f - f_i;
     2fa:	69fc      	ldr	r4, [r7, #28]
     2fc:	69bb      	ldr	r3, [r7, #24]
     2fe:	4618      	mov	r0, r3
     300:	f00a f9f4 	bl	a6ec <__aeabi_i2f>
     304:	4603      	mov	r3, r0
     306:	4619      	mov	r1, r3
     308:	4620      	mov	r0, r4
     30a:	f00a f939 	bl	a580 <__aeabi_fsub>
     30e:	4603      	mov	r3, r0
     310:	617b      	str	r3, [r7, #20]
  assert((frac >= (0.5f - kEps)) && (frac <= (0.5f + kEps)));
     312:	697b      	ldr	r3, [r7, #20]
     314:	498d      	ldr	r1, [pc, #564]	; (54c <TestFloat()+0x29c>)
     316:	4618      	mov	r0, r3
     318:	f00a fbee 	bl	aaf8 <__aeabi_fcmpge>
     31c:	4603      	mov	r3, r0
     31e:	2b00      	cmp	r3, #0
     320:	d007      	beq.n	332 <TestFloat()+0x82>
     322:	697b      	ldr	r3, [r7, #20]
     324:	498a      	ldr	r1, [pc, #552]	; (550 <TestFloat()+0x2a0>)
     326:	4618      	mov	r0, r3
     328:	f00a fbdc 	bl	aae4 <__aeabi_fcmple>
     32c:	4603      	mov	r3, r0
     32e:	2b00      	cmp	r3, #0
     330:	d105      	bne.n	33e <TestFloat()+0x8e>
     332:	4b88      	ldr	r3, [pc, #544]	; (554 <TestFloat()+0x2a4>)
     334:	4a82      	ldr	r2, [pc, #520]	; (540 <TestFloat()+0x290>)
     336:	2116      	movs	r1, #22
     338:	4882      	ldr	r0, [pc, #520]	; (544 <TestFloat()+0x294>)
     33a:	f00b fbc9 	bl	bad0 <__assert_func>

  for (int i = 0; i < 3; ++i) { // 6 Nachkommastellen
     33e:	2300      	movs	r3, #0
     340:	627b      	str	r3, [r7, #36]	; 0x24
     342:	6a7b      	ldr	r3, [r7, #36]	; 0x24
     344:	2b02      	cmp	r3, #2
     346:	dc4b      	bgt.n	3e0 <TestFloat()+0x130>
    frac *= 10;
     348:	697b      	ldr	r3, [r7, #20]
     34a:	4983      	ldr	r1, [pc, #524]	; (558 <TestFloat()+0x2a8>)
     34c:	4618      	mov	r0, r3
     34e:	f00a fa21 	bl	a794 <__aeabi_fmul>
     352:	4603      	mov	r3, r0
     354:	617b      	str	r3, [r7, #20]
    int digit = static_cast<int>(frac);
     356:	697b      	ldr	r3, [r7, #20]
     358:	4618      	mov	r0, r3
     35a:	f00a fbf7 	bl	ab4c <__aeabi_f2iz>
     35e:	4603      	mov	r3, r0
     360:	623b      	str	r3, [r7, #32]
    assert(digit >= 0 && digit <= 9);
     362:	6a3b      	ldr	r3, [r7, #32]
     364:	2b00      	cmp	r3, #0
     366:	db02      	blt.n	36e <TestFloat()+0xbe>
     368:	6a3b      	ldr	r3, [r7, #32]
     36a:	2b09      	cmp	r3, #9
     36c:	dd05      	ble.n	37a <TestFloat()+0xca>
     36e:	4b7b      	ldr	r3, [pc, #492]	; (55c <TestFloat()+0x2ac>)
     370:	4a73      	ldr	r2, [pc, #460]	; (540 <TestFloat()+0x290>)
     372:	211b      	movs	r1, #27
     374:	4873      	ldr	r0, [pc, #460]	; (544 <TestFloat()+0x294>)
     376:	f00b fbab 	bl	bad0 <__assert_func>
    assert(i != 0 || digit == 5);
     37a:	6a7b      	ldr	r3, [r7, #36]	; 0x24
     37c:	2b00      	cmp	r3, #0
     37e:	d108      	bne.n	392 <TestFloat()+0xe2>
     380:	6a3b      	ldr	r3, [r7, #32]
     382:	2b05      	cmp	r3, #5
     384:	d005      	beq.n	392 <TestFloat()+0xe2>
     386:	4b76      	ldr	r3, [pc, #472]	; (560 <TestFloat()+0x2b0>)
     388:	4a6d      	ldr	r2, [pc, #436]	; (540 <TestFloat()+0x290>)
     38a:	211c      	movs	r1, #28
     38c:	486d      	ldr	r0, [pc, #436]	; (544 <TestFloat()+0x294>)
     38e:	f00b fb9f 	bl	bad0 <__assert_func>
    assert(i != 1 || digit == 0);
     392:	6a7b      	ldr	r3, [r7, #36]	; 0x24
     394:	2b01      	cmp	r3, #1
     396:	d108      	bne.n	3aa <TestFloat()+0xfa>
     398:	6a3b      	ldr	r3, [r7, #32]
     39a:	2b00      	cmp	r3, #0
     39c:	d005      	beq.n	3aa <TestFloat()+0xfa>
     39e:	4b71      	ldr	r3, [pc, #452]	; (564 <TestFloat()+0x2b4>)
     3a0:	4a67      	ldr	r2, [pc, #412]	; (540 <TestFloat()+0x290>)
     3a2:	211d      	movs	r1, #29
     3a4:	4867      	ldr	r0, [pc, #412]	; (544 <TestFloat()+0x294>)
     3a6:	f00b fb93 	bl	bad0 <__assert_func>
    assert(i != 2 || digit == 0);
     3aa:	6a7b      	ldr	r3, [r7, #36]	; 0x24
     3ac:	2b02      	cmp	r3, #2
     3ae:	d108      	bne.n	3c2 <TestFloat()+0x112>
     3b0:	6a3b      	ldr	r3, [r7, #32]
     3b2:	2b00      	cmp	r3, #0
     3b4:	d005      	beq.n	3c2 <TestFloat()+0x112>
     3b6:	4b6c      	ldr	r3, [pc, #432]	; (568 <TestFloat()+0x2b8>)
     3b8:	4a61      	ldr	r2, [pc, #388]	; (540 <TestFloat()+0x290>)
     3ba:	211e      	movs	r1, #30
     3bc:	4861      	ldr	r0, [pc, #388]	; (544 <TestFloat()+0x294>)
     3be:	f00b fb87 	bl	bad0 <__assert_func>
    frac -= digit;
     3c2:	697c      	ldr	r4, [r7, #20]
     3c4:	6a38      	ldr	r0, [r7, #32]
     3c6:	f00a f991 	bl	a6ec <__aeabi_i2f>
     3ca:	4603      	mov	r3, r0
     3cc:	4619      	mov	r1, r3
     3ce:	4620      	mov	r0, r4
     3d0:	f00a f8d6 	bl	a580 <__aeabi_fsub>
     3d4:	4603      	mov	r3, r0
     3d6:	617b      	str	r3, [r7, #20]
  for (int i = 0; i < 3; ++i) { // 6 Nachkommastellen
     3d8:	6a7b      	ldr	r3, [r7, #36]	; 0x24
     3da:	3301      	adds	r3, #1
     3dc:	627b      	str	r3, [r7, #36]	; 0x24
     3de:	e7b0      	b.n	342 <TestFloat()+0x92>
  }

  // float equation
  volatile float a = 2.0f;
     3e0:	f04f 4380 	mov.w	r3, #1073741824	; 0x40000000
     3e4:	613b      	str	r3, [r7, #16]

  a = a * 2.0f; // 4.0
     3e6:	693b      	ldr	r3, [r7, #16]
     3e8:	4619      	mov	r1, r3
     3ea:	4618      	mov	r0, r3
     3ec:	f00a f8ca 	bl	a584 <__addsf3>
     3f0:	4603      	mov	r3, r0
     3f2:	613b      	str	r3, [r7, #16]
  a = a + 1.0f; // 5.0
     3f4:	693b      	ldr	r3, [r7, #16]
     3f6:	f04f 517e 	mov.w	r1, #1065353216	; 0x3f800000
     3fa:	4618      	mov	r0, r3
     3fc:	f00a f8c2 	bl	a584 <__addsf3>
     400:	4603      	mov	r3, r0
     402:	613b      	str	r3, [r7, #16]
  a = a - 0.5f; // 4.5
     404:	693b      	ldr	r3, [r7, #16]
     406:	f04f 517c 	mov.w	r1, #1056964608	; 0x3f000000
     40a:	4618      	mov	r0, r3
     40c:	f00a f8b8 	bl	a580 <__aeabi_fsub>
     410:	4603      	mov	r3, r0
     412:	613b      	str	r3, [r7, #16]
  a = a / 0.5f; // 9.0
     414:	693b      	ldr	r3, [r7, #16]
     416:	f04f 517c 	mov.w	r1, #1056964608	; 0x3f000000
     41a:	4618      	mov	r0, r3
     41c:	f00a fa6e 	bl	a8fc <__aeabi_fdiv>
     420:	4603      	mov	r3, r0
     422:	613b      	str	r3, [r7, #16]
  assert(IsFloatEqual(a, 9.0f));
     424:	693b      	ldr	r3, [r7, #16]
     426:	4951      	ldr	r1, [pc, #324]	; (56c <TestFloat()+0x2bc>)
     428:	4618      	mov	r0, r3
     42a:	f7ff ff1b 	bl	264 <IsFloatEqual(float, float)>
     42e:	4603      	mov	r3, r0
     430:	2b00      	cmp	r3, #0
     432:	d105      	bne.n	440 <TestFloat()+0x190>
     434:	4b4e      	ldr	r3, [pc, #312]	; (570 <TestFloat()+0x2c0>)
     436:	4a42      	ldr	r2, [pc, #264]	; (540 <TestFloat()+0x290>)
     438:	2129      	movs	r1, #41	; 0x29
     43a:	4842      	ldr	r0, [pc, #264]	; (544 <TestFloat()+0x294>)
     43c:	f00b fb48 	bl	bad0 <__assert_func>

  // rounding
  a = 1.499f;
     440:	4b4c      	ldr	r3, [pc, #304]	; (574 <TestFloat()+0x2c4>)
     442:	613b      	str	r3, [r7, #16]

  volatile auto a_ceil = std::ceil(a);
     444:	693b      	ldr	r3, [r7, #16]
     446:	4618      	mov	r0, r3
     448:	f000 f8a6 	bl	598 <std::ceil(float)>
     44c:	4603      	mov	r3, r0
     44e:	60fb      	str	r3, [r7, #12]
  assert(IsFloatEqual(a_ceil, 2.0f));
     450:	68fb      	ldr	r3, [r7, #12]
     452:	f04f 4180 	mov.w	r1, #1073741824	; 0x40000000
     456:	4618      	mov	r0, r3
     458:	f7ff ff04 	bl	264 <IsFloatEqual(float, float)>
     45c:	4603      	mov	r3, r0
     45e:	2b00      	cmp	r3, #0
     460:	d105      	bne.n	46e <TestFloat()+0x1be>
     462:	4b45      	ldr	r3, [pc, #276]	; (578 <TestFloat()+0x2c8>)
     464:	4a36      	ldr	r2, [pc, #216]	; (540 <TestFloat()+0x290>)
     466:	212f      	movs	r1, #47	; 0x2f
     468:	4836      	ldr	r0, [pc, #216]	; (544 <TestFloat()+0x294>)
     46a:	f00b fb31 	bl	bad0 <__assert_func>

  volatile auto a_floor = std::floor(a);
     46e:	693b      	ldr	r3, [r7, #16]
     470:	4618      	mov	r0, r3
     472:	f000 f89d 	bl	5b0 <std::floor(float)>
     476:	4603      	mov	r3, r0
     478:	60bb      	str	r3, [r7, #8]
  assert(IsFloatEqual(a_floor, 1.0f));
     47a:	68bb      	ldr	r3, [r7, #8]
     47c:	f04f 517e 	mov.w	r1, #1065353216	; 0x3f800000
     480:	4618      	mov	r0, r3
     482:	f7ff feef 	bl	264 <IsFloatEqual(float, float)>
     486:	4603      	mov	r3, r0
     488:	2b00      	cmp	r3, #0
     48a:	d105      	bne.n	498 <TestFloat()+0x1e8>
     48c:	4b3b      	ldr	r3, [pc, #236]	; (57c <TestFloat()+0x2cc>)
     48e:	4a2c      	ldr	r2, [pc, #176]	; (540 <TestFloat()+0x290>)
     490:	2132      	movs	r1, #50	; 0x32
     492:	482c      	ldr	r0, [pc, #176]	; (544 <TestFloat()+0x294>)
     494:	f00b fb1c 	bl	bad0 <__assert_func>

  volatile auto a_round = std::round(a);
     498:	693b      	ldr	r3, [r7, #16]
     49a:	4618      	mov	r0, r3
     49c:	f000 f8f1 	bl	682 <std::round(float)>
     4a0:	4603      	mov	r3, r0
     4a2:	607b      	str	r3, [r7, #4]
  assert(IsFloatEqual(a_round, 1.0f));
     4a4:	687b      	ldr	r3, [r7, #4]
     4a6:	f04f 517e 	mov.w	r1, #1065353216	; 0x3f800000
     4aa:	4618      	mov	r0, r3
     4ac:	f7ff feda 	bl	264 <IsFloatEqual(float, float)>
     4b0:	4603      	mov	r3, r0
     4b2:	2b00      	cmp	r3, #0
     4b4:	d105      	bne.n	4c2 <TestFloat()+0x212>
     4b6:	4b32      	ldr	r3, [pc, #200]	; (580 <TestFloat()+0x2d0>)
     4b8:	4a21      	ldr	r2, [pc, #132]	; (540 <TestFloat()+0x290>)
     4ba:	2135      	movs	r1, #53	; 0x35
     4bc:	4821      	ldr	r0, [pc, #132]	; (544 <TestFloat()+0x294>)
     4be:	f00b fb07 	bl	bad0 <__assert_func>

  assert(std::isnan(NAN) == true);
     4c2:	4830      	ldr	r0, [pc, #192]	; (584 <TestFloat()+0x2d4>)
     4c4:	f000 f8a8 	bl	618 <std::isnan(float)>
     4c8:	4603      	mov	r3, r0
     4ca:	2b01      	cmp	r3, #1
     4cc:	d005      	beq.n	4da <TestFloat()+0x22a>
     4ce:	4b2e      	ldr	r3, [pc, #184]	; (588 <TestFloat()+0x2d8>)
     4d0:	4a1b      	ldr	r2, [pc, #108]	; (540 <TestFloat()+0x290>)
     4d2:	2137      	movs	r1, #55	; 0x37
     4d4:	481b      	ldr	r0, [pc, #108]	; (544 <TestFloat()+0x294>)
     4d6:	f00b fafb 	bl	bad0 <__assert_func>
  assert(std::isnan(INFINITY) == false);
     4da:	f04f 40ff 	mov.w	r0, #2139095040	; 0x7f800000
     4de:	f000 f89b 	bl	618 <std::isnan(float)>
     4e2:	4603      	mov	r3, r0
     4e4:	2b00      	cmp	r3, #0
     4e6:	d005      	beq.n	4f4 <TestFloat()+0x244>
     4e8:	4b28      	ldr	r3, [pc, #160]	; (58c <TestFloat()+0x2dc>)
     4ea:	4a15      	ldr	r2, [pc, #84]	; (540 <TestFloat()+0x290>)
     4ec:	2138      	movs	r1, #56	; 0x38
     4ee:	4815      	ldr	r0, [pc, #84]	; (544 <TestFloat()+0x294>)
     4f0:	f00b faee 	bl	bad0 <__assert_func>
  assert(std::isnan(0.0) == false);
     4f4:	f04f 0000 	mov.w	r0, #0
     4f8:	f04f 0100 	mov.w	r1, #0
     4fc:	f000 f8a5 	bl	64a <std::isnan(double)>
     500:	4603      	mov	r3, r0
     502:	2b00      	cmp	r3, #0
     504:	d005      	beq.n	512 <TestFloat()+0x262>
     506:	4b22      	ldr	r3, [pc, #136]	; (590 <TestFloat()+0x2e0>)
     508:	4a0d      	ldr	r2, [pc, #52]	; (540 <TestFloat()+0x290>)
     50a:	2139      	movs	r1, #57	; 0x39
     50c:	480d      	ldr	r0, [pc, #52]	; (544 <TestFloat()+0x294>)
     50e:	f00b fadf 	bl	bad0 <__assert_func>
  assert(std::isinf(INFINITY) == true);
     512:	f04f 40ff 	mov.w	r0, #2139095040	; 0x7f800000
     516:	f000 f857 	bl	5c8 <std::isinf(float)>
     51a:	4603      	mov	r3, r0
     51c:	2b01      	cmp	r3, #1
     51e:	d005      	beq.n	52c <TestFloat()+0x27c>
     520:	4b1c      	ldr	r3, [pc, #112]	; (594 <TestFloat()+0x2e4>)
     522:	4a07      	ldr	r2, [pc, #28]	; (540 <TestFloat()+0x290>)
     524:	213a      	movs	r1, #58	; 0x3a
     526:	4807      	ldr	r0, [pc, #28]	; (544 <TestFloat()+0x294>)
     528:	f00b fad2 	bl	bad0 <__assert_func>
     52c:	bf00      	nop
     52e:	372c      	adds	r7, #44	; 0x2c
     530:	46bd      	mov	sp, r7
     532:	bd90      	pop	{r4, r7, pc}
     534:	00017088 	.word	0x00017088
     538:	42f70000 	.word	0x42f70000
     53c:	000170b0 	.word	0x000170b0
     540:	000170bc 	.word	0x000170bc
     544:	000170d0 	.word	0x000170d0
     548:	00017114 	.word	0x00017114
     54c:	3efff2e5 	.word	0x3efff2e5
     550:	3f00068e 	.word	0x3f00068e
     554:	00017120 	.word	0x00017120
     558:	41200000 	.word	0x41200000
     55c:	00017154 	.word	0x00017154
     560:	00017170 	.word	0x00017170
     564:	00017188 	.word	0x00017188
     568:	000171a0 	.word	0x000171a0
     56c:	41100000 	.word	0x41100000
     570:	000171b8 	.word	0x000171b8
     574:	3fbfdf3b 	.word	0x3fbfdf3b
     578:	000171d0 	.word	0x000171d0
     57c:	000171ec 	.word	0x000171ec
     580:	00017208 	.word	0x00017208
     584:	7fc00000 	.word	0x7fc00000
     588:	00017224 	.word	0x00017224
     58c:	0001723c 	.word	0x0001723c
     590:	0001725c 	.word	0x0001725c
     594:	00017278 	.word	0x00017278

00000598 <std::ceil(float)>:
  using ::ceil;

#ifndef __CORRECT_ISO_CPP_MATH_H_PROTO
  inline _GLIBCXX_CONSTEXPR float
  ceil(float __x)
  { return __builtin_ceilf(__x); }
     598:	b580      	push	{r7, lr}
     59a:	b082      	sub	sp, #8
     59c:	af00      	add	r7, sp, #0
     59e:	6078      	str	r0, [r7, #4]
     5a0:	6878      	ldr	r0, [r7, #4]
     5a2:	f009 fe7d 	bl	a2a0 <ceilf>
     5a6:	4603      	mov	r3, r0
     5a8:	4618      	mov	r0, r3
     5aa:	3708      	adds	r7, #8
     5ac:	46bd      	mov	sp, r7
     5ae:	bd80      	pop	{r7, pc}

000005b0 <std::floor(float)>:
  using ::floor;

#ifndef __CORRECT_ISO_CPP_MATH_H_PROTO
  inline _GLIBCXX_CONSTEXPR float
  floor(float __x)
  { return __builtin_floorf(__x); }
     5b0:	b580      	push	{r7, lr}
     5b2:	b082      	sub	sp, #8
     5b4:	af00      	add	r7, sp, #0
     5b6:	6078      	str	r0, [r7, #4]
     5b8:	6878      	ldr	r0, [r7, #4]
     5ba:	f009 feaf 	bl	a31c <floorf>
     5be:	4603      	mov	r3, r0
     5c0:	4618      	mov	r0, r3
     5c2:	3708      	adds	r7, #8
     5c4:	46bd      	mov	sp, r7
     5c6:	bd80      	pop	{r7, pc}

000005c8 <std::isinf(float)>:
#endif

#ifndef __CORRECT_ISO_CPP11_MATH_H_PROTO_FP
  constexpr bool
  isinf(float __x)
  { return __builtin_isinf(__x); }
     5c8:	b5b0      	push	{r4, r5, r7, lr}
     5ca:	b082      	sub	sp, #8
     5cc:	af00      	add	r7, sp, #0
     5ce:	6078      	str	r0, [r7, #4]
     5d0:	687b      	ldr	r3, [r7, #4]
     5d2:	f023 4400 	bic.w	r4, r3, #2147483648	; 0x80000000
     5d6:	2301      	movs	r3, #1
     5d8:	461d      	mov	r5, r3
     5da:	490e      	ldr	r1, [pc, #56]	; (614 <std::isinf(float)+0x4c>)
     5dc:	4620      	mov	r0, r4
     5de:	f00a fa9f 	bl	ab20 <__aeabi_fcmpun>
     5e2:	4603      	mov	r3, r0
     5e4:	2b00      	cmp	r3, #0
     5e6:	d108      	bne.n	5fa <std::isinf(float)+0x32>
     5e8:	490a      	ldr	r1, [pc, #40]	; (614 <std::isinf(float)+0x4c>)
     5ea:	4620      	mov	r0, r4
     5ec:	f00a fa7a 	bl	aae4 <__aeabi_fcmple>
     5f0:	4603      	mov	r3, r0
     5f2:	2b00      	cmp	r3, #0
     5f4:	d101      	bne.n	5fa <std::isinf(float)+0x32>
     5f6:	2300      	movs	r3, #0
     5f8:	461d      	mov	r5, r3
     5fa:	b2eb      	uxtb	r3, r5
     5fc:	f083 0301 	eor.w	r3, r3, #1
     600:	b2db      	uxtb	r3, r3
     602:	2b00      	cmp	r3, #0
     604:	bf14      	ite	ne
     606:	2301      	movne	r3, #1
     608:	2300      	moveq	r3, #0
     60a:	b2db      	uxtb	r3, r3
     60c:	4618      	mov	r0, r3
     60e:	3708      	adds	r7, #8
     610:	46bd      	mov	sp, r7
     612:	bdb0      	pop	{r4, r5, r7, pc}
     614:	7f7fffff 	.word	0x7f7fffff

00000618 <std::isnan(float)>:
#endif

#ifndef __CORRECT_ISO_CPP11_MATH_H_PROTO_FP
  constexpr bool
  isnan(float __x)
  { return __builtin_isnan(__x); }
     618:	b590      	push	{r4, r7, lr}
     61a:	b083      	sub	sp, #12
     61c:	af00      	add	r7, sp, #0
     61e:	6078      	str	r0, [r7, #4]
     620:	2301      	movs	r3, #1
     622:	461c      	mov	r4, r3
     624:	6879      	ldr	r1, [r7, #4]
     626:	6878      	ldr	r0, [r7, #4]
     628:	f00a fa7a 	bl	ab20 <__aeabi_fcmpun>
     62c:	4603      	mov	r3, r0
     62e:	2b00      	cmp	r3, #0
     630:	d101      	bne.n	636 <std::isnan(float)+0x1e>
     632:	2300      	movs	r3, #0
     634:	461c      	mov	r4, r3
     636:	b2e3      	uxtb	r3, r4
     638:	2b00      	cmp	r3, #0
     63a:	bf14      	ite	ne
     63c:	2301      	movne	r3, #1
     63e:	2300      	moveq	r3, #0
     640:	b2db      	uxtb	r3, r3
     642:	4618      	mov	r0, r3
     644:	370c      	adds	r7, #12
     646:	46bd      	mov	sp, r7
     648:	bd90      	pop	{r4, r7, pc}

0000064a <std::isnan(double)>:
  && !_GLIBCXX_NO_OBSOLETE_ISINF_ISNAN_DYNAMIC
  using ::isnan;
#else
  constexpr bool
  isnan(double __x)
  { return __builtin_isnan(__x); }
     64a:	b590      	push	{r4, r7, lr}
     64c:	b083      	sub	sp, #12
     64e:	af00      	add	r7, sp, #0
     650:	e9c7 0100 	strd	r0, r1, [r7]
     654:	2301      	movs	r3, #1
     656:	461c      	mov	r4, r3
     658:	e9d7 2300 	ldrd	r2, r3, [r7]
     65c:	e9d7 0100 	ldrd	r0, r1, [r7]
     660:	f009 ff74 	bl	a54c <__aeabi_dcmpun>
     664:	4603      	mov	r3, r0
     666:	2b00      	cmp	r3, #0
     668:	d101      	bne.n	66e <std::isnan(double)+0x24>
     66a:	2300      	movs	r3, #0
     66c:	461c      	mov	r4, r3
     66e:	b2e3      	uxtb	r3, r4
     670:	2b00      	cmp	r3, #0
     672:	bf14      	ite	ne
     674:	2301      	movne	r3, #1
     676:	2300      	moveq	r3, #0
     678:	b2db      	uxtb	r3, r3
     67a:	4618      	mov	r0, r3
     67c:	370c      	adds	r7, #12
     67e:	46bd      	mov	sp, r7
     680:	bd90      	pop	{r4, r7, pc}

00000682 <std::round(float)>:
#endif

#ifndef __CORRECT_ISO_CPP11_MATH_H_PROTO_FP
  constexpr float
  round(float __x)
  { return __builtin_roundf(__x); }
     682:	b580      	push	{r7, lr}
     684:	b082      	sub	sp, #8
     686:	af00      	add	r7, sp, #0
     688:	6078      	str	r0, [r7, #4]
     68a:	6878      	ldr	r0, [r7, #4]
     68c:	f009 fe86 	bl	a39c <roundf>
     690:	4603      	mov	r3, r0
     692:	4618      	mov	r0, r3
     694:	3708      	adds	r7, #8
     696:	46bd      	mov	sp, r7
     698:	bd80      	pop	{r7, pc}
     69a:	0000      	movs	r0, r0
     69c:	0000      	movs	r0, r0
	...

000006a0 <TestSprintf()>:
#include <cmath>
#include <cstring>
#include <stdint.h>
#include <stdio.h>

void TestSprintf() {
     6a0:	b580      	push	{r7, lr}
     6a2:	b092      	sub	sp, #72	; 0x48
     6a4:	af02      	add	r7, sp, #8
  printf("# Test: Sprintf\n");
     6a6:	483c      	ldr	r0, [pc, #240]	; (798 <TestSprintf()+0xf8>)
     6a8:	f00c fab8 	bl	cc1c <puts>

  char buf[50];
  sprintf(buf, "%s, %i, %u", "ABC", -123, 345);
     6ac:	1d38      	adds	r0, r7, #4
     6ae:	f240 1359 	movw	r3, #345	; 0x159
     6b2:	9300      	str	r3, [sp, #0]
     6b4:	f06f 037a 	mvn.w	r3, #122	; 0x7a
     6b8:	4a38      	ldr	r2, [pc, #224]	; (79c <TestSprintf()+0xfc>)
     6ba:	4939      	ldr	r1, [pc, #228]	; (7a0 <TestSprintf()+0x100>)
     6bc:	f00c fe3a 	bl	d334 <sprintf>
  assert(strcmp(buf, "ABC, -123, 345") == 0);
     6c0:	1d3b      	adds	r3, r7, #4
     6c2:	4938      	ldr	r1, [pc, #224]	; (7a4 <TestSprintf()+0x104>)
     6c4:	4618      	mov	r0, r3
     6c6:	f00c fe57 	bl	d378 <strcmp>
     6ca:	4603      	mov	r3, r0
     6cc:	2b00      	cmp	r3, #0
     6ce:	d005      	beq.n	6dc <TestSprintf()+0x3c>
     6d0:	4b35      	ldr	r3, [pc, #212]	; (7a8 <TestSprintf()+0x108>)
     6d2:	4a36      	ldr	r2, [pc, #216]	; (7ac <TestSprintf()+0x10c>)
     6d4:	210d      	movs	r1, #13
     6d6:	4836      	ldr	r0, [pc, #216]	; (7b0 <TestSprintf()+0x110>)
     6d8:	f00b f9fa 	bl	bad0 <__assert_func>

  uint32_t test0{1234u};
     6dc:	f240 43d2 	movw	r3, #1234	; 0x4d2
     6e0:	63fb      	str	r3, [r7, #60]	; 0x3c
  sprintf(buf, "  1234 == %u\n", test0);
     6e2:	1d3b      	adds	r3, r7, #4
     6e4:	6bfa      	ldr	r2, [r7, #60]	; 0x3c
     6e6:	4933      	ldr	r1, [pc, #204]	; (7b4 <TestSprintf()+0x114>)
     6e8:	4618      	mov	r0, r3
     6ea:	f00c fe23 	bl	d334 <sprintf>
  assert(strcmp(buf, "  1234 == 1234\n") == 0);
     6ee:	1d3b      	adds	r3, r7, #4
     6f0:	4931      	ldr	r1, [pc, #196]	; (7b8 <TestSprintf()+0x118>)
     6f2:	4618      	mov	r0, r3
     6f4:	f00c fe40 	bl	d378 <strcmp>
     6f8:	4603      	mov	r3, r0
     6fa:	2b00      	cmp	r3, #0
     6fc:	d005      	beq.n	70a <TestSprintf()+0x6a>
     6fe:	4b2f      	ldr	r3, [pc, #188]	; (7bc <TestSprintf()+0x11c>)
     700:	4a2a      	ldr	r2, [pc, #168]	; (7ac <TestSprintf()+0x10c>)
     702:	2111      	movs	r1, #17
     704:	482a      	ldr	r0, [pc, #168]	; (7b0 <TestSprintf()+0x110>)
     706:	f00b f9e3 	bl	bad0 <__assert_func>

  uint32_t test1{0xCAFEBABEu};
     70a:	4b2d      	ldr	r3, [pc, #180]	; (7c0 <TestSprintf()+0x120>)
     70c:	63bb      	str	r3, [r7, #56]	; 0x38
  sprintf(buf, "  0xCAFEBABE == 0x%X\n", test1);
     70e:	1d3b      	adds	r3, r7, #4
     710:	6bba      	ldr	r2, [r7, #56]	; 0x38
     712:	492c      	ldr	r1, [pc, #176]	; (7c4 <TestSprintf()+0x124>)
     714:	4618      	mov	r0, r3
     716:	f00c fe0d 	bl	d334 <sprintf>
  assert(strcmp(buf, "  0xCAFEBABE == 0xCAFEBABE\n") == 0);
     71a:	1d3b      	adds	r3, r7, #4
     71c:	492a      	ldr	r1, [pc, #168]	; (7c8 <TestSprintf()+0x128>)
     71e:	4618      	mov	r0, r3
     720:	f00c fe2a 	bl	d378 <strcmp>
     724:	4603      	mov	r3, r0
     726:	2b00      	cmp	r3, #0
     728:	d005      	beq.n	736 <TestSprintf()+0x96>
     72a:	4b28      	ldr	r3, [pc, #160]	; (7cc <TestSprintf()+0x12c>)
     72c:	4a1f      	ldr	r2, [pc, #124]	; (7ac <TestSprintf()+0x10c>)
     72e:	2115      	movs	r1, #21
     730:	481f      	ldr	r0, [pc, #124]	; (7b0 <TestSprintf()+0x110>)
     732:	f00b f9cd 	bl	bad0 <__assert_func>

  sprintf(buf, "  Float: %f\n", 123.45678f);
     736:	1d38      	adds	r0, r7, #4
     738:	a315      	add	r3, pc, #84	; (adr r3, 790 <TestSprintf()+0xf0>)
     73a:	e9d3 2300 	ldrd	r2, r3, [r3]
     73e:	4924      	ldr	r1, [pc, #144]	; (7d0 <TestSprintf()+0x130>)
     740:	f00c fdf8 	bl	d334 <sprintf>
  assert(strcmp(buf, "  Float: 123.456779\n") == 0);
     744:	1d3b      	adds	r3, r7, #4
     746:	4923      	ldr	r1, [pc, #140]	; (7d4 <TestSprintf()+0x134>)
     748:	4618      	mov	r0, r3
     74a:	f00c fe15 	bl	d378 <strcmp>
     74e:	4603      	mov	r3, r0
     750:	2b00      	cmp	r3, #0
     752:	d005      	beq.n	760 <TestSprintf()+0xc0>
     754:	4b20      	ldr	r3, [pc, #128]	; (7d8 <TestSprintf()+0x138>)
     756:	4a15      	ldr	r2, [pc, #84]	; (7ac <TestSprintf()+0x10c>)
     758:	2118      	movs	r1, #24
     75a:	4815      	ldr	r0, [pc, #84]	; (7b0 <TestSprintf()+0x110>)
     75c:	f00b f9b8 	bl	bad0 <__assert_func>

  sprintf(buf, "  --> %s \n", "inserted str");
     760:	1d3b      	adds	r3, r7, #4
     762:	4a1e      	ldr	r2, [pc, #120]	; (7dc <TestSprintf()+0x13c>)
     764:	491e      	ldr	r1, [pc, #120]	; (7e0 <TestSprintf()+0x140>)
     766:	4618      	mov	r0, r3
     768:	f00c fde4 	bl	d334 <sprintf>
  assert(strcmp(buf, "  --> inserted str \n") == 0);
     76c:	1d3b      	adds	r3, r7, #4
     76e:	491d      	ldr	r1, [pc, #116]	; (7e4 <TestSprintf()+0x144>)
     770:	4618      	mov	r0, r3
     772:	f00c fe01 	bl	d378 <strcmp>
     776:	4603      	mov	r3, r0
     778:	2b00      	cmp	r3, #0
     77a:	d005      	beq.n	788 <TestSprintf()+0xe8>
     77c:	4b1a      	ldr	r3, [pc, #104]	; (7e8 <TestSprintf()+0x148>)
     77e:	4a0b      	ldr	r2, [pc, #44]	; (7ac <TestSprintf()+0x10c>)
     780:	211b      	movs	r1, #27
     782:	480b      	ldr	r0, [pc, #44]	; (7b0 <TestSprintf()+0x110>)
     784:	f00b f9a4 	bl	bad0 <__assert_func>
     788:	bf00      	nop
     78a:	3740      	adds	r7, #64	; 0x40
     78c:	46bd      	mov	sp, r7
     78e:	bd80      	pop	{r7, pc}
     790:	e0000000 	.word	0xe0000000
     794:	405edd3b 	.word	0x405edd3b
     798:	00017298 	.word	0x00017298
     79c:	000172a8 	.word	0x000172a8
     7a0:	000172ac 	.word	0x000172ac
     7a4:	000172b8 	.word	0x000172b8
     7a8:	000172c8 	.word	0x000172c8
     7ac:	000172ec 	.word	0x000172ec
     7b0:	00017300 	.word	0x00017300
     7b4:	00017348 	.word	0x00017348
     7b8:	00017358 	.word	0x00017358
     7bc:	00017368 	.word	0x00017368
     7c0:	cafebabe 	.word	0xcafebabe
     7c4:	00017390 	.word	0x00017390
     7c8:	000173a8 	.word	0x000173a8
     7cc:	000173c4 	.word	0x000173c4
     7d0:	000173f8 	.word	0x000173f8
     7d4:	00017408 	.word	0x00017408
     7d8:	00017420 	.word	0x00017420
     7dc:	0001744c 	.word	0x0001744c
     7e0:	0001745c 	.word	0x0001745c
     7e4:	00017468 	.word	0x00017468
     7e8:	00017480 	.word	0x00017480

000007ec <TestStdOut()>:
#include "test_std_out.h"
#include <assert.h>
#include <stdint.h>
#include <stdio.h>

void TestStdOut() {
     7ec:	b580      	push	{r7, lr}
     7ee:	af00      	add	r7, sp, #0
  printf("# Test: Standard output\n");
     7f0:	4826      	ldr	r0, [pc, #152]	; (88c <TestStdOut()+0xa0>)
     7f2:	f00c fa13 	bl	cc1c <puts>

  // char tests
  fputc(' ', stdout);
     7f6:	4b26      	ldr	r3, [pc, #152]	; (890 <TestStdOut()+0xa4>)
     7f8:	681b      	ldr	r3, [r3, #0]
     7fa:	689b      	ldr	r3, [r3, #8]
     7fc:	4619      	mov	r1, r3
     7fe:	2020      	movs	r0, #32
     800:	f00b f9e6 	bl	bbd0 <fputc>
  fputc(' ', stdout);
     804:	4b22      	ldr	r3, [pc, #136]	; (890 <TestStdOut()+0xa4>)
     806:	681b      	ldr	r3, [r3, #0]
     808:	689b      	ldr	r3, [r3, #8]
     80a:	4619      	mov	r1, r3
     80c:	2020      	movs	r0, #32
     80e:	f00b f9df 	bl	bbd0 <fputc>
  fputc('T', stdout);
     812:	4b1f      	ldr	r3, [pc, #124]	; (890 <TestStdOut()+0xa4>)
     814:	681b      	ldr	r3, [r3, #0]
     816:	689b      	ldr	r3, [r3, #8]
     818:	4619      	mov	r1, r3
     81a:	2054      	movs	r0, #84	; 0x54
     81c:	f00b f9d8 	bl	bbd0 <fputc>
  fputc('E', stdout);
     820:	4b1b      	ldr	r3, [pc, #108]	; (890 <TestStdOut()+0xa4>)
     822:	681b      	ldr	r3, [r3, #0]
     824:	689b      	ldr	r3, [r3, #8]
     826:	4619      	mov	r1, r3
     828:	2045      	movs	r0, #69	; 0x45
     82a:	f00b f9d1 	bl	bbd0 <fputc>
  fputc('S', stdout);
     82e:	4b18      	ldr	r3, [pc, #96]	; (890 <TestStdOut()+0xa4>)
     830:	681b      	ldr	r3, [r3, #0]
     832:	689b      	ldr	r3, [r3, #8]
     834:	4619      	mov	r1, r3
     836:	2053      	movs	r0, #83	; 0x53
     838:	f00b f9ca 	bl	bbd0 <fputc>
  fputc('T', stdout);
     83c:	4b14      	ldr	r3, [pc, #80]	; (890 <TestStdOut()+0xa4>)
     83e:	681b      	ldr	r3, [r3, #0]
     840:	689b      	ldr	r3, [r3, #8]
     842:	4619      	mov	r1, r3
     844:	2054      	movs	r0, #84	; 0x54
     846:	f00b f9c3 	bl	bbd0 <fputc>
  fputc('!', stdout);
     84a:	4b11      	ldr	r3, [pc, #68]	; (890 <TestStdOut()+0xa4>)
     84c:	681b      	ldr	r3, [r3, #0]
     84e:	689b      	ldr	r3, [r3, #8]
     850:	4619      	mov	r1, r3
     852:	2021      	movs	r0, #33	; 0x21
     854:	f00b f9bc 	bl	bbd0 <fputc>
  fputc('\n', stdout);
     858:	4b0d      	ldr	r3, [pc, #52]	; (890 <TestStdOut()+0xa4>)
     85a:	681b      	ldr	r3, [r3, #0]
     85c:	689b      	ldr	r3, [r3, #8]
     85e:	4619      	mov	r1, r3
     860:	200a      	movs	r0, #10
     862:	f00b f9b5 	bl	bbd0 <fputc>

  printf("  Hello World\n");
     866:	480b      	ldr	r0, [pc, #44]	; (894 <TestStdOut()+0xa8>)
     868:	f00c f9d8 	bl	cc1c <puts>

  printf("  0123456789012345678901234567890123456789\n");
     86c:	480a      	ldr	r0, [pc, #40]	; (898 <TestStdOut()+0xac>)
     86e:	f00c f9d5 	bl	cc1c <puts>

  fprintf(stdout, "  fprintf output\n");
     872:	4b07      	ldr	r3, [pc, #28]	; (890 <TestStdOut()+0xa4>)
     874:	681b      	ldr	r3, [r3, #0]
     876:	689b      	ldr	r3, [r3, #8]
     878:	2211      	movs	r2, #17
     87a:	2101      	movs	r1, #1
     87c:	4807      	ldr	r0, [pc, #28]	; (89c <TestStdOut()+0xb0>)
     87e:	f00b fbed 	bl	c05c <fwrite>
  iprintf("  iprintf output\n");
     882:	4807      	ldr	r0, [pc, #28]	; (8a0 <TestStdOut()+0xb4>)
     884:	f00b fc20 	bl	c0c8 <iprintf>
     888:	bf00      	nop
     88a:	bd80      	pop	{r7, pc}
     88c:	000174ac 	.word	0x000174ac
     890:	20000124 	.word	0x20000124
     894:	000174c4 	.word	0x000174c4
     898:	000174d4 	.word	0x000174d4
     89c:	00017500 	.word	0x00017500
     8a0:	00017514 	.word	0x00017514

000008a4 <StackAlignmentTest()>:
#include "test_stack_alignment.h"
#include <assert.h>
#include <stdint.h>
#include <stdio.h>

uint32_t StackAlignmentTest() {
     8a4:	b480      	push	{r7}
     8a6:	b083      	sub	sp, #12
     8a8:	af00      	add	r7, sp, #0
  volatile uint32_t ret32 = 0xCAFEu;
     8aa:	f64c 23fe 	movw	r3, #51966	; 0xcafe
     8ae:	607b      	str	r3, [r7, #4]
  volatile uint16_t ret16 = static_cast<uint16_t>(ret32);
     8b0:	687b      	ldr	r3, [r7, #4]
     8b2:	b29b      	uxth	r3, r3
     8b4:	807b      	strh	r3, [r7, #2]
  volatile uint8_t ret8 = static_cast<uint8_t>(ret16);
     8b6:	887b      	ldrh	r3, [r7, #2]
     8b8:	b29b      	uxth	r3, r3
     8ba:	b2db      	uxtb	r3, r3
     8bc:	707b      	strb	r3, [r7, #1]
  return ret8;
     8be:	787b      	ldrb	r3, [r7, #1]
     8c0:	b2db      	uxtb	r3, r3
};
     8c2:	4618      	mov	r0, r3
     8c4:	370c      	adds	r7, #12
     8c6:	46bd      	mov	sp, r7
     8c8:	bc80      	pop	{r7}
     8ca:	4770      	bx	lr

000008cc <CallFct3(unsigned long)>:

uint32_t CallFct3(uint32_t a) {
     8cc:	b480      	push	{r7}
     8ce:	b085      	sub	sp, #20
     8d0:	af00      	add	r7, sp, #0
     8d2:	6078      	str	r0, [r7, #4]
  volatile uint32_t ret = a;
     8d4:	687b      	ldr	r3, [r7, #4]
     8d6:	60fb      	str	r3, [r7, #12]
  return ret;
     8d8:	68fb      	ldr	r3, [r7, #12]
}
     8da:	4618      	mov	r0, r3
     8dc:	3714      	adds	r7, #20
     8de:	46bd      	mov	sp, r7
     8e0:	bc80      	pop	{r7}
     8e2:	4770      	bx	lr

000008e4 <CallFct2(unsigned short)>:

uint16_t CallFct2(uint16_t a) {
     8e4:	b580      	push	{r7, lr}
     8e6:	b084      	sub	sp, #16
     8e8:	af00      	add	r7, sp, #0
     8ea:	4603      	mov	r3, r0
     8ec:	80fb      	strh	r3, [r7, #6]
  volatile uint16_t ret = static_cast<uint16_t>(CallFct3(static_cast<uint32_t>(a)));
     8ee:	88fb      	ldrh	r3, [r7, #6]
     8f0:	4618      	mov	r0, r3
     8f2:	f7ff ffeb 	bl	8cc <CallFct3(unsigned long)>
     8f6:	4603      	mov	r3, r0
     8f8:	b29b      	uxth	r3, r3
     8fa:	81fb      	strh	r3, [r7, #14]
  return ret;
     8fc:	89fb      	ldrh	r3, [r7, #14]
     8fe:	b29b      	uxth	r3, r3
}
     900:	4618      	mov	r0, r3
     902:	3710      	adds	r7, #16
     904:	46bd      	mov	sp, r7
     906:	bd80      	pop	{r7, pc}

00000908 <CallFct1(unsigned char)>:

uint8_t CallFct1(uint8_t a) {
     908:	b580      	push	{r7, lr}
     90a:	b084      	sub	sp, #16
     90c:	af00      	add	r7, sp, #0
     90e:	4603      	mov	r3, r0
     910:	71fb      	strb	r3, [r7, #7]
  volatile uint8_t ret = static_cast<uint8_t>(CallFct2(static_cast<uint16_t>(a)));
     912:	79fb      	ldrb	r3, [r7, #7]
     914:	b29b      	uxth	r3, r3
     916:	4618      	mov	r0, r3
     918:	f7ff ffe4 	bl	8e4 <CallFct2(unsigned short)>
     91c:	4603      	mov	r3, r0
     91e:	b2db      	uxtb	r3, r3
     920:	73fb      	strb	r3, [r7, #15]
  return ret;
     922:	7bfb      	ldrb	r3, [r7, #15]
     924:	b2db      	uxtb	r3, r3
}
     926:	4618      	mov	r0, r3
     928:	3710      	adds	r7, #16
     92a:	46bd      	mov	sp, r7
     92c:	bd80      	pop	{r7, pc}

0000092e <TestStackAlignment()>:

// TODO: Read out the stack pointer and check if it is aligned
void TestStackAlignment() {
     92e:	b580      	push	{r7, lr}
     930:	af00      	add	r7, sp, #0
  printf("# Test: Stack alignment\n");
     932:	480e      	ldr	r0, [pc, #56]	; (96c <TestStackAlignment()+0x3e>)
     934:	f00c f972 	bl	cc1c <puts>
  assert(StackAlignmentTest() == 0xFE);
     938:	f7ff ffb4 	bl	8a4 <StackAlignmentTest()>
     93c:	4603      	mov	r3, r0
     93e:	2bfe      	cmp	r3, #254	; 0xfe
     940:	d005      	beq.n	94e <TestStackAlignment()+0x20>
     942:	4b0b      	ldr	r3, [pc, #44]	; (970 <TestStackAlignment()+0x42>)
     944:	4a0b      	ldr	r2, [pc, #44]	; (974 <TestStackAlignment()+0x46>)
     946:	211f      	movs	r1, #31
     948:	480b      	ldr	r0, [pc, #44]	; (978 <TestStackAlignment()+0x4a>)
     94a:	f00b f8c1 	bl	bad0 <__assert_func>
  assert(CallFct1(0xDE) == 0xDE);
     94e:	20de      	movs	r0, #222	; 0xde
     950:	f7ff ffda 	bl	908 <CallFct1(unsigned char)>
     954:	4603      	mov	r3, r0
     956:	2bde      	cmp	r3, #222	; 0xde
     958:	d005      	beq.n	966 <TestStackAlignment()+0x38>
     95a:	4b08      	ldr	r3, [pc, #32]	; (97c <TestStackAlignment()+0x4e>)
     95c:	4a05      	ldr	r2, [pc, #20]	; (974 <TestStackAlignment()+0x46>)
     95e:	2120      	movs	r1, #32
     960:	4805      	ldr	r0, [pc, #20]	; (978 <TestStackAlignment()+0x4a>)
     962:	f00b f8b5 	bl	bad0 <__assert_func>
     966:	bf00      	nop
     968:	bd80      	pop	{r7, pc}
     96a:	bf00      	nop
     96c:	00017528 	.word	0x00017528
     970:	00017540 	.word	0x00017540
     974:	00017560 	.word	0x00017560
     978:	0001757c 	.word	0x0001757c
     97c:	000175cc 	.word	0x000175cc

00000980 <TestStrlen()>:
#include <assert.h>
#include <cstring>
#include <stdint.h>
#include <stdio.h>

void TestStrlen() {
     980:	b580      	push	{r7, lr}
     982:	b084      	sub	sp, #16
     984:	af00      	add	r7, sp, #0
  const char *test_str1 = "";
     986:	4b1d      	ldr	r3, [pc, #116]	; (9fc <TestStrlen()+0x7c>)
     988:	60fb      	str	r3, [r7, #12]
  assert(strlen(test_str1) == 0);
     98a:	68fb      	ldr	r3, [r7, #12]
     98c:	781b      	ldrb	r3, [r3, #0]
     98e:	2b00      	cmp	r3, #0
     990:	d005      	beq.n	99e <TestStrlen()+0x1e>
     992:	4b1b      	ldr	r3, [pc, #108]	; (a00 <TestStrlen()+0x80>)
     994:	4a1b      	ldr	r2, [pc, #108]	; (a04 <TestStrlen()+0x84>)
     996:	2109      	movs	r1, #9
     998:	481b      	ldr	r0, [pc, #108]	; (a08 <TestStrlen()+0x88>)
     99a:	f00b f899 	bl	bad0 <__assert_func>

  const char *test_str2 = "0";
     99e:	4b1b      	ldr	r3, [pc, #108]	; (a0c <TestStrlen()+0x8c>)
     9a0:	60bb      	str	r3, [r7, #8]
  assert(strlen(test_str2) == 1);
     9a2:	68b8      	ldr	r0, [r7, #8]
     9a4:	f00c fdc6 	bl	d534 <strlen>
     9a8:	4603      	mov	r3, r0
     9aa:	2b01      	cmp	r3, #1
     9ac:	d005      	beq.n	9ba <TestStrlen()+0x3a>
     9ae:	4b18      	ldr	r3, [pc, #96]	; (a10 <TestStrlen()+0x90>)
     9b0:	4a14      	ldr	r2, [pc, #80]	; (a04 <TestStrlen()+0x84>)
     9b2:	210c      	movs	r1, #12
     9b4:	4814      	ldr	r0, [pc, #80]	; (a08 <TestStrlen()+0x88>)
     9b6:	f00b f88b 	bl	bad0 <__assert_func>

  const char *test_str3 = "012345678";
     9ba:	4b16      	ldr	r3, [pc, #88]	; (a14 <TestStrlen()+0x94>)
     9bc:	607b      	str	r3, [r7, #4]
  assert(strlen(test_str3) == 9);
     9be:	6878      	ldr	r0, [r7, #4]
     9c0:	f00c fdb8 	bl	d534 <strlen>
     9c4:	4603      	mov	r3, r0
     9c6:	2b09      	cmp	r3, #9
     9c8:	d005      	beq.n	9d6 <TestStrlen()+0x56>
     9ca:	4b13      	ldr	r3, [pc, #76]	; (a18 <TestStrlen()+0x98>)
     9cc:	4a0d      	ldr	r2, [pc, #52]	; (a04 <TestStrlen()+0x84>)
     9ce:	210f      	movs	r1, #15
     9d0:	480d      	ldr	r0, [pc, #52]	; (a08 <TestStrlen()+0x88>)
     9d2:	f00b f87d 	bl	bad0 <__assert_func>

  const char *test_str4 = "main.cpp";
     9d6:	4b11      	ldr	r3, [pc, #68]	; (a1c <TestStrlen()+0x9c>)
     9d8:	603b      	str	r3, [r7, #0]
  assert(strlen(test_str4) == 8);
     9da:	6838      	ldr	r0, [r7, #0]
     9dc:	f00c fdaa 	bl	d534 <strlen>
     9e0:	4603      	mov	r3, r0
     9e2:	2b08      	cmp	r3, #8
     9e4:	d005      	beq.n	9f2 <TestStrlen()+0x72>
     9e6:	4b0e      	ldr	r3, [pc, #56]	; (a20 <TestStrlen()+0xa0>)
     9e8:	4a06      	ldr	r2, [pc, #24]	; (a04 <TestStrlen()+0x84>)
     9ea:	2112      	movs	r1, #18
     9ec:	4806      	ldr	r0, [pc, #24]	; (a08 <TestStrlen()+0x88>)
     9ee:	f00b f86f 	bl	bad0 <__assert_func>
}
     9f2:	bf00      	nop
     9f4:	3710      	adds	r7, #16
     9f6:	46bd      	mov	sp, r7
     9f8:	bd80      	pop	{r7, pc}
     9fa:	bf00      	nop
     9fc:	000175e4 	.word	0x000175e4
     a00:	000175e8 	.word	0x000175e8
     a04:	00017600 	.word	0x00017600
     a08:	00017614 	.word	0x00017614
     a0c:	0001765c 	.word	0x0001765c
     a10:	00017660 	.word	0x00017660
     a14:	00017678 	.word	0x00017678
     a18:	00017684 	.word	0x00017684
     a1c:	0001769c 	.word	0x0001769c
     a20:	000176a8 	.word	0x000176a8

00000a24 <TestStrcmp()>:

void TestStrcmp() {
     a24:	b580      	push	{r7, lr}
     a26:	b082      	sub	sp, #8
     a28:	af00      	add	r7, sp, #0

  assert(strcmp("ABCD", "ABCD") == 0);
  assert(strcmp("ABCD", "ABBC") > 0);
  assert(strcmp("ABCD", "ABdD") < 0);

  const char *test_str_cmp = "ABCDEFG";
     a2a:	4b16      	ldr	r3, [pc, #88]	; (a84 <TestStrcmp()+0x60>)
     a2c:	607b      	str	r3, [r7, #4]
  assert(strcmp(test_str_cmp, "ABCDEFG") == 0);
     a2e:	4915      	ldr	r1, [pc, #84]	; (a84 <TestStrcmp()+0x60>)
     a30:	6878      	ldr	r0, [r7, #4]
     a32:	f00c fca1 	bl	d378 <strcmp>
     a36:	4603      	mov	r3, r0
     a38:	2b00      	cmp	r3, #0
     a3a:	d005      	beq.n	a48 <TestStrcmp()+0x24>
     a3c:	4b12      	ldr	r3, [pc, #72]	; (a88 <TestStrcmp()+0x64>)
     a3e:	4a13      	ldr	r2, [pc, #76]	; (a8c <TestStrcmp()+0x68>)
     a40:	212b      	movs	r1, #43	; 0x2b
     a42:	4813      	ldr	r0, [pc, #76]	; (a90 <TestStrcmp()+0x6c>)
     a44:	f00b f844 	bl	bad0 <__assert_func>
  assert(strcmp(test_str_cmp, "ABCdEFG") < 0);
     a48:	4912      	ldr	r1, [pc, #72]	; (a94 <TestStrcmp()+0x70>)
     a4a:	6878      	ldr	r0, [r7, #4]
     a4c:	f00c fc94 	bl	d378 <strcmp>
     a50:	4603      	mov	r3, r0
     a52:	2b00      	cmp	r3, #0
     a54:	db05      	blt.n	a62 <TestStrcmp()+0x3e>
     a56:	4b10      	ldr	r3, [pc, #64]	; (a98 <TestStrcmp()+0x74>)
     a58:	4a0c      	ldr	r2, [pc, #48]	; (a8c <TestStrcmp()+0x68>)
     a5a:	212c      	movs	r1, #44	; 0x2c
     a5c:	480c      	ldr	r0, [pc, #48]	; (a90 <TestStrcmp()+0x6c>)
     a5e:	f00b f837 	bl	bad0 <__assert_func>
  assert(strcmp(test_str_cmp, "ABCCEFG") > 0);
     a62:	490e      	ldr	r1, [pc, #56]	; (a9c <TestStrcmp()+0x78>)
     a64:	6878      	ldr	r0, [r7, #4]
     a66:	f00c fc87 	bl	d378 <strcmp>
     a6a:	4603      	mov	r3, r0
     a6c:	2b00      	cmp	r3, #0
     a6e:	dc05      	bgt.n	a7c <TestStrcmp()+0x58>
     a70:	4b0b      	ldr	r3, [pc, #44]	; (aa0 <TestStrcmp()+0x7c>)
     a72:	4a06      	ldr	r2, [pc, #24]	; (a8c <TestStrcmp()+0x68>)
     a74:	212d      	movs	r1, #45	; 0x2d
     a76:	4806      	ldr	r0, [pc, #24]	; (a90 <TestStrcmp()+0x6c>)
     a78:	f00b f82a 	bl	bad0 <__assert_func>
}
     a7c:	bf00      	nop
     a7e:	3708      	adds	r7, #8
     a80:	46bd      	mov	sp, r7
     a82:	bd80      	pop	{r7, pc}
     a84:	000176c0 	.word	0x000176c0
     a88:	000176c8 	.word	0x000176c8
     a8c:	000176f0 	.word	0x000176f0
     a90:	00017614 	.word	0x00017614
     a94:	00017704 	.word	0x00017704
     a98:	0001770c 	.word	0x0001770c
     a9c:	00017730 	.word	0x00017730
     aa0:	00017738 	.word	0x00017738

00000aa4 <TestMemCpy()>:

void TestMemCpy() {
     aa4:	b580      	push	{r7, lr}
     aa6:	b086      	sub	sp, #24
     aa8:	af00      	add	r7, sp, #0
  char str1[] = "1234567890";
     aaa:	4a15      	ldr	r2, [pc, #84]	; (b00 <TestMemCpy()+0x5c>)
     aac:	f107 030c 	add.w	r3, r7, #12
     ab0:	ca07      	ldmia	r2, {r0, r1, r2}
     ab2:	c303      	stmia	r3!, {r0, r1}
     ab4:	801a      	strh	r2, [r3, #0]
     ab6:	3302      	adds	r3, #2
     ab8:	0c12      	lsrs	r2, r2, #16
     aba:	701a      	strb	r2, [r3, #0]
  char str2[] = "abcdefghij";
     abc:	4a11      	ldr	r2, [pc, #68]	; (b04 <TestMemCpy()+0x60>)
     abe:	463b      	mov	r3, r7
     ac0:	ca07      	ldmia	r2, {r0, r1, r2}
     ac2:	c303      	stmia	r3!, {r0, r1}
     ac4:	801a      	strh	r2, [r3, #0]
     ac6:	3302      	adds	r3, #2
     ac8:	0c12      	lsrs	r2, r2, #16
     aca:	701a      	strb	r2, [r3, #0]
  memcpy(str1, str2, 3);
     acc:	4639      	mov	r1, r7
     ace:	f107 030c 	add.w	r3, r7, #12
     ad2:	2203      	movs	r2, #3
     ad4:	4618      	mov	r0, r3
     ad6:	f00b fe67 	bl	c7a8 <memcpy>
  assert(strcmp(str1, "abc4567890") == 0);
     ada:	f107 030c 	add.w	r3, r7, #12
     ade:	490a      	ldr	r1, [pc, #40]	; (b08 <TestMemCpy()+0x64>)
     ae0:	4618      	mov	r0, r3
     ae2:	f00c fc49 	bl	d378 <strcmp>
     ae6:	4603      	mov	r3, r0
     ae8:	2b00      	cmp	r3, #0
     aea:	d005      	beq.n	af8 <TestMemCpy()+0x54>
     aec:	4b07      	ldr	r3, [pc, #28]	; (b0c <TestMemCpy()+0x68>)
     aee:	4a08      	ldr	r2, [pc, #32]	; (b10 <TestMemCpy()+0x6c>)
     af0:	2134      	movs	r1, #52	; 0x34
     af2:	4808      	ldr	r0, [pc, #32]	; (b14 <TestMemCpy()+0x70>)
     af4:	f00a ffec 	bl	bad0 <__assert_func>
}
     af8:	bf00      	nop
     afa:	3718      	adds	r7, #24
     afc:	46bd      	mov	sp, r7
     afe:	bd80      	pop	{r7, pc}
     b00:	0001779c 	.word	0x0001779c
     b04:	000177a8 	.word	0x000177a8
     b08:	0001775c 	.word	0x0001775c
     b0c:	00017768 	.word	0x00017768
     b10:	00017788 	.word	0x00017788
     b14:	00017614 	.word	0x00017614

00000b18 <TestMemMove()>:

void TestMemMove() {
     b18:	b580      	push	{r7, lr}
     b1a:	b084      	sub	sp, #16
     b1c:	af00      	add	r7, sp, #0
  char str[] = "1234567890";
     b1e:	4a11      	ldr	r2, [pc, #68]	; (b64 <TestMemMove()+0x4c>)
     b20:	1d3b      	adds	r3, r7, #4
     b22:	ca07      	ldmia	r2, {r0, r1, r2}
     b24:	c303      	stmia	r3!, {r0, r1}
     b26:	801a      	strh	r2, [r3, #0]
     b28:	3302      	adds	r3, #2
     b2a:	0c12      	lsrs	r2, r2, #16
     b2c:	701a      	strb	r2, [r3, #0]
  memmove(str + 4, str + 3, 3); // copies from [4, 5, 6] to [5, 6, 7]
     b2e:	1d3b      	adds	r3, r7, #4
     b30:	3304      	adds	r3, #4
     b32:	1d39      	adds	r1, r7, #4
     b34:	3103      	adds	r1, #3
     b36:	2203      	movs	r2, #3
     b38:	4618      	mov	r0, r3
     b3a:	f00b feab 	bl	c894 <memmove>
  assert(strcmp(str, "1234456890") == 0);
     b3e:	1d3b      	adds	r3, r7, #4
     b40:	4909      	ldr	r1, [pc, #36]	; (b68 <TestMemMove()+0x50>)
     b42:	4618      	mov	r0, r3
     b44:	f00c fc18 	bl	d378 <strcmp>
     b48:	4603      	mov	r3, r0
     b4a:	2b00      	cmp	r3, #0
     b4c:	d005      	beq.n	b5a <TestMemMove()+0x42>
     b4e:	4b07      	ldr	r3, [pc, #28]	; (b6c <TestMemMove()+0x54>)
     b50:	4a07      	ldr	r2, [pc, #28]	; (b70 <TestMemMove()+0x58>)
     b52:	213a      	movs	r1, #58	; 0x3a
     b54:	4807      	ldr	r0, [pc, #28]	; (b74 <TestMemMove()+0x5c>)
     b56:	f00a ffbb 	bl	bad0 <__assert_func>
}
     b5a:	bf00      	nop
     b5c:	3710      	adds	r7, #16
     b5e:	46bd      	mov	sp, r7
     b60:	bd80      	pop	{r7, pc}
     b62:	bf00      	nop
     b64:	0001779c 	.word	0x0001779c
     b68:	000177b4 	.word	0x000177b4
     b6c:	000177c0 	.word	0x000177c0
     b70:	000177e0 	.word	0x000177e0
     b74:	00017614 	.word	0x00017614

00000b78 <TestStdAlgos()>:

void TestStdAlgos() {
     b78:	b580      	push	{r7, lr}
     b7a:	af00      	add	r7, sp, #0
  printf("# Test: Standard algorithmns\n");
     b7c:	4806      	ldr	r0, [pc, #24]	; (b98 <TestStdAlgos()+0x20>)
     b7e:	f00c f84d 	bl	cc1c <puts>
  TestStrlen();
     b82:	f7ff fefd 	bl	980 <TestStrlen()>
  TestStrcmp();
     b86:	f7ff ff4d 	bl	a24 <TestStrcmp()>
  TestMemMove();
     b8a:	f7ff ffc5 	bl	b18 <TestMemMove()>
  TestMemCpy();
     b8e:	f7ff ff89 	bl	aa4 <TestMemCpy()>
     b92:	bf00      	nop
     b94:	bd80      	pop	{r7, pc}
     b96:	bf00      	nop
     b98:	000177f4 	.word	0x000177f4

00000b9c <TestIntCalc()>:
#include "test_int_calc.h"
#include <assert.h>
#include <stdint.h>
#include <stdio.h>

void TestIntCalc() {
     b9c:	b580      	push	{r7, lr}
     b9e:	b084      	sub	sp, #16
     ba0:	af00      	add	r7, sp, #0
  printf("# Test: Simple calculations with signed integers\n");
     ba2:	4893      	ldr	r0, [pc, #588]	; (df0 <TestIntCalc()+0x254>)
     ba4:	f00c f83a 	bl	cc1c <puts>
  // -----------------------------
  // 8-bit
  // -----------------------------
  volatile int8_t accu8 = 50;
     ba8:	2332      	movs	r3, #50	; 0x32
     baa:	73fb      	strb	r3, [r7, #15]

  accu8 += 52;
     bac:	7bfb      	ldrb	r3, [r7, #15]
     bae:	b25b      	sxtb	r3, r3
     bb0:	b2db      	uxtb	r3, r3
     bb2:	3334      	adds	r3, #52	; 0x34
     bb4:	b2db      	uxtb	r3, r3
     bb6:	b25b      	sxtb	r3, r3
     bb8:	73fb      	strb	r3, [r7, #15]
  assert(accu8 == 102);
     bba:	7bfb      	ldrb	r3, [r7, #15]
     bbc:	b25b      	sxtb	r3, r3
     bbe:	2b66      	cmp	r3, #102	; 0x66
     bc0:	d005      	beq.n	bce <TestIntCalc()+0x32>
     bc2:	4b8c      	ldr	r3, [pc, #560]	; (df4 <TestIntCalc()+0x258>)
     bc4:	4a8c      	ldr	r2, [pc, #560]	; (df8 <TestIntCalc()+0x25c>)
     bc6:	210e      	movs	r1, #14
     bc8:	488c      	ldr	r0, [pc, #560]	; (dfc <TestIntCalc()+0x260>)
     bca:	f00a ff81 	bl	bad0 <__assert_func>

  accu8 = accu8 - 138;
     bce:	7bfb      	ldrb	r3, [r7, #15]
     bd0:	b25b      	sxtb	r3, r3
     bd2:	b2db      	uxtb	r3, r3
     bd4:	3376      	adds	r3, #118	; 0x76
     bd6:	b2db      	uxtb	r3, r3
     bd8:	b25b      	sxtb	r3, r3
     bda:	73fb      	strb	r3, [r7, #15]
  assert(accu8 == -36);
     bdc:	7bfb      	ldrb	r3, [r7, #15]
     bde:	b25b      	sxtb	r3, r3
     be0:	f113 0f24 	cmn.w	r3, #36	; 0x24
     be4:	d005      	beq.n	bf2 <TestIntCalc()+0x56>
     be6:	4b86      	ldr	r3, [pc, #536]	; (e00 <TestIntCalc()+0x264>)
     be8:	4a83      	ldr	r2, [pc, #524]	; (df8 <TestIntCalc()+0x25c>)
     bea:	2111      	movs	r1, #17
     bec:	4883      	ldr	r0, [pc, #524]	; (dfc <TestIntCalc()+0x260>)
     bee:	f00a ff6f 	bl	bad0 <__assert_func>

  accu8 *= 3;
     bf2:	7bfb      	ldrb	r3, [r7, #15]
     bf4:	b25b      	sxtb	r3, r3
     bf6:	b2db      	uxtb	r3, r3
     bf8:	461a      	mov	r2, r3
     bfa:	0052      	lsls	r2, r2, #1
     bfc:	4413      	add	r3, r2
     bfe:	b2db      	uxtb	r3, r3
     c00:	b25b      	sxtb	r3, r3
     c02:	73fb      	strb	r3, [r7, #15]
  assert(accu8 == -108);
     c04:	7bfb      	ldrb	r3, [r7, #15]
     c06:	b25b      	sxtb	r3, r3
     c08:	f113 0f6c 	cmn.w	r3, #108	; 0x6c
     c0c:	d005      	beq.n	c1a <TestIntCalc()+0x7e>
     c0e:	4b7d      	ldr	r3, [pc, #500]	; (e04 <TestIntCalc()+0x268>)
     c10:	4a79      	ldr	r2, [pc, #484]	; (df8 <TestIntCalc()+0x25c>)
     c12:	2114      	movs	r1, #20
     c14:	4879      	ldr	r0, [pc, #484]	; (dfc <TestIntCalc()+0x260>)
     c16:	f00a ff5b 	bl	bad0 <__assert_func>

  accu8 -= 12;
     c1a:	7bfb      	ldrb	r3, [r7, #15]
     c1c:	b25b      	sxtb	r3, r3
     c1e:	b2db      	uxtb	r3, r3
     c20:	3b0c      	subs	r3, #12
     c22:	b2db      	uxtb	r3, r3
     c24:	b25b      	sxtb	r3, r3
     c26:	73fb      	strb	r3, [r7, #15]
  assert(accu8 == -120);
     c28:	7bfb      	ldrb	r3, [r7, #15]
     c2a:	b25b      	sxtb	r3, r3
     c2c:	f113 0f78 	cmn.w	r3, #120	; 0x78
     c30:	d005      	beq.n	c3e <TestIntCalc()+0xa2>
     c32:	4b75      	ldr	r3, [pc, #468]	; (e08 <TestIntCalc()+0x26c>)
     c34:	4a70      	ldr	r2, [pc, #448]	; (df8 <TestIntCalc()+0x25c>)
     c36:	2117      	movs	r1, #23
     c38:	4870      	ldr	r0, [pc, #448]	; (dfc <TestIntCalc()+0x260>)
     c3a:	f00a ff49 	bl	bad0 <__assert_func>

  accu8 /= -12;
     c3e:	7bfb      	ldrb	r3, [r7, #15]
     c40:	b25b      	sxtb	r3, r3
     c42:	4a72      	ldr	r2, [pc, #456]	; (e0c <TestIntCalc()+0x270>)
     c44:	fb82 1203 	smull	r1, r2, r2, r3
     c48:	1052      	asrs	r2, r2, #1
     c4a:	17db      	asrs	r3, r3, #31
     c4c:	1a9b      	subs	r3, r3, r2
     c4e:	b25b      	sxtb	r3, r3
     c50:	73fb      	strb	r3, [r7, #15]
  assert(accu8 == 10);
     c52:	7bfb      	ldrb	r3, [r7, #15]
     c54:	b25b      	sxtb	r3, r3
     c56:	2b0a      	cmp	r3, #10
     c58:	d005      	beq.n	c66 <TestIntCalc()+0xca>
     c5a:	4b6d      	ldr	r3, [pc, #436]	; (e10 <TestIntCalc()+0x274>)
     c5c:	4a66      	ldr	r2, [pc, #408]	; (df8 <TestIntCalc()+0x25c>)
     c5e:	211a      	movs	r1, #26
     c60:	4866      	ldr	r0, [pc, #408]	; (dfc <TestIntCalc()+0x260>)
     c62:	f00a ff35 	bl	bad0 <__assert_func>

  // overflow tests
  accu8 = -128;
     c66:	2380      	movs	r3, #128	; 0x80
     c68:	73fb      	strb	r3, [r7, #15]
  accu8 = accu8 - 10;
     c6a:	7bfb      	ldrb	r3, [r7, #15]
     c6c:	b25b      	sxtb	r3, r3
     c6e:	b2db      	uxtb	r3, r3
     c70:	3b0a      	subs	r3, #10
     c72:	b2db      	uxtb	r3, r3
     c74:	b25b      	sxtb	r3, r3
     c76:	73fb      	strb	r3, [r7, #15]
  assert(accu8 == 118);
     c78:	7bfb      	ldrb	r3, [r7, #15]
     c7a:	b25b      	sxtb	r3, r3
     c7c:	2b76      	cmp	r3, #118	; 0x76
     c7e:	d005      	beq.n	c8c <TestIntCalc()+0xf0>
     c80:	4b64      	ldr	r3, [pc, #400]	; (e14 <TestIntCalc()+0x278>)
     c82:	4a5d      	ldr	r2, [pc, #372]	; (df8 <TestIntCalc()+0x25c>)
     c84:	211f      	movs	r1, #31
     c86:	485d      	ldr	r0, [pc, #372]	; (dfc <TestIntCalc()+0x260>)
     c88:	f00a ff22 	bl	bad0 <__assert_func>

  // accumulate tests
  accu8 = 1u;
     c8c:	2301      	movs	r3, #1
     c8e:	73fb      	strb	r3, [r7, #15]
  accu8 = accu8 * accu8 + accu8; // 2
     c90:	7bfb      	ldrb	r3, [r7, #15]
     c92:	b25b      	sxtb	r3, r3
     c94:	b2db      	uxtb	r3, r3
     c96:	7bfa      	ldrb	r2, [r7, #15]
     c98:	b252      	sxtb	r2, r2
     c9a:	b2d2      	uxtb	r2, r2
     c9c:	fb02 f303 	mul.w	r3, r2, r3
     ca0:	b2da      	uxtb	r2, r3
     ca2:	7bfb      	ldrb	r3, [r7, #15]
     ca4:	b25b      	sxtb	r3, r3
     ca6:	b2db      	uxtb	r3, r3
     ca8:	4413      	add	r3, r2
     caa:	b2db      	uxtb	r3, r3
     cac:	b25b      	sxtb	r3, r3
     cae:	73fb      	strb	r3, [r7, #15]
  accu8 = accu8 * accu8 + accu8; // 6
     cb0:	7bfb      	ldrb	r3, [r7, #15]
     cb2:	b25b      	sxtb	r3, r3
     cb4:	b2db      	uxtb	r3, r3
     cb6:	7bfa      	ldrb	r2, [r7, #15]
     cb8:	b252      	sxtb	r2, r2
     cba:	b2d2      	uxtb	r2, r2
     cbc:	fb02 f303 	mul.w	r3, r2, r3
     cc0:	b2da      	uxtb	r2, r3
     cc2:	7bfb      	ldrb	r3, [r7, #15]
     cc4:	b25b      	sxtb	r3, r3
     cc6:	b2db      	uxtb	r3, r3
     cc8:	4413      	add	r3, r2
     cca:	b2db      	uxtb	r3, r3
     ccc:	b25b      	sxtb	r3, r3
     cce:	73fb      	strb	r3, [r7, #15]
  accu8 = accu8 * accu8 + accu8; // 42
     cd0:	7bfb      	ldrb	r3, [r7, #15]
     cd2:	b25b      	sxtb	r3, r3
     cd4:	b2db      	uxtb	r3, r3
     cd6:	7bfa      	ldrb	r2, [r7, #15]
     cd8:	b252      	sxtb	r2, r2
     cda:	b2d2      	uxtb	r2, r2
     cdc:	fb02 f303 	mul.w	r3, r2, r3
     ce0:	b2da      	uxtb	r2, r3
     ce2:	7bfb      	ldrb	r3, [r7, #15]
     ce4:	b25b      	sxtb	r3, r3
     ce6:	b2db      	uxtb	r3, r3
     ce8:	4413      	add	r3, r2
     cea:	b2db      	uxtb	r3, r3
     cec:	b25b      	sxtb	r3, r3
     cee:	73fb      	strb	r3, [r7, #15]
  assert(accu8 == 42u);
     cf0:	7bfb      	ldrb	r3, [r7, #15]
     cf2:	b25b      	sxtb	r3, r3
     cf4:	2b2a      	cmp	r3, #42	; 0x2a
     cf6:	d005      	beq.n	d04 <TestIntCalc()+0x168>
     cf8:	4b47      	ldr	r3, [pc, #284]	; (e18 <TestIntCalc()+0x27c>)
     cfa:	4a3f      	ldr	r2, [pc, #252]	; (df8 <TestIntCalc()+0x25c>)
     cfc:	2126      	movs	r1, #38	; 0x26
     cfe:	483f      	ldr	r0, [pc, #252]	; (dfc <TestIntCalc()+0x260>)
     d00:	f00a fee6 	bl	bad0 <__assert_func>

  // -----------------------------
  // 16-bit
  // -----------------------------
  volatile int16_t accu16 = 50;
     d04:	2332      	movs	r3, #50	; 0x32
     d06:	81bb      	strh	r3, [r7, #12]

  accu16 += 52;
     d08:	89bb      	ldrh	r3, [r7, #12]
     d0a:	b21b      	sxth	r3, r3
     d0c:	b29b      	uxth	r3, r3
     d0e:	3334      	adds	r3, #52	; 0x34
     d10:	b29b      	uxth	r3, r3
     d12:	b21b      	sxth	r3, r3
     d14:	81bb      	strh	r3, [r7, #12]
  assert(accu16 == 102);
     d16:	89bb      	ldrh	r3, [r7, #12]
     d18:	b21b      	sxth	r3, r3
     d1a:	2b66      	cmp	r3, #102	; 0x66
     d1c:	d005      	beq.n	d2a <TestIntCalc()+0x18e>
     d1e:	4b3f      	ldr	r3, [pc, #252]	; (e1c <TestIntCalc()+0x280>)
     d20:	4a35      	ldr	r2, [pc, #212]	; (df8 <TestIntCalc()+0x25c>)
     d22:	212e      	movs	r1, #46	; 0x2e
     d24:	4835      	ldr	r0, [pc, #212]	; (dfc <TestIntCalc()+0x260>)
     d26:	f00a fed3 	bl	bad0 <__assert_func>

  accu16 = accu16 - 138;
     d2a:	89bb      	ldrh	r3, [r7, #12]
     d2c:	b21b      	sxth	r3, r3
     d2e:	b29b      	uxth	r3, r3
     d30:	3b8a      	subs	r3, #138	; 0x8a
     d32:	b29b      	uxth	r3, r3
     d34:	b21b      	sxth	r3, r3
     d36:	81bb      	strh	r3, [r7, #12]
  assert(accu16 == -36);
     d38:	89bb      	ldrh	r3, [r7, #12]
     d3a:	b21b      	sxth	r3, r3
     d3c:	f113 0f24 	cmn.w	r3, #36	; 0x24
     d40:	d005      	beq.n	d4e <TestIntCalc()+0x1b2>
     d42:	4b37      	ldr	r3, [pc, #220]	; (e20 <TestIntCalc()+0x284>)
     d44:	4a2c      	ldr	r2, [pc, #176]	; (df8 <TestIntCalc()+0x25c>)
     d46:	2131      	movs	r1, #49	; 0x31
     d48:	482c      	ldr	r0, [pc, #176]	; (dfc <TestIntCalc()+0x260>)
     d4a:	f00a fec1 	bl	bad0 <__assert_func>

  accu16 *= 3;
     d4e:	89bb      	ldrh	r3, [r7, #12]
     d50:	b21b      	sxth	r3, r3
     d52:	b29b      	uxth	r3, r3
     d54:	461a      	mov	r2, r3
     d56:	0052      	lsls	r2, r2, #1
     d58:	4413      	add	r3, r2
     d5a:	b29b      	uxth	r3, r3
     d5c:	b21b      	sxth	r3, r3
     d5e:	81bb      	strh	r3, [r7, #12]
  assert(accu16 == -108);
     d60:	89bb      	ldrh	r3, [r7, #12]
     d62:	b21b      	sxth	r3, r3
     d64:	f113 0f6c 	cmn.w	r3, #108	; 0x6c
     d68:	d005      	beq.n	d76 <TestIntCalc()+0x1da>
     d6a:	4b2e      	ldr	r3, [pc, #184]	; (e24 <TestIntCalc()+0x288>)
     d6c:	4a22      	ldr	r2, [pc, #136]	; (df8 <TestIntCalc()+0x25c>)
     d6e:	2134      	movs	r1, #52	; 0x34
     d70:	4822      	ldr	r0, [pc, #136]	; (dfc <TestIntCalc()+0x260>)
     d72:	f00a fead 	bl	bad0 <__assert_func>

  accu16 -= 12;
     d76:	89bb      	ldrh	r3, [r7, #12]
     d78:	b21b      	sxth	r3, r3
     d7a:	b29b      	uxth	r3, r3
     d7c:	3b0c      	subs	r3, #12
     d7e:	b29b      	uxth	r3, r3
     d80:	b21b      	sxth	r3, r3
     d82:	81bb      	strh	r3, [r7, #12]
  assert(accu16 == -120);
     d84:	89bb      	ldrh	r3, [r7, #12]
     d86:	b21b      	sxth	r3, r3
     d88:	f113 0f78 	cmn.w	r3, #120	; 0x78
     d8c:	d005      	beq.n	d9a <TestIntCalc()+0x1fe>
     d8e:	4b26      	ldr	r3, [pc, #152]	; (e28 <TestIntCalc()+0x28c>)
     d90:	4a19      	ldr	r2, [pc, #100]	; (df8 <TestIntCalc()+0x25c>)
     d92:	2137      	movs	r1, #55	; 0x37
     d94:	4819      	ldr	r0, [pc, #100]	; (dfc <TestIntCalc()+0x260>)
     d96:	f00a fe9b 	bl	bad0 <__assert_func>

  accu16 /= -12;
     d9a:	89bb      	ldrh	r3, [r7, #12]
     d9c:	b21b      	sxth	r3, r3
     d9e:	4a1b      	ldr	r2, [pc, #108]	; (e0c <TestIntCalc()+0x270>)
     da0:	fb82 1203 	smull	r1, r2, r2, r3
     da4:	1052      	asrs	r2, r2, #1
     da6:	17db      	asrs	r3, r3, #31
     da8:	1a9b      	subs	r3, r3, r2
     daa:	b21b      	sxth	r3, r3
     dac:	81bb      	strh	r3, [r7, #12]
  assert(accu16 == 10);
     dae:	89bb      	ldrh	r3, [r7, #12]
     db0:	b21b      	sxth	r3, r3
     db2:	2b0a      	cmp	r3, #10
     db4:	d005      	beq.n	dc2 <TestIntCalc()+0x226>
     db6:	4b1d      	ldr	r3, [pc, #116]	; (e2c <TestIntCalc()+0x290>)
     db8:	4a0f      	ldr	r2, [pc, #60]	; (df8 <TestIntCalc()+0x25c>)
     dba:	213a      	movs	r1, #58	; 0x3a
     dbc:	480f      	ldr	r0, [pc, #60]	; (dfc <TestIntCalc()+0x260>)
     dbe:	f00a fe87 	bl	bad0 <__assert_func>

  // overlfow tests
  accu16 = -32768;
     dc2:	f44f 4300 	mov.w	r3, #32768	; 0x8000
     dc6:	81bb      	strh	r3, [r7, #12]
  accu16 = accu16 - 10;
     dc8:	89bb      	ldrh	r3, [r7, #12]
     dca:	b21b      	sxth	r3, r3
     dcc:	b29b      	uxth	r3, r3
     dce:	3b0a      	subs	r3, #10
     dd0:	b29b      	uxth	r3, r3
     dd2:	b21b      	sxth	r3, r3
     dd4:	81bb      	strh	r3, [r7, #12]
  assert(accu16 == 32758);
     dd6:	89bb      	ldrh	r3, [r7, #12]
     dd8:	b21b      	sxth	r3, r3
     dda:	f647 72f6 	movw	r2, #32758	; 0x7ff6
     dde:	4293      	cmp	r3, r2
     de0:	d028      	beq.n	e34 <TestIntCalc()+0x298>
     de2:	4b13      	ldr	r3, [pc, #76]	; (e30 <TestIntCalc()+0x294>)
     de4:	4a04      	ldr	r2, [pc, #16]	; (df8 <TestIntCalc()+0x25c>)
     de6:	213f      	movs	r1, #63	; 0x3f
     de8:	4804      	ldr	r0, [pc, #16]	; (dfc <TestIntCalc()+0x260>)
     dea:	f00a fe71 	bl	bad0 <__assert_func>
     dee:	bf00      	nop
     df0:	00017814 	.word	0x00017814
     df4:	00017848 	.word	0x00017848
     df8:	00017858 	.word	0x00017858
     dfc:	0001786c 	.word	0x0001786c
     e00:	000178b4 	.word	0x000178b4
     e04:	000178c4 	.word	0x000178c4
     e08:	000178d4 	.word	0x000178d4
     e0c:	2aaaaaab 	.word	0x2aaaaaab
     e10:	000178e4 	.word	0x000178e4
     e14:	000178f0 	.word	0x000178f0
     e18:	00017900 	.word	0x00017900
     e1c:	00017910 	.word	0x00017910
     e20:	00017920 	.word	0x00017920
     e24:	00017930 	.word	0x00017930
     e28:	00017940 	.word	0x00017940
     e2c:	00017950 	.word	0x00017950
     e30:	00017960 	.word	0x00017960

  // accumulate tests
  accu16 = 1u;
     e34:	2301      	movs	r3, #1
     e36:	81bb      	strh	r3, [r7, #12]
  accu16 = accu16 * accu16 + accu16; // 2
     e38:	89bb      	ldrh	r3, [r7, #12]
     e3a:	b21b      	sxth	r3, r3
     e3c:	b29b      	uxth	r3, r3
     e3e:	89ba      	ldrh	r2, [r7, #12]
     e40:	b212      	sxth	r2, r2
     e42:	b292      	uxth	r2, r2
     e44:	fb02 f303 	mul.w	r3, r2, r3
     e48:	b29a      	uxth	r2, r3
     e4a:	89bb      	ldrh	r3, [r7, #12]
     e4c:	b21b      	sxth	r3, r3
     e4e:	b29b      	uxth	r3, r3
     e50:	4413      	add	r3, r2
     e52:	b29b      	uxth	r3, r3
     e54:	b21b      	sxth	r3, r3
     e56:	81bb      	strh	r3, [r7, #12]
  accu16 = accu16 * accu16 + accu16; // 6
     e58:	89bb      	ldrh	r3, [r7, #12]
     e5a:	b21b      	sxth	r3, r3
     e5c:	b29b      	uxth	r3, r3
     e5e:	89ba      	ldrh	r2, [r7, #12]
     e60:	b212      	sxth	r2, r2
     e62:	b292      	uxth	r2, r2
     e64:	fb02 f303 	mul.w	r3, r2, r3
     e68:	b29a      	uxth	r2, r3
     e6a:	89bb      	ldrh	r3, [r7, #12]
     e6c:	b21b      	sxth	r3, r3
     e6e:	b29b      	uxth	r3, r3
     e70:	4413      	add	r3, r2
     e72:	b29b      	uxth	r3, r3
     e74:	b21b      	sxth	r3, r3
     e76:	81bb      	strh	r3, [r7, #12]
  accu16 = accu16 * accu16 + accu16; // 42
     e78:	89bb      	ldrh	r3, [r7, #12]
     e7a:	b21b      	sxth	r3, r3
     e7c:	b29b      	uxth	r3, r3
     e7e:	89ba      	ldrh	r2, [r7, #12]
     e80:	b212      	sxth	r2, r2
     e82:	b292      	uxth	r2, r2
     e84:	fb02 f303 	mul.w	r3, r2, r3
     e88:	b29a      	uxth	r2, r3
     e8a:	89bb      	ldrh	r3, [r7, #12]
     e8c:	b21b      	sxth	r3, r3
     e8e:	b29b      	uxth	r3, r3
     e90:	4413      	add	r3, r2
     e92:	b29b      	uxth	r3, r3
     e94:	b21b      	sxth	r3, r3
     e96:	81bb      	strh	r3, [r7, #12]
  assert(accu16 == 42u);
     e98:	89bb      	ldrh	r3, [r7, #12]
     e9a:	b21b      	sxth	r3, r3
     e9c:	2b2a      	cmp	r3, #42	; 0x2a
     e9e:	d005      	beq.n	eac <TestIntCalc()+0x310>
     ea0:	4b54      	ldr	r3, [pc, #336]	; (ff4 <TestIntCalc()+0x458>)
     ea2:	4a55      	ldr	r2, [pc, #340]	; (ff8 <TestIntCalc()+0x45c>)
     ea4:	2146      	movs	r1, #70	; 0x46
     ea6:	4855      	ldr	r0, [pc, #340]	; (ffc <TestIntCalc()+0x460>)
     ea8:	f00a fe12 	bl	bad0 <__assert_func>

  // -----------------------------
  // 32-bit
  // -----------------------------
  volatile int32_t accu32 = 50;
     eac:	2332      	movs	r3, #50	; 0x32
     eae:	60bb      	str	r3, [r7, #8]

  accu32 += 52;
     eb0:	68bb      	ldr	r3, [r7, #8]
     eb2:	3334      	adds	r3, #52	; 0x34
     eb4:	60bb      	str	r3, [r7, #8]
  assert(accu32 == 102);
     eb6:	68bb      	ldr	r3, [r7, #8]
     eb8:	2b66      	cmp	r3, #102	; 0x66
     eba:	d005      	beq.n	ec8 <TestIntCalc()+0x32c>
     ebc:	4b50      	ldr	r3, [pc, #320]	; (1000 <Heap_Size>)
     ebe:	4a4e      	ldr	r2, [pc, #312]	; (ff8 <TestIntCalc()+0x45c>)
     ec0:	214e      	movs	r1, #78	; 0x4e
     ec2:	484e      	ldr	r0, [pc, #312]	; (ffc <TestIntCalc()+0x460>)
     ec4:	f00a fe04 	bl	bad0 <__assert_func>

  accu32 = accu32 - 138;
     ec8:	68bb      	ldr	r3, [r7, #8]
     eca:	3b8a      	subs	r3, #138	; 0x8a
     ecc:	60bb      	str	r3, [r7, #8]
  assert(accu32 == -36);
     ece:	68bb      	ldr	r3, [r7, #8]
     ed0:	f113 0f24 	cmn.w	r3, #36	; 0x24
     ed4:	d005      	beq.n	ee2 <TestIntCalc()+0x346>
     ed6:	4b4b      	ldr	r3, [pc, #300]	; (1004 <Heap_Size+0x4>)
     ed8:	4a47      	ldr	r2, [pc, #284]	; (ff8 <TestIntCalc()+0x45c>)
     eda:	2151      	movs	r1, #81	; 0x51
     edc:	4847      	ldr	r0, [pc, #284]	; (ffc <TestIntCalc()+0x460>)
     ede:	f00a fdf7 	bl	bad0 <__assert_func>

  accu32 *= 3;
     ee2:	68ba      	ldr	r2, [r7, #8]
     ee4:	4613      	mov	r3, r2
     ee6:	005b      	lsls	r3, r3, #1
     ee8:	4413      	add	r3, r2
     eea:	60bb      	str	r3, [r7, #8]
  assert(accu32 == -108);
     eec:	68bb      	ldr	r3, [r7, #8]
     eee:	f113 0f6c 	cmn.w	r3, #108	; 0x6c
     ef2:	d005      	beq.n	f00 <TestIntCalc()+0x364>
     ef4:	4b44      	ldr	r3, [pc, #272]	; (1008 <Heap_Size+0x8>)
     ef6:	4a40      	ldr	r2, [pc, #256]	; (ff8 <TestIntCalc()+0x45c>)
     ef8:	2154      	movs	r1, #84	; 0x54
     efa:	4840      	ldr	r0, [pc, #256]	; (ffc <TestIntCalc()+0x460>)
     efc:	f00a fde8 	bl	bad0 <__assert_func>

  accu32 -= 12;
     f00:	68bb      	ldr	r3, [r7, #8]
     f02:	3b0c      	subs	r3, #12
     f04:	60bb      	str	r3, [r7, #8]
  assert(accu32 == -120);
     f06:	68bb      	ldr	r3, [r7, #8]
     f08:	f113 0f78 	cmn.w	r3, #120	; 0x78
     f0c:	d005      	beq.n	f1a <TestIntCalc()+0x37e>
     f0e:	4b3f      	ldr	r3, [pc, #252]	; (100c <Heap_Size+0xc>)
     f10:	4a39      	ldr	r2, [pc, #228]	; (ff8 <TestIntCalc()+0x45c>)
     f12:	2157      	movs	r1, #87	; 0x57
     f14:	4839      	ldr	r0, [pc, #228]	; (ffc <TestIntCalc()+0x460>)
     f16:	f00a fddb 	bl	bad0 <__assert_func>

  accu32 /= -12;
     f1a:	68bb      	ldr	r3, [r7, #8]
     f1c:	4a3c      	ldr	r2, [pc, #240]	; (1010 <Heap_Size+0x10>)
     f1e:	fb82 1203 	smull	r1, r2, r2, r3
     f22:	1052      	asrs	r2, r2, #1
     f24:	17db      	asrs	r3, r3, #31
     f26:	1a9b      	subs	r3, r3, r2
     f28:	60bb      	str	r3, [r7, #8]
  assert(accu32 == 10);
     f2a:	68bb      	ldr	r3, [r7, #8]
     f2c:	2b0a      	cmp	r3, #10
     f2e:	d005      	beq.n	f3c <TestIntCalc()+0x3a0>
     f30:	4b38      	ldr	r3, [pc, #224]	; (1014 <Heap_Size+0x14>)
     f32:	4a31      	ldr	r2, [pc, #196]	; (ff8 <TestIntCalc()+0x45c>)
     f34:	215a      	movs	r1, #90	; 0x5a
     f36:	4831      	ldr	r0, [pc, #196]	; (ffc <TestIntCalc()+0x460>)
     f38:	f00a fdca 	bl	bad0 <__assert_func>

  // overflow tests
  accu32 = -2147483648;
     f3c:	f04f 4300 	mov.w	r3, #2147483648	; 0x80000000
     f40:	60bb      	str	r3, [r7, #8]
  accu32 = accu32 - 10;
     f42:	68bb      	ldr	r3, [r7, #8]
     f44:	3b0a      	subs	r3, #10
     f46:	60bb      	str	r3, [r7, #8]
  assert(accu32 == 2147483638);
     f48:	68bb      	ldr	r3, [r7, #8]
     f4a:	4a33      	ldr	r2, [pc, #204]	; (1018 <Heap_Size+0x18>)
     f4c:	4293      	cmp	r3, r2
     f4e:	d005      	beq.n	f5c <TestIntCalc()+0x3c0>
     f50:	4b32      	ldr	r3, [pc, #200]	; (101c <Heap_Size+0x1c>)
     f52:	4a29      	ldr	r2, [pc, #164]	; (ff8 <TestIntCalc()+0x45c>)
     f54:	215f      	movs	r1, #95	; 0x5f
     f56:	4829      	ldr	r0, [pc, #164]	; (ffc <TestIntCalc()+0x460>)
     f58:	f00a fdba 	bl	bad0 <__assert_func>

  // accumulate tests
  accu32 = 1u;
     f5c:	2301      	movs	r3, #1
     f5e:	60bb      	str	r3, [r7, #8]

  accu32 = accu32 * accu32 + accu32; // 2
     f60:	68bb      	ldr	r3, [r7, #8]
     f62:	68ba      	ldr	r2, [r7, #8]
     f64:	fb03 f202 	mul.w	r2, r3, r2
     f68:	68bb      	ldr	r3, [r7, #8]
     f6a:	4413      	add	r3, r2
     f6c:	60bb      	str	r3, [r7, #8]
  accu32 = accu32 * accu32 + accu32; // 6
     f6e:	68bb      	ldr	r3, [r7, #8]
     f70:	68ba      	ldr	r2, [r7, #8]
     f72:	fb03 f202 	mul.w	r2, r3, r2
     f76:	68bb      	ldr	r3, [r7, #8]
     f78:	4413      	add	r3, r2
     f7a:	60bb      	str	r3, [r7, #8]
  accu32 = accu32 * accu32 + accu32; // 42
     f7c:	68bb      	ldr	r3, [r7, #8]
     f7e:	68ba      	ldr	r2, [r7, #8]
     f80:	fb03 f202 	mul.w	r2, r3, r2
     f84:	68bb      	ldr	r3, [r7, #8]
     f86:	4413      	add	r3, r2
     f88:	60bb      	str	r3, [r7, #8]
  assert(accu32 == 42u);
     f8a:	68bb      	ldr	r3, [r7, #8]
     f8c:	2b2a      	cmp	r3, #42	; 0x2a
     f8e:	d005      	beq.n	f9c <TestIntCalc()+0x400>
     f90:	4b23      	ldr	r3, [pc, #140]	; (1020 <Heap_Size+0x20>)
     f92:	4a19      	ldr	r2, [pc, #100]	; (ff8 <TestIntCalc()+0x45c>)
     f94:	2167      	movs	r1, #103	; 0x67
     f96:	4819      	ldr	r0, [pc, #100]	; (ffc <TestIntCalc()+0x460>)
     f98:	f00a fd9a 	bl	bad0 <__assert_func>

  // -----------------------------
  // 32-bit Modulo Tests
  // -----------------------------

  volatile int32_t a = 0x80000000;
     f9c:	f04f 4300 	mov.w	r3, #2147483648	; 0x80000000
     fa0:	607b      	str	r3, [r7, #4]
  volatile int32_t b = 0x80000000;
     fa2:	f04f 4300 	mov.w	r3, #2147483648	; 0x80000000
     fa6:	603b      	str	r3, [r7, #0]

  assert((a % b) == 0);
     fa8:	687b      	ldr	r3, [r7, #4]
     faa:	683a      	ldr	r2, [r7, #0]
     fac:	fb93 f1f2 	sdiv	r1, r3, r2
     fb0:	fb01 f202 	mul.w	r2, r1, r2
     fb4:	1a9b      	subs	r3, r3, r2
     fb6:	2b00      	cmp	r3, #0
     fb8:	d005      	beq.n	fc6 <TestIntCalc()+0x42a>
     fba:	4b1a      	ldr	r3, [pc, #104]	; (1024 <Heap_Size+0x24>)
     fbc:	4a0e      	ldr	r2, [pc, #56]	; (ff8 <TestIntCalc()+0x45c>)
     fbe:	2170      	movs	r1, #112	; 0x70
     fc0:	480e      	ldr	r0, [pc, #56]	; (ffc <TestIntCalc()+0x460>)
     fc2:	f00a fd85 	bl	bad0 <__assert_func>

  a += 1u;
     fc6:	687b      	ldr	r3, [r7, #4]
     fc8:	3301      	adds	r3, #1
     fca:	607b      	str	r3, [r7, #4]
  assert((a % b) == 0x80000001); // signed divison result
     fcc:	687b      	ldr	r3, [r7, #4]
     fce:	683a      	ldr	r2, [r7, #0]
     fd0:	fb93 f1f2 	sdiv	r1, r3, r2
     fd4:	fb01 f202 	mul.w	r2, r1, r2
     fd8:	1a9b      	subs	r3, r3, r2
     fda:	4a13      	ldr	r2, [pc, #76]	; (1028 <Heap_Size+0x28>)
     fdc:	4293      	cmp	r3, r2
     fde:	d005      	beq.n	fec <TestIntCalc()+0x450>
     fe0:	4b12      	ldr	r3, [pc, #72]	; (102c <Heap_Size+0x2c>)
     fe2:	4a05      	ldr	r2, [pc, #20]	; (ff8 <TestIntCalc()+0x45c>)
     fe4:	2173      	movs	r1, #115	; 0x73
     fe6:	4805      	ldr	r0, [pc, #20]	; (ffc <TestIntCalc()+0x460>)
     fe8:	f00a fd72 	bl	bad0 <__assert_func>
     fec:	bf00      	nop
     fee:	3710      	adds	r7, #16
     ff0:	46bd      	mov	sp, r7
     ff2:	bd80      	pop	{r7, pc}
     ff4:	00017970 	.word	0x00017970
     ff8:	00017858 	.word	0x00017858
     ffc:	0001786c 	.word	0x0001786c
    1000:	00017980 	.word	0x00017980
    1004:	00017990 	.word	0x00017990
    1008:	000179a0 	.word	0x000179a0
    100c:	000179b0 	.word	0x000179b0
    1010:	2aaaaaab 	.word	0x2aaaaaab
    1014:	000179c0 	.word	0x000179c0
    1018:	7ffffff6 	.word	0x7ffffff6
    101c:	000179d0 	.word	0x000179d0
    1020:	000179e8 	.word	0x000179e8
    1024:	000179f8 	.word	0x000179f8
    1028:	80000001 	.word	0x80000001
    102c:	00017a08 	.word	0x00017a08

00001030 <TestUIntCalc()>:
#include "test_uint_calc.h"
#include <assert.h>
#include <stdint.h>
#include <stdio.h>

void TestUIntCalc() {
    1030:	b580      	push	{r7, lr}
    1032:	b084      	sub	sp, #16
    1034:	af00      	add	r7, sp, #0
  printf("# Test: Simple calculations with unsigned integers\n");
    1036:	4893      	ldr	r0, [pc, #588]	; (1284 <TestUIntCalc()+0x254>)
    1038:	f00b fdf0 	bl	cc1c <puts>
  // -----------------------------
  // 8-bit
  // -----------------------------
  volatile uint8_t accu8 = 123u;
    103c:	237b      	movs	r3, #123	; 0x7b
    103e:	73fb      	strb	r3, [r7, #15]

  accu8 += 123u;
    1040:	7bfb      	ldrb	r3, [r7, #15]
    1042:	b2db      	uxtb	r3, r3
    1044:	337b      	adds	r3, #123	; 0x7b
    1046:	b2db      	uxtb	r3, r3
    1048:	73fb      	strb	r3, [r7, #15]
  assert(accu8 == 246u);
    104a:	7bfb      	ldrb	r3, [r7, #15]
    104c:	b2db      	uxtb	r3, r3
    104e:	2bf6      	cmp	r3, #246	; 0xf6
    1050:	d005      	beq.n	105e <TestUIntCalc()+0x2e>
    1052:	4b8d      	ldr	r3, [pc, #564]	; (1288 <TestUIntCalc()+0x258>)
    1054:	4a8d      	ldr	r2, [pc, #564]	; (128c <TestUIntCalc()+0x25c>)
    1056:	210e      	movs	r1, #14
    1058:	488d      	ldr	r0, [pc, #564]	; (1290 <TestUIntCalc()+0x260>)
    105a:	f00a fd39 	bl	bad0 <__assert_func>

  accu8 = accu8 - 238u;
    105e:	7bfb      	ldrb	r3, [r7, #15]
    1060:	b2db      	uxtb	r3, r3
    1062:	3312      	adds	r3, #18
    1064:	b2db      	uxtb	r3, r3
    1066:	73fb      	strb	r3, [r7, #15]
  assert(accu8 == 8u);
    1068:	7bfb      	ldrb	r3, [r7, #15]
    106a:	b2db      	uxtb	r3, r3
    106c:	2b08      	cmp	r3, #8
    106e:	d005      	beq.n	107c <TestUIntCalc()+0x4c>
    1070:	4b88      	ldr	r3, [pc, #544]	; (1294 <TestUIntCalc()+0x264>)
    1072:	4a86      	ldr	r2, [pc, #536]	; (128c <TestUIntCalc()+0x25c>)
    1074:	2111      	movs	r1, #17
    1076:	4886      	ldr	r0, [pc, #536]	; (1290 <TestUIntCalc()+0x260>)
    1078:	f00a fd2a 	bl	bad0 <__assert_func>

  accu8 *= 7u;
    107c:	7bfb      	ldrb	r3, [r7, #15]
    107e:	b2db      	uxtb	r3, r3
    1080:	461a      	mov	r2, r3
    1082:	00d2      	lsls	r2, r2, #3
    1084:	1ad3      	subs	r3, r2, r3
    1086:	b2db      	uxtb	r3, r3
    1088:	73fb      	strb	r3, [r7, #15]
  assert(accu8 == 56u);
    108a:	7bfb      	ldrb	r3, [r7, #15]
    108c:	b2db      	uxtb	r3, r3
    108e:	2b38      	cmp	r3, #56	; 0x38
    1090:	d005      	beq.n	109e <TestUIntCalc()+0x6e>
    1092:	4b81      	ldr	r3, [pc, #516]	; (1298 <TestUIntCalc()+0x268>)
    1094:	4a7d      	ldr	r2, [pc, #500]	; (128c <TestUIntCalc()+0x25c>)
    1096:	2114      	movs	r1, #20
    1098:	487d      	ldr	r0, [pc, #500]	; (1290 <TestUIntCalc()+0x260>)
    109a:	f00a fd19 	bl	bad0 <__assert_func>

  accu8 -= 57u;
    109e:	7bfb      	ldrb	r3, [r7, #15]
    10a0:	b2db      	uxtb	r3, r3
    10a2:	3b39      	subs	r3, #57	; 0x39
    10a4:	b2db      	uxtb	r3, r3
    10a6:	73fb      	strb	r3, [r7, #15]
  assert(accu8 == 255u);
    10a8:	7bfb      	ldrb	r3, [r7, #15]
    10aa:	b2db      	uxtb	r3, r3
    10ac:	2bff      	cmp	r3, #255	; 0xff
    10ae:	d005      	beq.n	10bc <TestUIntCalc()+0x8c>
    10b0:	4b7a      	ldr	r3, [pc, #488]	; (129c <TestUIntCalc()+0x26c>)
    10b2:	4a76      	ldr	r2, [pc, #472]	; (128c <TestUIntCalc()+0x25c>)
    10b4:	2117      	movs	r1, #23
    10b6:	4876      	ldr	r0, [pc, #472]	; (1290 <TestUIntCalc()+0x260>)
    10b8:	f00a fd0a 	bl	bad0 <__assert_func>

  accu8 /= 25u;
    10bc:	7bfb      	ldrb	r3, [r7, #15]
    10be:	b2db      	uxtb	r3, r3
    10c0:	4a77      	ldr	r2, [pc, #476]	; (12a0 <TestUIntCalc()+0x270>)
    10c2:	fba2 2303 	umull	r2, r3, r2, r3
    10c6:	08db      	lsrs	r3, r3, #3
    10c8:	b2db      	uxtb	r3, r3
    10ca:	73fb      	strb	r3, [r7, #15]
  assert(accu8 == 10u);
    10cc:	7bfb      	ldrb	r3, [r7, #15]
    10ce:	b2db      	uxtb	r3, r3
    10d0:	2b0a      	cmp	r3, #10
    10d2:	d005      	beq.n	10e0 <TestUIntCalc()+0xb0>
    10d4:	4b73      	ldr	r3, [pc, #460]	; (12a4 <TestUIntCalc()+0x274>)
    10d6:	4a6d      	ldr	r2, [pc, #436]	; (128c <TestUIntCalc()+0x25c>)
    10d8:	211a      	movs	r1, #26
    10da:	486d      	ldr	r0, [pc, #436]	; (1290 <TestUIntCalc()+0x260>)
    10dc:	f00a fcf8 	bl	bad0 <__assert_func>

  accu8 = 1u + 2u + (3u * 3u - 9u) * 50u;
    10e0:	2303      	movs	r3, #3
    10e2:	73fb      	strb	r3, [r7, #15]
  assert(accu8 == 3u);
    10e4:	7bfb      	ldrb	r3, [r7, #15]
    10e6:	b2db      	uxtb	r3, r3
    10e8:	2b03      	cmp	r3, #3
    10ea:	d005      	beq.n	10f8 <TestUIntCalc()+0xc8>
    10ec:	4b6e      	ldr	r3, [pc, #440]	; (12a8 <TestUIntCalc()+0x278>)
    10ee:	4a67      	ldr	r2, [pc, #412]	; (128c <TestUIntCalc()+0x25c>)
    10f0:	211d      	movs	r1, #29
    10f2:	4867      	ldr	r0, [pc, #412]	; (1290 <TestUIntCalc()+0x260>)
    10f4:	f00a fcec 	bl	bad0 <__assert_func>

  // overflow test
  accu8 = 255u;
    10f8:	23ff      	movs	r3, #255	; 0xff
    10fa:	73fb      	strb	r3, [r7, #15]
  accu8 += 1u;
    10fc:	7bfb      	ldrb	r3, [r7, #15]
    10fe:	b2db      	uxtb	r3, r3
    1100:	3301      	adds	r3, #1
    1102:	b2db      	uxtb	r3, r3
    1104:	73fb      	strb	r3, [r7, #15]
  assert(accu8 == 0u);
    1106:	7bfb      	ldrb	r3, [r7, #15]
    1108:	b2db      	uxtb	r3, r3
    110a:	2b00      	cmp	r3, #0
    110c:	d005      	beq.n	111a <TestUIntCalc()+0xea>
    110e:	4b67      	ldr	r3, [pc, #412]	; (12ac <TestUIntCalc()+0x27c>)
    1110:	4a5e      	ldr	r2, [pc, #376]	; (128c <TestUIntCalc()+0x25c>)
    1112:	2122      	movs	r1, #34	; 0x22
    1114:	485e      	ldr	r0, [pc, #376]	; (1290 <TestUIntCalc()+0x260>)
    1116:	f00a fcdb 	bl	bad0 <__assert_func>
  accu8 -= 1u;
    111a:	7bfb      	ldrb	r3, [r7, #15]
    111c:	b2db      	uxtb	r3, r3
    111e:	3b01      	subs	r3, #1
    1120:	b2db      	uxtb	r3, r3
    1122:	73fb      	strb	r3, [r7, #15]
  assert(accu8 == 255u);
    1124:	7bfb      	ldrb	r3, [r7, #15]
    1126:	b2db      	uxtb	r3, r3
    1128:	2bff      	cmp	r3, #255	; 0xff
    112a:	d005      	beq.n	1138 <TestUIntCalc()+0x108>
    112c:	4b5b      	ldr	r3, [pc, #364]	; (129c <TestUIntCalc()+0x26c>)
    112e:	4a57      	ldr	r2, [pc, #348]	; (128c <TestUIntCalc()+0x25c>)
    1130:	2124      	movs	r1, #36	; 0x24
    1132:	4857      	ldr	r0, [pc, #348]	; (1290 <TestUIntCalc()+0x260>)
    1134:	f00a fccc 	bl	bad0 <__assert_func>

  // accumulate tests
  accu8 = 1u;
    1138:	2301      	movs	r3, #1
    113a:	73fb      	strb	r3, [r7, #15]
  accu8 = accu8 * accu8 + accu8; // 2
    113c:	7bfb      	ldrb	r3, [r7, #15]
    113e:	b2db      	uxtb	r3, r3
    1140:	7bfa      	ldrb	r2, [r7, #15]
    1142:	b2d2      	uxtb	r2, r2
    1144:	fb02 f303 	mul.w	r3, r2, r3
    1148:	b2da      	uxtb	r2, r3
    114a:	7bfb      	ldrb	r3, [r7, #15]
    114c:	b2db      	uxtb	r3, r3
    114e:	4413      	add	r3, r2
    1150:	b2db      	uxtb	r3, r3
    1152:	73fb      	strb	r3, [r7, #15]
  accu8 = accu8 * accu8 + accu8; // 6
    1154:	7bfb      	ldrb	r3, [r7, #15]
    1156:	b2db      	uxtb	r3, r3
    1158:	7bfa      	ldrb	r2, [r7, #15]
    115a:	b2d2      	uxtb	r2, r2
    115c:	fb02 f303 	mul.w	r3, r2, r3
    1160:	b2da      	uxtb	r2, r3
    1162:	7bfb      	ldrb	r3, [r7, #15]
    1164:	b2db      	uxtb	r3, r3
    1166:	4413      	add	r3, r2
    1168:	b2db      	uxtb	r3, r3
    116a:	73fb      	strb	r3, [r7, #15]
  accu8 = accu8 * accu8 + accu8; // 42
    116c:	7bfb      	ldrb	r3, [r7, #15]
    116e:	b2db      	uxtb	r3, r3
    1170:	7bfa      	ldrb	r2, [r7, #15]
    1172:	b2d2      	uxtb	r2, r2
    1174:	fb02 f303 	mul.w	r3, r2, r3
    1178:	b2da      	uxtb	r2, r3
    117a:	7bfb      	ldrb	r3, [r7, #15]
    117c:	b2db      	uxtb	r3, r3
    117e:	4413      	add	r3, r2
    1180:	b2db      	uxtb	r3, r3
    1182:	73fb      	strb	r3, [r7, #15]
  assert(accu8 == 42u);
    1184:	7bfb      	ldrb	r3, [r7, #15]
    1186:	b2db      	uxtb	r3, r3
    1188:	2b2a      	cmp	r3, #42	; 0x2a
    118a:	d005      	beq.n	1198 <TestUIntCalc()+0x168>
    118c:	4b48      	ldr	r3, [pc, #288]	; (12b0 <TestUIntCalc()+0x280>)
    118e:	4a3f      	ldr	r2, [pc, #252]	; (128c <TestUIntCalc()+0x25c>)
    1190:	212b      	movs	r1, #43	; 0x2b
    1192:	483f      	ldr	r0, [pc, #252]	; (1290 <TestUIntCalc()+0x260>)
    1194:	f00a fc9c 	bl	bad0 <__assert_func>

  // -----------------------------
  // 16-bit
  // -----------------------------
  volatile uint16_t accu16 = 123u;
    1198:	237b      	movs	r3, #123	; 0x7b
    119a:	81bb      	strh	r3, [r7, #12]

  accu16 += 123u;
    119c:	89bb      	ldrh	r3, [r7, #12]
    119e:	b29b      	uxth	r3, r3
    11a0:	337b      	adds	r3, #123	; 0x7b
    11a2:	b29b      	uxth	r3, r3
    11a4:	81bb      	strh	r3, [r7, #12]
  assert(accu16 == 246u);
    11a6:	89bb      	ldrh	r3, [r7, #12]
    11a8:	b29b      	uxth	r3, r3
    11aa:	2bf6      	cmp	r3, #246	; 0xf6
    11ac:	d005      	beq.n	11ba <TestUIntCalc()+0x18a>
    11ae:	4b41      	ldr	r3, [pc, #260]	; (12b4 <TestUIntCalc()+0x284>)
    11b0:	4a36      	ldr	r2, [pc, #216]	; (128c <TestUIntCalc()+0x25c>)
    11b2:	2133      	movs	r1, #51	; 0x33
    11b4:	4836      	ldr	r0, [pc, #216]	; (1290 <TestUIntCalc()+0x260>)
    11b6:	f00a fc8b 	bl	bad0 <__assert_func>

  accu16 *= 3u;
    11ba:	89bb      	ldrh	r3, [r7, #12]
    11bc:	b29b      	uxth	r3, r3
    11be:	461a      	mov	r2, r3
    11c0:	0052      	lsls	r2, r2, #1
    11c2:	4413      	add	r3, r2
    11c4:	b29b      	uxth	r3, r3
    11c6:	81bb      	strh	r3, [r7, #12]
  assert(accu16 == 738u);
    11c8:	89bb      	ldrh	r3, [r7, #12]
    11ca:	b29b      	uxth	r3, r3
    11cc:	f240 22e2 	movw	r2, #738	; 0x2e2
    11d0:	4293      	cmp	r3, r2
    11d2:	d005      	beq.n	11e0 <TestUIntCalc()+0x1b0>
    11d4:	4b38      	ldr	r3, [pc, #224]	; (12b8 <TestUIntCalc()+0x288>)
    11d6:	4a2d      	ldr	r2, [pc, #180]	; (128c <TestUIntCalc()+0x25c>)
    11d8:	2136      	movs	r1, #54	; 0x36
    11da:	482d      	ldr	r0, [pc, #180]	; (1290 <TestUIntCalc()+0x260>)
    11dc:	f00a fc78 	bl	bad0 <__assert_func>

  accu16 = accu16 - 238u;
    11e0:	89bb      	ldrh	r3, [r7, #12]
    11e2:	b29b      	uxth	r3, r3
    11e4:	3bee      	subs	r3, #238	; 0xee
    11e6:	b29b      	uxth	r3, r3
    11e8:	81bb      	strh	r3, [r7, #12]
  assert(accu16 == 500u);
    11ea:	89bb      	ldrh	r3, [r7, #12]
    11ec:	b29b      	uxth	r3, r3
    11ee:	f5b3 7ffa 	cmp.w	r3, #500	; 0x1f4
    11f2:	d005      	beq.n	1200 <TestUIntCalc()+0x1d0>
    11f4:	4b31      	ldr	r3, [pc, #196]	; (12bc <TestUIntCalc()+0x28c>)
    11f6:	4a25      	ldr	r2, [pc, #148]	; (128c <TestUIntCalc()+0x25c>)
    11f8:	2139      	movs	r1, #57	; 0x39
    11fa:	4825      	ldr	r0, [pc, #148]	; (1290 <TestUIntCalc()+0x260>)
    11fc:	f00a fc68 	bl	bad0 <__assert_func>

  accu16 /= 25u;
    1200:	89bb      	ldrh	r3, [r7, #12]
    1202:	b29b      	uxth	r3, r3
    1204:	4a26      	ldr	r2, [pc, #152]	; (12a0 <TestUIntCalc()+0x270>)
    1206:	fba2 2303 	umull	r2, r3, r2, r3
    120a:	08db      	lsrs	r3, r3, #3
    120c:	b29b      	uxth	r3, r3
    120e:	81bb      	strh	r3, [r7, #12]
  assert(accu16 == 20u);
    1210:	89bb      	ldrh	r3, [r7, #12]
    1212:	b29b      	uxth	r3, r3
    1214:	2b14      	cmp	r3, #20
    1216:	d005      	beq.n	1224 <TestUIntCalc()+0x1f4>
    1218:	4b29      	ldr	r3, [pc, #164]	; (12c0 <TestUIntCalc()+0x290>)
    121a:	4a1c      	ldr	r2, [pc, #112]	; (128c <TestUIntCalc()+0x25c>)
    121c:	213c      	movs	r1, #60	; 0x3c
    121e:	481c      	ldr	r0, [pc, #112]	; (1290 <TestUIntCalc()+0x260>)
    1220:	f00a fc56 	bl	bad0 <__assert_func>

  accu16 = 1u + 2u + (3u * 3u - 9u) * 50u;
    1224:	2303      	movs	r3, #3
    1226:	81bb      	strh	r3, [r7, #12]
  assert(accu16 == 3u);
    1228:	89bb      	ldrh	r3, [r7, #12]
    122a:	b29b      	uxth	r3, r3
    122c:	2b03      	cmp	r3, #3
    122e:	d005      	beq.n	123c <TestUIntCalc()+0x20c>
    1230:	4b24      	ldr	r3, [pc, #144]	; (12c4 <TestUIntCalc()+0x294>)
    1232:	4a16      	ldr	r2, [pc, #88]	; (128c <TestUIntCalc()+0x25c>)
    1234:	213f      	movs	r1, #63	; 0x3f
    1236:	4816      	ldr	r0, [pc, #88]	; (1290 <TestUIntCalc()+0x260>)
    1238:	f00a fc4a 	bl	bad0 <__assert_func>

  // overflow test
  accu16 = 65535u;
    123c:	f64f 73ff 	movw	r3, #65535	; 0xffff
    1240:	81bb      	strh	r3, [r7, #12]
  accu16 += 1u;
    1242:	89bb      	ldrh	r3, [r7, #12]
    1244:	b29b      	uxth	r3, r3
    1246:	3301      	adds	r3, #1
    1248:	b29b      	uxth	r3, r3
    124a:	81bb      	strh	r3, [r7, #12]
  assert(accu16 == 0u);
    124c:	89bb      	ldrh	r3, [r7, #12]
    124e:	b29b      	uxth	r3, r3
    1250:	2b00      	cmp	r3, #0
    1252:	d005      	beq.n	1260 <TestUIntCalc()+0x230>
    1254:	4b1c      	ldr	r3, [pc, #112]	; (12c8 <TestUIntCalc()+0x298>)
    1256:	4a0d      	ldr	r2, [pc, #52]	; (128c <TestUIntCalc()+0x25c>)
    1258:	2144      	movs	r1, #68	; 0x44
    125a:	480d      	ldr	r0, [pc, #52]	; (1290 <TestUIntCalc()+0x260>)
    125c:	f00a fc38 	bl	bad0 <__assert_func>
  accu16 -= 1u;
    1260:	89bb      	ldrh	r3, [r7, #12]
    1262:	b29b      	uxth	r3, r3
    1264:	3b01      	subs	r3, #1
    1266:	b29b      	uxth	r3, r3
    1268:	81bb      	strh	r3, [r7, #12]
  assert(accu16 == 65535u);
    126a:	89bb      	ldrh	r3, [r7, #12]
    126c:	b29b      	uxth	r3, r3
    126e:	f64f 72ff 	movw	r2, #65535	; 0xffff
    1272:	4293      	cmp	r3, r2
    1274:	d02c      	beq.n	12d0 <TestUIntCalc()+0x2a0>
    1276:	4b15      	ldr	r3, [pc, #84]	; (12cc <TestUIntCalc()+0x29c>)
    1278:	4a04      	ldr	r2, [pc, #16]	; (128c <TestUIntCalc()+0x25c>)
    127a:	2146      	movs	r1, #70	; 0x46
    127c:	4804      	ldr	r0, [pc, #16]	; (1290 <TestUIntCalc()+0x260>)
    127e:	f00a fc27 	bl	bad0 <__assert_func>
    1282:	bf00      	nop
    1284:	00017a20 	.word	0x00017a20
    1288:	00017a54 	.word	0x00017a54
    128c:	00017a64 	.word	0x00017a64
    1290:	00017a78 	.word	0x00017a78
    1294:	00017ac0 	.word	0x00017ac0
    1298:	00017acc 	.word	0x00017acc
    129c:	00017adc 	.word	0x00017adc
    12a0:	51eb851f 	.word	0x51eb851f
    12a4:	00017aec 	.word	0x00017aec
    12a8:	00017afc 	.word	0x00017afc
    12ac:	00017b08 	.word	0x00017b08
    12b0:	00017b14 	.word	0x00017b14
    12b4:	00017b24 	.word	0x00017b24
    12b8:	00017b34 	.word	0x00017b34
    12bc:	00017b44 	.word	0x00017b44
    12c0:	00017b54 	.word	0x00017b54
    12c4:	00017b64 	.word	0x00017b64
    12c8:	00017b74 	.word	0x00017b74
    12cc:	00017b84 	.word	0x00017b84

  // accumulate tests
  accu16 = 1u;
    12d0:	2301      	movs	r3, #1
    12d2:	81bb      	strh	r3, [r7, #12]
  accu16 = accu16 * accu16 + accu16; // 2
    12d4:	89bb      	ldrh	r3, [r7, #12]
    12d6:	b29b      	uxth	r3, r3
    12d8:	89ba      	ldrh	r2, [r7, #12]
    12da:	b292      	uxth	r2, r2
    12dc:	fb02 f303 	mul.w	r3, r2, r3
    12e0:	b29a      	uxth	r2, r3
    12e2:	89bb      	ldrh	r3, [r7, #12]
    12e4:	b29b      	uxth	r3, r3
    12e6:	4413      	add	r3, r2
    12e8:	b29b      	uxth	r3, r3
    12ea:	81bb      	strh	r3, [r7, #12]
  accu16 = accu16 * accu16 + accu16; // 6
    12ec:	89bb      	ldrh	r3, [r7, #12]
    12ee:	b29b      	uxth	r3, r3
    12f0:	89ba      	ldrh	r2, [r7, #12]
    12f2:	b292      	uxth	r2, r2
    12f4:	fb02 f303 	mul.w	r3, r2, r3
    12f8:	b29a      	uxth	r2, r3
    12fa:	89bb      	ldrh	r3, [r7, #12]
    12fc:	b29b      	uxth	r3, r3
    12fe:	4413      	add	r3, r2
    1300:	b29b      	uxth	r3, r3
    1302:	81bb      	strh	r3, [r7, #12]
  accu16 = accu16 * accu16 + accu16; // 42
    1304:	89bb      	ldrh	r3, [r7, #12]
    1306:	b29b      	uxth	r3, r3
    1308:	89ba      	ldrh	r2, [r7, #12]
    130a:	b292      	uxth	r2, r2
    130c:	fb02 f303 	mul.w	r3, r2, r3
    1310:	b29a      	uxth	r2, r3
    1312:	89bb      	ldrh	r3, [r7, #12]
    1314:	b29b      	uxth	r3, r3
    1316:	4413      	add	r3, r2
    1318:	b29b      	uxth	r3, r3
    131a:	81bb      	strh	r3, [r7, #12]
  assert(accu16 == 42u);
    131c:	89bb      	ldrh	r3, [r7, #12]
    131e:	b29b      	uxth	r3, r3
    1320:	2b2a      	cmp	r3, #42	; 0x2a
    1322:	d005      	beq.n	1330 <TestUIntCalc()+0x300>
    1324:	4b58      	ldr	r3, [pc, #352]	; (1488 <TestUIntCalc()+0x458>)
    1326:	4a59      	ldr	r2, [pc, #356]	; (148c <TestUIntCalc()+0x45c>)
    1328:	214d      	movs	r1, #77	; 0x4d
    132a:	4859      	ldr	r0, [pc, #356]	; (1490 <TestUIntCalc()+0x460>)
    132c:	f00a fbd0 	bl	bad0 <__assert_func>

  // -----------------------------
  // 32-bit
  // -----------------------------
  volatile uint32_t accu32 = 123u;
    1330:	237b      	movs	r3, #123	; 0x7b
    1332:	60bb      	str	r3, [r7, #8]

  accu32 += 123u;
    1334:	68bb      	ldr	r3, [r7, #8]
    1336:	337b      	adds	r3, #123	; 0x7b
    1338:	60bb      	str	r3, [r7, #8]
  assert(accu32 == 246u);
    133a:	68bb      	ldr	r3, [r7, #8]
    133c:	2bf6      	cmp	r3, #246	; 0xf6
    133e:	d005      	beq.n	134c <TestUIntCalc()+0x31c>
    1340:	4b54      	ldr	r3, [pc, #336]	; (1494 <TestUIntCalc()+0x464>)
    1342:	4a52      	ldr	r2, [pc, #328]	; (148c <TestUIntCalc()+0x45c>)
    1344:	2155      	movs	r1, #85	; 0x55
    1346:	4852      	ldr	r0, [pc, #328]	; (1490 <TestUIntCalc()+0x460>)
    1348:	f00a fbc2 	bl	bad0 <__assert_func>

  accu32 *= 3u;
    134c:	68ba      	ldr	r2, [r7, #8]
    134e:	4613      	mov	r3, r2
    1350:	005b      	lsls	r3, r3, #1
    1352:	4413      	add	r3, r2
    1354:	60bb      	str	r3, [r7, #8]
  assert(accu32 == 738u);
    1356:	68bb      	ldr	r3, [r7, #8]
    1358:	f240 22e2 	movw	r2, #738	; 0x2e2
    135c:	4293      	cmp	r3, r2
    135e:	d005      	beq.n	136c <TestUIntCalc()+0x33c>
    1360:	4b4d      	ldr	r3, [pc, #308]	; (1498 <TestUIntCalc()+0x468>)
    1362:	4a4a      	ldr	r2, [pc, #296]	; (148c <TestUIntCalc()+0x45c>)
    1364:	2158      	movs	r1, #88	; 0x58
    1366:	484a      	ldr	r0, [pc, #296]	; (1490 <TestUIntCalc()+0x460>)
    1368:	f00a fbb2 	bl	bad0 <__assert_func>

  accu32 = accu32 - 238u;
    136c:	68bb      	ldr	r3, [r7, #8]
    136e:	3bee      	subs	r3, #238	; 0xee
    1370:	60bb      	str	r3, [r7, #8]
  assert(accu32 == 500u);
    1372:	68bb      	ldr	r3, [r7, #8]
    1374:	f5b3 7ffa 	cmp.w	r3, #500	; 0x1f4
    1378:	d005      	beq.n	1386 <TestUIntCalc()+0x356>
    137a:	4b48      	ldr	r3, [pc, #288]	; (149c <TestUIntCalc()+0x46c>)
    137c:	4a43      	ldr	r2, [pc, #268]	; (148c <TestUIntCalc()+0x45c>)
    137e:	215b      	movs	r1, #91	; 0x5b
    1380:	4843      	ldr	r0, [pc, #268]	; (1490 <TestUIntCalc()+0x460>)
    1382:	f00a fba5 	bl	bad0 <__assert_func>

  accu32 /= 25u;
    1386:	68bb      	ldr	r3, [r7, #8]
    1388:	4a45      	ldr	r2, [pc, #276]	; (14a0 <TestUIntCalc()+0x470>)
    138a:	fba2 2303 	umull	r2, r3, r2, r3
    138e:	08db      	lsrs	r3, r3, #3
    1390:	60bb      	str	r3, [r7, #8]
  assert(accu32 == 20u);
    1392:	68bb      	ldr	r3, [r7, #8]
    1394:	2b14      	cmp	r3, #20
    1396:	d005      	beq.n	13a4 <TestUIntCalc()+0x374>
    1398:	4b42      	ldr	r3, [pc, #264]	; (14a4 <TestUIntCalc()+0x474>)
    139a:	4a3c      	ldr	r2, [pc, #240]	; (148c <TestUIntCalc()+0x45c>)
    139c:	215e      	movs	r1, #94	; 0x5e
    139e:	483c      	ldr	r0, [pc, #240]	; (1490 <TestUIntCalc()+0x460>)
    13a0:	f00a fb96 	bl	bad0 <__assert_func>

  accu32 = 1u + 2u + (3u * 3u - 9u) * 50u;
    13a4:	2303      	movs	r3, #3
    13a6:	60bb      	str	r3, [r7, #8]
  assert(accu32 == 3u);
    13a8:	68bb      	ldr	r3, [r7, #8]
    13aa:	2b03      	cmp	r3, #3
    13ac:	d005      	beq.n	13ba <TestUIntCalc()+0x38a>
    13ae:	4b3e      	ldr	r3, [pc, #248]	; (14a8 <TestUIntCalc()+0x478>)
    13b0:	4a36      	ldr	r2, [pc, #216]	; (148c <TestUIntCalc()+0x45c>)
    13b2:	2161      	movs	r1, #97	; 0x61
    13b4:	4836      	ldr	r0, [pc, #216]	; (1490 <TestUIntCalc()+0x460>)
    13b6:	f00a fb8b 	bl	bad0 <__assert_func>

  // overflow test
  accu32 = 4294967295u;
    13ba:	f04f 33ff 	mov.w	r3, #4294967295	; 0xffffffff
    13be:	60bb      	str	r3, [r7, #8]
  accu32 += 1u;
    13c0:	68bb      	ldr	r3, [r7, #8]
    13c2:	3301      	adds	r3, #1
    13c4:	60bb      	str	r3, [r7, #8]
  assert(accu32 == 0u);
    13c6:	68bb      	ldr	r3, [r7, #8]
    13c8:	2b00      	cmp	r3, #0
    13ca:	d005      	beq.n	13d8 <TestUIntCalc()+0x3a8>
    13cc:	4b37      	ldr	r3, [pc, #220]	; (14ac <TestUIntCalc()+0x47c>)
    13ce:	4a2f      	ldr	r2, [pc, #188]	; (148c <TestUIntCalc()+0x45c>)
    13d0:	2166      	movs	r1, #102	; 0x66
    13d2:	482f      	ldr	r0, [pc, #188]	; (1490 <TestUIntCalc()+0x460>)
    13d4:	f00a fb7c 	bl	bad0 <__assert_func>
  accu32 -= 1u;
    13d8:	68bb      	ldr	r3, [r7, #8]
    13da:	3b01      	subs	r3, #1
    13dc:	60bb      	str	r3, [r7, #8]
  assert(accu32 == 4294967295u);
    13de:	68bb      	ldr	r3, [r7, #8]
    13e0:	f1b3 3fff 	cmp.w	r3, #4294967295	; 0xffffffff
    13e4:	d005      	beq.n	13f2 <TestUIntCalc()+0x3c2>
    13e6:	4b32      	ldr	r3, [pc, #200]	; (14b0 <TestUIntCalc()+0x480>)
    13e8:	4a28      	ldr	r2, [pc, #160]	; (148c <TestUIntCalc()+0x45c>)
    13ea:	2168      	movs	r1, #104	; 0x68
    13ec:	4828      	ldr	r0, [pc, #160]	; (1490 <TestUIntCalc()+0x460>)
    13ee:	f00a fb6f 	bl	bad0 <__assert_func>

  // accumulate tests
  accu32 = 1u;
    13f2:	2301      	movs	r3, #1
    13f4:	60bb      	str	r3, [r7, #8]
  accu32 = accu32 * accu32 + accu32; // 2
    13f6:	68bb      	ldr	r3, [r7, #8]
    13f8:	68ba      	ldr	r2, [r7, #8]
    13fa:	fb03 f202 	mul.w	r2, r3, r2
    13fe:	68bb      	ldr	r3, [r7, #8]
    1400:	4413      	add	r3, r2
    1402:	60bb      	str	r3, [r7, #8]
  accu32 = accu32 * accu32 + accu32; // 6
    1404:	68bb      	ldr	r3, [r7, #8]
    1406:	68ba      	ldr	r2, [r7, #8]
    1408:	fb03 f202 	mul.w	r2, r3, r2
    140c:	68bb      	ldr	r3, [r7, #8]
    140e:	4413      	add	r3, r2
    1410:	60bb      	str	r3, [r7, #8]
  accu32 = accu32 * accu32 + accu32; // 42
    1412:	68bb      	ldr	r3, [r7, #8]
    1414:	68ba      	ldr	r2, [r7, #8]
    1416:	fb03 f202 	mul.w	r2, r3, r2
    141a:	68bb      	ldr	r3, [r7, #8]
    141c:	4413      	add	r3, r2
    141e:	60bb      	str	r3, [r7, #8]
  assert(accu32 == 42u);
    1420:	68bb      	ldr	r3, [r7, #8]
    1422:	2b2a      	cmp	r3, #42	; 0x2a
    1424:	d005      	beq.n	1432 <TestUIntCalc()+0x402>
    1426:	4b23      	ldr	r3, [pc, #140]	; (14b4 <TestUIntCalc()+0x484>)
    1428:	4a18      	ldr	r2, [pc, #96]	; (148c <TestUIntCalc()+0x45c>)
    142a:	216f      	movs	r1, #111	; 0x6f
    142c:	4818      	ldr	r0, [pc, #96]	; (1490 <TestUIntCalc()+0x460>)
    142e:	f00a fb4f 	bl	bad0 <__assert_func>

  // -----------------------------
  // 32-bit Modulo
  // -----------------------------

  volatile uint32_t a = 0x80000000u;
    1432:	f04f 4300 	mov.w	r3, #2147483648	; 0x80000000
    1436:	607b      	str	r3, [r7, #4]
  volatile uint32_t b = 0x80000000u;
    1438:	f04f 4300 	mov.w	r3, #2147483648	; 0x80000000
    143c:	603b      	str	r3, [r7, #0]

  assert((a % b) == 0u);
    143e:	687b      	ldr	r3, [r7, #4]
    1440:	683a      	ldr	r2, [r7, #0]
    1442:	fbb3 f1f2 	udiv	r1, r3, r2
    1446:	fb01 f202 	mul.w	r2, r1, r2
    144a:	1a9b      	subs	r3, r3, r2
    144c:	2b00      	cmp	r3, #0
    144e:	d005      	beq.n	145c <TestUIntCalc()+0x42c>
    1450:	4b19      	ldr	r3, [pc, #100]	; (14b8 <TestUIntCalc()+0x488>)
    1452:	4a0e      	ldr	r2, [pc, #56]	; (148c <TestUIntCalc()+0x45c>)
    1454:	2178      	movs	r1, #120	; 0x78
    1456:	480e      	ldr	r0, [pc, #56]	; (1490 <TestUIntCalc()+0x460>)
    1458:	f00a fb3a 	bl	bad0 <__assert_func>

  a += 1u;
    145c:	687b      	ldr	r3, [r7, #4]
    145e:	3301      	adds	r3, #1
    1460:	607b      	str	r3, [r7, #4]
  assert((a % b) == 1u);
    1462:	687b      	ldr	r3, [r7, #4]
    1464:	683a      	ldr	r2, [r7, #0]
    1466:	fbb3 f1f2 	udiv	r1, r3, r2
    146a:	fb01 f202 	mul.w	r2, r1, r2
    146e:	1a9b      	subs	r3, r3, r2
    1470:	2b01      	cmp	r3, #1
    1472:	d005      	beq.n	1480 <TestUIntCalc()+0x450>
    1474:	4b11      	ldr	r3, [pc, #68]	; (14bc <TestUIntCalc()+0x48c>)
    1476:	4a05      	ldr	r2, [pc, #20]	; (148c <TestUIntCalc()+0x45c>)
    1478:	217b      	movs	r1, #123	; 0x7b
    147a:	4805      	ldr	r0, [pc, #20]	; (1490 <TestUIntCalc()+0x460>)
    147c:	f00a fb28 	bl	bad0 <__assert_func>
    1480:	bf00      	nop
    1482:	3710      	adds	r7, #16
    1484:	46bd      	mov	sp, r7
    1486:	bd80      	pop	{r7, pc}
    1488:	00017b98 	.word	0x00017b98
    148c:	00017a64 	.word	0x00017a64
    1490:	00017a78 	.word	0x00017a78
    1494:	00017ba8 	.word	0x00017ba8
    1498:	00017bb8 	.word	0x00017bb8
    149c:	00017bc8 	.word	0x00017bc8
    14a0:	51eb851f 	.word	0x51eb851f
    14a4:	00017bd8 	.word	0x00017bd8
    14a8:	00017be8 	.word	0x00017be8
    14ac:	00017bf8 	.word	0x00017bf8
    14b0:	00017c08 	.word	0x00017c08
    14b4:	00017c20 	.word	0x00017c20
    14b8:	00017c30 	.word	0x00017c30
    14bc:	00017c40 	.word	0x00017c40

000014c0 <BranchTest(long)>:
#include "test_if_then_else.h"
#include <assert.h>
#include <stdint.h>
#include <stdio.h>

uint32_t BranchTest(volatile int32_t arg) {
    14c0:	b480      	push	{r7}
    14c2:	b083      	sub	sp, #12
    14c4:	af00      	add	r7, sp, #0
    14c6:	6078      	str	r0, [r7, #4]
  if (arg > 0) {
    14c8:	687b      	ldr	r3, [r7, #4]
    14ca:	2b00      	cmp	r3, #0
    14cc:	bfcc      	ite	gt
    14ce:	2301      	movgt	r3, #1
    14d0:	2300      	movle	r3, #0
    14d2:	b2db      	uxtb	r3, r3
    14d4:	2b00      	cmp	r3, #0
    14d6:	d001      	beq.n	14dc <BranchTest(long)+0x1c>
    return 1u;
    14d8:	2301      	movs	r3, #1
    14da:	e026      	b.n	152a <BranchTest(long)+0x6a>
  } else if (arg >= 5) {
    14dc:	687b      	ldr	r3, [r7, #4]
    14de:	2b04      	cmp	r3, #4
    14e0:	bfcc      	ite	gt
    14e2:	2301      	movgt	r3, #1
    14e4:	2300      	movle	r3, #0
    14e6:	b2db      	uxtb	r3, r3
    14e8:	2b00      	cmp	r3, #0
    14ea:	d001      	beq.n	14f0 <BranchTest(long)+0x30>
    return 2u;
    14ec:	2302      	movs	r3, #2
    14ee:	e01c      	b.n	152a <BranchTest(long)+0x6a>
  } else if (arg >= 10) {
    14f0:	687b      	ldr	r3, [r7, #4]
    14f2:	2b09      	cmp	r3, #9
    14f4:	bfcc      	ite	gt
    14f6:	2301      	movgt	r3, #1
    14f8:	2300      	movle	r3, #0
    14fa:	b2db      	uxtb	r3, r3
    14fc:	2b00      	cmp	r3, #0
    14fe:	d001      	beq.n	1504 <BranchTest(long)+0x44>
    return 3u;
    1500:	2303      	movs	r3, #3
    1502:	e012      	b.n	152a <BranchTest(long)+0x6a>
  } else if (arg < -10) {
    1504:	687b      	ldr	r3, [r7, #4]
    1506:	f113 0f0a 	cmn.w	r3, #10
    150a:	bfb4      	ite	lt
    150c:	2301      	movlt	r3, #1
    150e:	2300      	movge	r3, #0
    1510:	b2db      	uxtb	r3, r3
    1512:	2b00      	cmp	r3, #0
    1514:	d001      	beq.n	151a <BranchTest(long)+0x5a>
    return 4u;
    1516:	2304      	movs	r3, #4
    1518:	e007      	b.n	152a <BranchTest(long)+0x6a>
  } else if (arg < 0) {
    151a:	687b      	ldr	r3, [r7, #4]
    151c:	0fdb      	lsrs	r3, r3, #31
    151e:	b2db      	uxtb	r3, r3
    1520:	2b00      	cmp	r3, #0
    1522:	d001      	beq.n	1528 <BranchTest(long)+0x68>
    return 5u;
    1524:	2305      	movs	r3, #5
    1526:	e000      	b.n	152a <BranchTest(long)+0x6a>
  }
  return 0u;
    1528:	2300      	movs	r3, #0
}
    152a:	4618      	mov	r0, r3
    152c:	370c      	adds	r7, #12
    152e:	46bd      	mov	sp, r7
    1530:	bc80      	pop	{r7}
    1532:	4770      	bx	lr

00001534 <TestIfThenElse()>:

void TestIfThenElse() {
    1534:	b580      	push	{r7, lr}
    1536:	b082      	sub	sp, #8
    1538:	af00      	add	r7, sp, #0
  printf("# Test: If then else\n");
    153a:	481b      	ldr	r0, [pc, #108]	; (15a8 <TestIfThenElse()+0x74>)
    153c:	f00b fb6e 	bl	cc1c <puts>
  volatile int32_t arg = -5;
    1540:	f06f 0304 	mvn.w	r3, #4
    1544:	607b      	str	r3, [r7, #4]
  assert(BranchTest(arg) == 5u);
    1546:	687b      	ldr	r3, [r7, #4]
    1548:	4618      	mov	r0, r3
    154a:	f7ff ffb9 	bl	14c0 <BranchTest(long)>
    154e:	4603      	mov	r3, r0
    1550:	2b05      	cmp	r3, #5
    1552:	d005      	beq.n	1560 <TestIfThenElse()+0x2c>
    1554:	4b15      	ldr	r3, [pc, #84]	; (15ac <TestIfThenElse()+0x78>)
    1556:	4a16      	ldr	r2, [pc, #88]	; (15b0 <TestIfThenElse()+0x7c>)
    1558:	2118      	movs	r1, #24
    155a:	4816      	ldr	r0, [pc, #88]	; (15b4 <TestIfThenElse()+0x80>)
    155c:	f00a fab8 	bl	bad0 <__assert_func>
  arg = -11;
    1560:	f06f 030a 	mvn.w	r3, #10
    1564:	607b      	str	r3, [r7, #4]
  assert(BranchTest(arg) == 4u);
    1566:	687b      	ldr	r3, [r7, #4]
    1568:	4618      	mov	r0, r3
    156a:	f7ff ffa9 	bl	14c0 <BranchTest(long)>
    156e:	4603      	mov	r3, r0
    1570:	2b04      	cmp	r3, #4
    1572:	d005      	beq.n	1580 <TestIfThenElse()+0x4c>
    1574:	4b10      	ldr	r3, [pc, #64]	; (15b8 <TestIfThenElse()+0x84>)
    1576:	4a0e      	ldr	r2, [pc, #56]	; (15b0 <TestIfThenElse()+0x7c>)
    1578:	211a      	movs	r1, #26
    157a:	480e      	ldr	r0, [pc, #56]	; (15b4 <TestIfThenElse()+0x80>)
    157c:	f00a faa8 	bl	bad0 <__assert_func>
  arg = 3;
    1580:	2303      	movs	r3, #3
    1582:	607b      	str	r3, [r7, #4]
  assert(BranchTest(arg) == 1u);
    1584:	687b      	ldr	r3, [r7, #4]
    1586:	4618      	mov	r0, r3
    1588:	f7ff ff9a 	bl	14c0 <BranchTest(long)>
    158c:	4603      	mov	r3, r0
    158e:	2b01      	cmp	r3, #1
    1590:	d005      	beq.n	159e <TestIfThenElse()+0x6a>
    1592:	4b0a      	ldr	r3, [pc, #40]	; (15bc <TestIfThenElse()+0x88>)
    1594:	4a06      	ldr	r2, [pc, #24]	; (15b0 <TestIfThenElse()+0x7c>)
    1596:	211c      	movs	r1, #28
    1598:	4806      	ldr	r0, [pc, #24]	; (15b4 <TestIfThenElse()+0x80>)
    159a:	f00a fa99 	bl	bad0 <__assert_func>
    159e:	bf00      	nop
    15a0:	3708      	adds	r7, #8
    15a2:	46bd      	mov	sp, r7
    15a4:	bd80      	pop	{r7, pc}
    15a6:	bf00      	nop
    15a8:	00017c50 	.word	0x00017c50
    15ac:	00017c68 	.word	0x00017c68
    15b0:	00017c80 	.word	0x00017c80
    15b4:	00017c98 	.word	0x00017c98
    15b8:	00017ce4 	.word	0x00017ce4
    15bc:	00017cfc 	.word	0x00017cfc

000015c0 <TestTypeCasting()>:
#include <assert.h>
#include <cstring>
#include <stdint.h>
#include <stdio.h>

void TestTypeCasting() {
    15c0:	b580      	push	{r7, lr}
    15c2:	b08c      	sub	sp, #48	; 0x30
    15c4:	af00      	add	r7, sp, #0
  printf("# Test: Type casting\n");
    15c6:	4823      	ldr	r0, [pc, #140]	; (1654 <TestTypeCasting()+0x94>)
    15c8:	f00b fb28 	bl	cc1c <puts>
  volatile uint64_t u64 = 12345u;
    15cc:	f243 0239 	movw	r2, #12345	; 0x3039
    15d0:	f04f 0300 	mov.w	r3, #0
    15d4:	e9c7 2308 	strd	r2, r3, [r7, #32]
  volatile uint32_t u32 = static_cast<uint32_t>(u64);
    15d8:	e9d7 2308 	ldrd	r2, r3, [r7, #32]
    15dc:	4613      	mov	r3, r2
    15de:	61fb      	str	r3, [r7, #28]
  assert(u32 == 12345u);
    15e0:	69fb      	ldr	r3, [r7, #28]
    15e2:	f243 0239 	movw	r2, #12345	; 0x3039
    15e6:	4293      	cmp	r3, r2
    15e8:	d005      	beq.n	15f6 <TestTypeCasting()+0x36>
    15ea:	4b1b      	ldr	r3, [pc, #108]	; (1658 <TestTypeCasting()+0x98>)
    15ec:	4a1b      	ldr	r2, [pc, #108]	; (165c <TestTypeCasting()+0x9c>)
    15ee:	210b      	movs	r1, #11
    15f0:	481b      	ldr	r0, [pc, #108]	; (1660 <TestTypeCasting()+0xa0>)
    15f2:	f00a fa6d 	bl	bad0 <__assert_func>

  uint64_t u64_cpy = u64;
    15f6:	e9d7 2308 	ldrd	r2, r3, [r7, #32]
    15fa:	e9c7 2304 	strd	r2, r3, [r7, #16]
  volatile uint32_t u32_cpy = static_cast<uint32_t>(u64_cpy);
    15fe:	e9d7 2304 	ldrd	r2, r3, [r7, #16]
    1602:	4613      	mov	r3, r2
    1604:	60fb      	str	r3, [r7, #12]
  assert(u32_cpy == 12345u);
    1606:	68fb      	ldr	r3, [r7, #12]
    1608:	f243 0239 	movw	r2, #12345	; 0x3039
    160c:	4293      	cmp	r3, r2
    160e:	d005      	beq.n	161c <TestTypeCasting()+0x5c>
    1610:	4b14      	ldr	r3, [pc, #80]	; (1664 <TestTypeCasting()+0xa4>)
    1612:	4a12      	ldr	r2, [pc, #72]	; (165c <TestTypeCasting()+0x9c>)
    1614:	210f      	movs	r1, #15
    1616:	4812      	ldr	r0, [pc, #72]	; (1660 <TestTypeCasting()+0xa0>)
    1618:	f00a fa5a 	bl	bad0 <__assert_func>

  uint64_t u64_mcpy = 0x0u;
    161c:	f04f 0200 	mov.w	r2, #0
    1620:	f04f 0300 	mov.w	r3, #0
    1624:	e9c7 2300 	strd	r2, r3, [r7]
    1628:	693b      	ldr	r3, [r7, #16]
  memcpy(&u64_mcpy, &u64_cpy, 4u);
    162a:	603b      	str	r3, [r7, #0]
  uint32_t u32_mcpy = static_cast<uint32_t>(u64_mcpy);
    162c:	e9d7 2300 	ldrd	r2, r3, [r7]
    1630:	4613      	mov	r3, r2
    1632:	62fb      	str	r3, [r7, #44]	; 0x2c
  assert(u32_mcpy == 12345u);
    1634:	6afb      	ldr	r3, [r7, #44]	; 0x2c
    1636:	f243 0239 	movw	r2, #12345	; 0x3039
    163a:	4293      	cmp	r3, r2
    163c:	d005      	beq.n	164a <TestTypeCasting()+0x8a>
    163e:	4b0a      	ldr	r3, [pc, #40]	; (1668 <TestTypeCasting()+0xa8>)
    1640:	4a06      	ldr	r2, [pc, #24]	; (165c <TestTypeCasting()+0x9c>)
    1642:	2114      	movs	r1, #20
    1644:	4806      	ldr	r0, [pc, #24]	; (1660 <TestTypeCasting()+0xa0>)
    1646:	f00a fa43 	bl	bad0 <__assert_func>
    164a:	bf00      	nop
    164c:	3730      	adds	r7, #48	; 0x30
    164e:	46bd      	mov	sp, r7
    1650:	bd80      	pop	{r7, pc}
    1652:	bf00      	nop
    1654:	00017d14 	.word	0x00017d14
    1658:	00017d2c 	.word	0x00017d2c
    165c:	00017d3c 	.word	0x00017d3c
    1660:	00017d54 	.word	0x00017d54
    1664:	00017da0 	.word	0x00017da0
    1668:	00017db4 	.word	0x00017db4

0000166c <TestPolymorphismn()>:
class Derived : public Base {
public:
  virtual uint32_t Call() override { return 0xAFFE; }
};

void TestPolymorphismn() {
    166c:	b580      	push	{r7, lr}
    166e:	b084      	sub	sp, #16
    1670:	af00      	add	r7, sp, #0
  printf("# Test: Polymorphismn\n");
    1672:	481e      	ldr	r0, [pc, #120]	; (16ec <TestPolymorphismn()+0x80>)
    1674:	f00b fad2 	bl	cc1c <puts>
  auto derived = Derived();
    1678:	4b1d      	ldr	r3, [pc, #116]	; (16f0 <TestPolymorphismn()+0x84>)
    167a:	60bb      	str	r3, [r7, #8]
  assert(derived.Call() == 0xAFFE);
    167c:	f107 0308 	add.w	r3, r7, #8
    1680:	4618      	mov	r0, r3
    1682:	f000 f851 	bl	1728 <Derived::Call()>
    1686:	4603      	mov	r3, r0
    1688:	f64a 72fe 	movw	r2, #45054	; 0xaffe
    168c:	4293      	cmp	r3, r2
    168e:	d005      	beq.n	169c <TestPolymorphismn()+0x30>
    1690:	4b18      	ldr	r3, [pc, #96]	; (16f4 <TestPolymorphismn()+0x88>)
    1692:	4a19      	ldr	r2, [pc, #100]	; (16f8 <TestPolymorphismn()+0x8c>)
    1694:	2114      	movs	r1, #20
    1696:	4819      	ldr	r0, [pc, #100]	; (16fc <TestPolymorphismn()+0x90>)
    1698:	f00a fa1a 	bl	bad0 <__assert_func>
  auto *base = reinterpret_cast<Base *>(&derived);
    169c:	f107 0308 	add.w	r3, r7, #8
    16a0:	60fb      	str	r3, [r7, #12]
  assert(base->Call() == 0xAFFE);
    16a2:	68fb      	ldr	r3, [r7, #12]
    16a4:	681b      	ldr	r3, [r3, #0]
    16a6:	681b      	ldr	r3, [r3, #0]
    16a8:	68f8      	ldr	r0, [r7, #12]
    16aa:	4798      	blx	r3
    16ac:	4603      	mov	r3, r0
    16ae:	f64a 72fe 	movw	r2, #45054	; 0xaffe
    16b2:	4293      	cmp	r3, r2
    16b4:	d005      	beq.n	16c2 <TestPolymorphismn()+0x56>
    16b6:	4b12      	ldr	r3, [pc, #72]	; (1700 <TestPolymorphismn()+0x94>)
    16b8:	4a0f      	ldr	r2, [pc, #60]	; (16f8 <TestPolymorphismn()+0x8c>)
    16ba:	2116      	movs	r1, #22
    16bc:	480f      	ldr	r0, [pc, #60]	; (16fc <TestPolymorphismn()+0x90>)
    16be:	f00a fa07 	bl	bad0 <__assert_func>
  auto base_constructed = Base();
    16c2:	4b10      	ldr	r3, [pc, #64]	; (1704 <TestPolymorphismn()+0x98>)
    16c4:	607b      	str	r3, [r7, #4]
  assert(base_constructed.Call() == 0xBEEFCAFE);
    16c6:	1d3b      	adds	r3, r7, #4
    16c8:	4618      	mov	r0, r3
    16ca:	f000 f821 	bl	1710 <Base::Call()>
    16ce:	4603      	mov	r3, r0
    16d0:	4a0d      	ldr	r2, [pc, #52]	; (1708 <TestPolymorphismn()+0x9c>)
    16d2:	4293      	cmp	r3, r2
    16d4:	d005      	beq.n	16e2 <TestPolymorphismn()+0x76>
    16d6:	4b0d      	ldr	r3, [pc, #52]	; (170c <TestPolymorphismn()+0xa0>)
    16d8:	4a07      	ldr	r2, [pc, #28]	; (16f8 <TestPolymorphismn()+0x8c>)
    16da:	2118      	movs	r1, #24
    16dc:	4807      	ldr	r0, [pc, #28]	; (16fc <TestPolymorphismn()+0x90>)
    16de:	f00a f9f7 	bl	bad0 <__assert_func>
    16e2:	bf00      	nop
    16e4:	3710      	adds	r7, #16
    16e6:	46bd      	mov	sp, r7
    16e8:	bd80      	pop	{r7, pc}
    16ea:	bf00      	nop
    16ec:	00017dc8 	.word	0x00017dc8
    16f0:	00017eac 	.word	0x00017eac
    16f4:	00017de0 	.word	0x00017de0
    16f8:	00017dfc 	.word	0x00017dfc
    16fc:	00017e18 	.word	0x00017e18
    1700:	00017e64 	.word	0x00017e64
    1704:	00017eb8 	.word	0x00017eb8
    1708:	beefcafe 	.word	0xbeefcafe
    170c:	00017e7c 	.word	0x00017e7c

00001710 <Base::Call()>:
  virtual uint32_t Call() { return 0xBEEFCAFE; }
    1710:	b480      	push	{r7}
    1712:	b083      	sub	sp, #12
    1714:	af00      	add	r7, sp, #0
    1716:	6078      	str	r0, [r7, #4]
    1718:	4b02      	ldr	r3, [pc, #8]	; (1724 <Base::Call()+0x14>)
    171a:	4618      	mov	r0, r3
    171c:	370c      	adds	r7, #12
    171e:	46bd      	mov	sp, r7
    1720:	bc80      	pop	{r7}
    1722:	4770      	bx	lr
    1724:	beefcafe 	.word	0xbeefcafe

00001728 <Derived::Call()>:
  virtual uint32_t Call() override { return 0xAFFE; }
    1728:	b480      	push	{r7}
    172a:	b083      	sub	sp, #12
    172c:	af00      	add	r7, sp, #0
    172e:	6078      	str	r0, [r7, #4]
    1730:	f64a 73fe 	movw	r3, #45054	; 0xaffe
    1734:	4618      	mov	r0, r3
    1736:	370c      	adds	r7, #12
    1738:	46bd      	mov	sp, r7
    173a:	bc80      	pop	{r7}
    173c:	4770      	bx	lr
	...

00001740 <TableFct0()>:
#include "test_switch_case.h"
#include <assert.h>
#include <stdint.h>
#include <stdio.h>

uint8_t TableFct0() {
    1740:	b480      	push	{r7}
    1742:	b083      	sub	sp, #12
    1744:	af00      	add	r7, sp, #0
  volatile uint32_t temp = 0;
    1746:	2300      	movs	r3, #0
    1748:	607b      	str	r3, [r7, #4]
  static_cast<void>(temp);
    174a:	687b      	ldr	r3, [r7, #4]
  return 0;
    174c:	2300      	movs	r3, #0
}
    174e:	4618      	mov	r0, r3
    1750:	370c      	adds	r7, #12
    1752:	46bd      	mov	sp, r7
    1754:	bc80      	pop	{r7}
    1756:	4770      	bx	lr

00001758 <TableFct1()>:
uint8_t TableFct1() {
    1758:	b480      	push	{r7}
    175a:	b083      	sub	sp, #12
    175c:	af00      	add	r7, sp, #0
  volatile uint64_t temp = 0;
    175e:	f04f 0200 	mov.w	r2, #0
    1762:	f04f 0300 	mov.w	r3, #0
    1766:	e9c7 2300 	strd	r2, r3, [r7]
  static_cast<void>(temp);
    176a:	e9d7 2300 	ldrd	r2, r3, [r7]
  return 1;
    176e:	2301      	movs	r3, #1
}
    1770:	4618      	mov	r0, r3
    1772:	370c      	adds	r7, #12
    1774:	46bd      	mov	sp, r7
    1776:	bc80      	pop	{r7}
    1778:	4770      	bx	lr

0000177a <TableFct2()>:
uint8_t TableFct2() {
    177a:	b480      	push	{r7}
    177c:	b083      	sub	sp, #12
    177e:	af00      	add	r7, sp, #0
  volatile uint16_t temp = 0;
    1780:	2300      	movs	r3, #0
    1782:	80fb      	strh	r3, [r7, #6]
  static_cast<void>(temp);
    1784:	88fb      	ldrh	r3, [r7, #6]
  return 2;
    1786:	2302      	movs	r3, #2
}
    1788:	4618      	mov	r0, r3
    178a:	370c      	adds	r7, #12
    178c:	46bd      	mov	sp, r7
    178e:	bc80      	pop	{r7}
    1790:	4770      	bx	lr

00001792 <TableFct3()>:

uint8_t TableFct3() {
    1792:	b480      	push	{r7}
    1794:	b083      	sub	sp, #12
    1796:	af00      	add	r7, sp, #0
  volatile uint8_t temp = 0;
    1798:	2300      	movs	r3, #0
    179a:	71fb      	strb	r3, [r7, #7]
  static_cast<void>(temp);
    179c:	79fb      	ldrb	r3, [r7, #7]
  return 3;
    179e:	2303      	movs	r3, #3
}
    17a0:	4618      	mov	r0, r3
    17a2:	370c      	adds	r7, #12
    17a4:	46bd      	mov	sp, r7
    17a6:	bc80      	pop	{r7}
    17a8:	4770      	bx	lr

000017aa <TableFct4()>:

uint8_t TableFct4() {
    17aa:	b480      	push	{r7}
    17ac:	b083      	sub	sp, #12
    17ae:	af00      	add	r7, sp, #0
  volatile int8_t temp = 0;
    17b0:	2300      	movs	r3, #0
    17b2:	71fb      	strb	r3, [r7, #7]
  static_cast<void>(temp);
    17b4:	79fb      	ldrb	r3, [r7, #7]
  return 4;
    17b6:	2304      	movs	r3, #4
}
    17b8:	4618      	mov	r0, r3
    17ba:	370c      	adds	r7, #12
    17bc:	46bd      	mov	sp, r7
    17be:	bc80      	pop	{r7}
    17c0:	4770      	bx	lr

000017c2 <TableFct5()>:
uint8_t TableFct5() {
    17c2:	b480      	push	{r7}
    17c4:	b083      	sub	sp, #12
    17c6:	af00      	add	r7, sp, #0
  volatile int32_t temp = 0;
    17c8:	2300      	movs	r3, #0
    17ca:	607b      	str	r3, [r7, #4]
  static_cast<void>(temp);
    17cc:	687b      	ldr	r3, [r7, #4]
  return 5;
    17ce:	2305      	movs	r3, #5
}
    17d0:	4618      	mov	r0, r3
    17d2:	370c      	adds	r7, #12
    17d4:	46bd      	mov	sp, r7
    17d6:	bc80      	pop	{r7}
    17d8:	4770      	bx	lr

000017da <TableFct6()>:
uint8_t TableFct6() {
    17da:	b480      	push	{r7}
    17dc:	b083      	sub	sp, #12
    17de:	af00      	add	r7, sp, #0
  volatile int16_t temp = 0;
    17e0:	2300      	movs	r3, #0
    17e2:	80fb      	strh	r3, [r7, #6]
  static_cast<void>(temp);
    17e4:	88fb      	ldrh	r3, [r7, #6]
  return 6;
    17e6:	2306      	movs	r3, #6
}
    17e8:	4618      	mov	r0, r3
    17ea:	370c      	adds	r7, #12
    17ec:	46bd      	mov	sp, r7
    17ee:	bc80      	pop	{r7}
    17f0:	4770      	bx	lr

000017f2 <TableFct7()>:

uint8_t TableFct7() {
    17f2:	b480      	push	{r7}
    17f4:	b083      	sub	sp, #12
    17f6:	af00      	add	r7, sp, #0
  volatile int64_t temp = 0;
    17f8:	f04f 0200 	mov.w	r2, #0
    17fc:	f04f 0300 	mov.w	r3, #0
    1800:	e9c7 2300 	strd	r2, r3, [r7]
  static_cast<void>(temp);
    1804:	e9d7 2300 	ldrd	r2, r3, [r7]
  return 7;
    1808:	2307      	movs	r3, #7
}
    180a:	4618      	mov	r0, r3
    180c:	370c      	adds	r7, #12
    180e:	46bd      	mov	sp, r7
    1810:	bc80      	pop	{r7}
    1812:	4770      	bx	lr

00001814 <TestTableFct1(char)>:

uint32_t TestTableFct1(char buf) {
    1814:	b480      	push	{r7}
    1816:	b083      	sub	sp, #12
    1818:	af00      	add	r7, sp, #0
    181a:	4603      	mov	r3, r0
    181c:	71fb      	strb	r3, [r7, #7]
  switch (buf) {
    181e:	79fb      	ldrb	r3, [r7, #7]
    1820:	2bff      	cmp	r3, #255	; 0xff
    1822:	d057      	beq.n	18d4 <TestTableFct1(char)+0xc0>
    1824:	2bff      	cmp	r3, #255	; 0xff
    1826:	dc57      	bgt.n	18d8 <TestTableFct1(char)+0xc4>
    1828:	2be8      	cmp	r3, #232	; 0xe8
    182a:	d049      	beq.n	18c0 <TestTableFct1(char)+0xac>
    182c:	2be8      	cmp	r3, #232	; 0xe8
    182e:	dc53      	bgt.n	18d8 <TestTableFct1(char)+0xc4>
    1830:	2b7d      	cmp	r3, #125	; 0x7d
    1832:	dc51      	bgt.n	18d8 <TestTableFct1(char)+0xc4>
    1834:	2b64      	cmp	r3, #100	; 0x64
    1836:	da04      	bge.n	1842 <TestTableFct1(char)+0x2e>
    1838:	2b00      	cmp	r3, #0
    183a:	d03d      	beq.n	18b8 <TestTableFct1(char)+0xa4>
    183c:	2b0c      	cmp	r3, #12
    183e:	d047      	beq.n	18d0 <TestTableFct1(char)+0xbc>
    1840:	e04a      	b.n	18d8 <TestTableFct1(char)+0xc4>
    1842:	3b64      	subs	r3, #100	; 0x64
    1844:	2b19      	cmp	r3, #25
    1846:	d847      	bhi.n	18d8 <TestTableFct1(char)+0xc4>
    1848:	a201      	add	r2, pc, #4	; (adr r2, 1850 <TestTableFct1(char)+0x3c>)
    184a:	f852 f023 	ldr.w	pc, [r2, r3, lsl #2]
    184e:	bf00      	nop
    1850:	000018bd 	.word	0x000018bd
    1854:	000018d9 	.word	0x000018d9
    1858:	000018d9 	.word	0x000018d9
    185c:	000018d9 	.word	0x000018d9
    1860:	000018d9 	.word	0x000018d9
    1864:	000018d9 	.word	0x000018d9
    1868:	000018d9 	.word	0x000018d9
    186c:	000018d9 	.word	0x000018d9
    1870:	000018d9 	.word	0x000018d9
    1874:	000018d9 	.word	0x000018d9
    1878:	000018d9 	.word	0x000018d9
    187c:	000018d9 	.word	0x000018d9
    1880:	000018d9 	.word	0x000018d9
    1884:	000018d9 	.word	0x000018d9
    1888:	000018d9 	.word	0x000018d9
    188c:	000018c5 	.word	0x000018c5
    1890:	000018d9 	.word	0x000018d9
    1894:	000018d9 	.word	0x000018d9
    1898:	000018d9 	.word	0x000018d9
    189c:	000018d9 	.word	0x000018d9
    18a0:	000018d9 	.word	0x000018d9
    18a4:	000018c9 	.word	0x000018c9
    18a8:	000018d9 	.word	0x000018d9
    18ac:	000018d9 	.word	0x000018d9
    18b0:	000018d9 	.word	0x000018d9
    18b4:	000018cd 	.word	0x000018cd
  case 0:
    return 1u;
    18b8:	2301      	movs	r3, #1
    18ba:	e00e      	b.n	18da <TestTableFct1(char)+0xc6>
  case 100:
    return 2u;
    18bc:	2302      	movs	r3, #2
    18be:	e00c      	b.n	18da <TestTableFct1(char)+0xc6>
  case 232:
    return 3u;
    18c0:	2303      	movs	r3, #3
    18c2:	e00a      	b.n	18da <TestTableFct1(char)+0xc6>
  case 115:
    return 4u;
    18c4:	2304      	movs	r3, #4
    18c6:	e008      	b.n	18da <TestTableFct1(char)+0xc6>
  case 121:
    return 5u;
    18c8:	2305      	movs	r3, #5
    18ca:	e006      	b.n	18da <TestTableFct1(char)+0xc6>
  case 125:
    return 6u;
    18cc:	2306      	movs	r3, #6
    18ce:	e004      	b.n	18da <TestTableFct1(char)+0xc6>
  case 12:
    return 7u;
    18d0:	2307      	movs	r3, #7
    18d2:	e002      	b.n	18da <TestTableFct1(char)+0xc6>
  case 255:
    return 8u;
    18d4:	2308      	movs	r3, #8
    18d6:	e000      	b.n	18da <TestTableFct1(char)+0xc6>
  default:
    return 1u;
    18d8:	2301      	movs	r3, #1
  }
  return 0u;
}
    18da:	4618      	mov	r0, r3
    18dc:	370c      	adds	r7, #12
    18de:	46bd      	mov	sp, r7
    18e0:	bc80      	pop	{r7}
    18e2:	4770      	bx	lr

000018e4 <TestTableFct2()>:
uint32_t TestTableFct2() {
    18e4:	b580      	push	{r7, lr}
    18e6:	b082      	sub	sp, #8
    18e8:	af00      	add	r7, sp, #0
  uint32_t accu = 0;
    18ea:	2300      	movs	r3, #0
    18ec:	607b      	str	r3, [r7, #4]
  for (uint8_t i = 0; i < 8; ++i) {
    18ee:	2300      	movs	r3, #0
    18f0:	70fb      	strb	r3, [r7, #3]
    18f2:	78fb      	ldrb	r3, [r7, #3]
    18f4:	2b07      	cmp	r3, #7
    18f6:	d85f      	bhi.n	19b8 <TestTableFct2()+0xd4>
    switch (i) {
    18f8:	78fb      	ldrb	r3, [r7, #3]
    18fa:	2b07      	cmp	r3, #7
    18fc:	d852      	bhi.n	19a4 <TestTableFct2()+0xc0>
    18fe:	a201      	add	r2, pc, #4	; (adr r2, 1904 <TestTableFct2()+0x20>)
    1900:	f852 f023 	ldr.w	pc, [r2, r3, lsl #2]
    1904:	00001925 	.word	0x00001925
    1908:	00001935 	.word	0x00001935
    190c:	00001945 	.word	0x00001945
    1910:	00001955 	.word	0x00001955
    1914:	00001965 	.word	0x00001965
    1918:	00001975 	.word	0x00001975
    191c:	00001985 	.word	0x00001985
    1920:	00001995 	.word	0x00001995
    case 0u:
      accu += TableFct0(); // 0
    1924:	f7ff ff0c 	bl	1740 <TableFct0()>
    1928:	4603      	mov	r3, r0
    192a:	461a      	mov	r2, r3
    192c:	687b      	ldr	r3, [r7, #4]
    192e:	4413      	add	r3, r2
    1930:	607b      	str	r3, [r7, #4]
      break;
    1932:	e03d      	b.n	19b0 <TestTableFct2()+0xcc>
    case 1u:
      accu += TableFct1(); // 1
    1934:	f7ff ff10 	bl	1758 <TableFct1()>
    1938:	4603      	mov	r3, r0
    193a:	461a      	mov	r2, r3
    193c:	687b      	ldr	r3, [r7, #4]
    193e:	4413      	add	r3, r2
    1940:	607b      	str	r3, [r7, #4]
      break;
    1942:	e035      	b.n	19b0 <TestTableFct2()+0xcc>
    case 2u:
      accu += TableFct2(); // 3
    1944:	f7ff ff19 	bl	177a <TableFct2()>
    1948:	4603      	mov	r3, r0
    194a:	461a      	mov	r2, r3
    194c:	687b      	ldr	r3, [r7, #4]
    194e:	4413      	add	r3, r2
    1950:	607b      	str	r3, [r7, #4]
      break;
    1952:	e02d      	b.n	19b0 <TestTableFct2()+0xcc>
    case 3u:
      accu += TableFct3(); // 6
    1954:	f7ff ff1d 	bl	1792 <TableFct3()>
    1958:	4603      	mov	r3, r0
    195a:	461a      	mov	r2, r3
    195c:	687b      	ldr	r3, [r7, #4]
    195e:	4413      	add	r3, r2
    1960:	607b      	str	r3, [r7, #4]
      break;
    1962:	e025      	b.n	19b0 <TestTableFct2()+0xcc>
    case 4u:
      accu += TableFct4(); // 10
    1964:	f7ff ff21 	bl	17aa <TableFct4()>
    1968:	4603      	mov	r3, r0
    196a:	461a      	mov	r2, r3
    196c:	687b      	ldr	r3, [r7, #4]
    196e:	4413      	add	r3, r2
    1970:	607b      	str	r3, [r7, #4]
      break;
    1972:	e01d      	b.n	19b0 <TestTableFct2()+0xcc>
    case 5u:
      accu += TableFct5(); // 15
    1974:	f7ff ff25 	bl	17c2 <TableFct5()>
    1978:	4603      	mov	r3, r0
    197a:	461a      	mov	r2, r3
    197c:	687b      	ldr	r3, [r7, #4]
    197e:	4413      	add	r3, r2
    1980:	607b      	str	r3, [r7, #4]
      break;
    1982:	e015      	b.n	19b0 <TestTableFct2()+0xcc>
    case 6u:
      accu += TableFct6(); // 21
    1984:	f7ff ff29 	bl	17da <TableFct6()>
    1988:	4603      	mov	r3, r0
    198a:	461a      	mov	r2, r3
    198c:	687b      	ldr	r3, [r7, #4]
    198e:	4413      	add	r3, r2
    1990:	607b      	str	r3, [r7, #4]
      break;
    1992:	e00d      	b.n	19b0 <TestTableFct2()+0xcc>
    case 7u:
      accu += TableFct7(); // 28
    1994:	f7ff ff2d 	bl	17f2 <TableFct7()>
    1998:	4603      	mov	r3, r0
    199a:	461a      	mov	r2, r3
    199c:	687b      	ldr	r3, [r7, #4]
    199e:	4413      	add	r3, r2
    19a0:	607b      	str	r3, [r7, #4]
      break;
    19a2:	e005      	b.n	19b0 <TestTableFct2()+0xcc>
    default: // clearly an error
      assert(false);
    19a4:	4b07      	ldr	r3, [pc, #28]	; (19c4 <TestTableFct2()+0xe0>)
    19a6:	4a08      	ldr	r2, [pc, #32]	; (19c8 <TestTableFct2()+0xe4>)
    19a8:	2166      	movs	r1, #102	; 0x66
    19aa:	4808      	ldr	r0, [pc, #32]	; (19cc <TestTableFct2()+0xe8>)
    19ac:	f00a f890 	bl	bad0 <__assert_func>
  for (uint8_t i = 0; i < 8; ++i) {
    19b0:	78fb      	ldrb	r3, [r7, #3]
    19b2:	3301      	adds	r3, #1
    19b4:	70fb      	strb	r3, [r7, #3]
    19b6:	e79c      	b.n	18f2 <TestTableFct2()+0xe>
      break;
    }
  }

  return accu;
    19b8:	687b      	ldr	r3, [r7, #4]
}
    19ba:	4618      	mov	r0, r3
    19bc:	3708      	adds	r7, #8
    19be:	46bd      	mov	sp, r7
    19c0:	bd80      	pop	{r7, pc}
    19c2:	bf00      	nop
    19c4:	00017ee4 	.word	0x00017ee4
    19c8:	00017eec 	.word	0x00017eec
    19cc:	00017f08 	.word	0x00017f08

000019d0 <TestSwitchCase()>:

void TestSwitchCase() {
    19d0:	b580      	push	{r7, lr}
    19d2:	af00      	add	r7, sp, #0
  printf("# Test: Switch/case\n");
    19d4:	4813      	ldr	r0, [pc, #76]	; (1a24 <TestSwitchCase()+0x54>)
    19d6:	f00b f921 	bl	cc1c <puts>
  assert(TestTableFct1('s') == 4u);
    19da:	2073      	movs	r0, #115	; 0x73
    19dc:	f7ff ff1a 	bl	1814 <TestTableFct1(char)>
    19e0:	4603      	mov	r3, r0
    19e2:	2b04      	cmp	r3, #4
    19e4:	d005      	beq.n	19f2 <TestSwitchCase()+0x22>
    19e6:	4b10      	ldr	r3, [pc, #64]	; (1a28 <TestSwitchCase()+0x58>)
    19e8:	4a10      	ldr	r2, [pc, #64]	; (1a2c <TestSwitchCase()+0x5c>)
    19ea:	2170      	movs	r1, #112	; 0x70
    19ec:	4810      	ldr	r0, [pc, #64]	; (1a30 <TestSwitchCase()+0x60>)
    19ee:	f00a f86f 	bl	bad0 <__assert_func>
  assert(TestTableFct1('h') == 1u);
    19f2:	2068      	movs	r0, #104	; 0x68
    19f4:	f7ff ff0e 	bl	1814 <TestTableFct1(char)>
    19f8:	4603      	mov	r3, r0
    19fa:	2b01      	cmp	r3, #1
    19fc:	d005      	beq.n	1a0a <TestSwitchCase()+0x3a>
    19fe:	4b0d      	ldr	r3, [pc, #52]	; (1a34 <TestSwitchCase()+0x64>)
    1a00:	4a0a      	ldr	r2, [pc, #40]	; (1a2c <TestSwitchCase()+0x5c>)
    1a02:	2171      	movs	r1, #113	; 0x71
    1a04:	480a      	ldr	r0, [pc, #40]	; (1a30 <TestSwitchCase()+0x60>)
    1a06:	f00a f863 	bl	bad0 <__assert_func>
  assert(TestTableFct2() == 28u);
    1a0a:	f7ff ff6b 	bl	18e4 <TestTableFct2()>
    1a0e:	4603      	mov	r3, r0
    1a10:	2b1c      	cmp	r3, #28
    1a12:	d005      	beq.n	1a20 <TestSwitchCase()+0x50>
    1a14:	4b08      	ldr	r3, [pc, #32]	; (1a38 <TestSwitchCase()+0x68>)
    1a16:	4a05      	ldr	r2, [pc, #20]	; (1a2c <TestSwitchCase()+0x5c>)
    1a18:	2172      	movs	r1, #114	; 0x72
    1a1a:	4805      	ldr	r0, [pc, #20]	; (1a30 <TestSwitchCase()+0x60>)
    1a1c:	f00a f858 	bl	bad0 <__assert_func>
    1a20:	bf00      	nop
    1a22:	bd80      	pop	{r7, pc}
    1a24:	00017f54 	.word	0x00017f54
    1a28:	00017f68 	.word	0x00017f68
    1a2c:	00017f84 	.word	0x00017f84
    1a30:	00017f08 	.word	0x00017f08
    1a34:	00017f9c 	.word	0x00017f9c
    1a38:	00017fb8 	.word	0x00017fb8

00001a3c <Fibonacci(int)>:
#include <assert.h>
#include <stdint.h>
#include <stdio.h>

// Recursive fibonacci algorithm
int Fibonacci(int n) {
    1a3c:	b590      	push	{r4, r7, lr}
    1a3e:	b083      	sub	sp, #12
    1a40:	af00      	add	r7, sp, #0
    1a42:	6078      	str	r0, [r7, #4]
  if (n <= 1) {
    1a44:	687b      	ldr	r3, [r7, #4]
    1a46:	2b01      	cmp	r3, #1
    1a48:	dc01      	bgt.n	1a4e <Fibonacci(int)+0x12>
    return n;
    1a4a:	687b      	ldr	r3, [r7, #4]
    1a4c:	e00c      	b.n	1a68 <Fibonacci(int)+0x2c>
  } else {
    return Fibonacci(n - 1) + Fibonacci(n - 2);
    1a4e:	687b      	ldr	r3, [r7, #4]
    1a50:	3b01      	subs	r3, #1
    1a52:	4618      	mov	r0, r3
    1a54:	f7ff fff2 	bl	1a3c <Fibonacci(int)>
    1a58:	4604      	mov	r4, r0
    1a5a:	687b      	ldr	r3, [r7, #4]
    1a5c:	3b02      	subs	r3, #2
    1a5e:	4618      	mov	r0, r3
    1a60:	f7ff ffec 	bl	1a3c <Fibonacci(int)>
    1a64:	4603      	mov	r3, r0
    1a66:	4423      	add	r3, r4
  }
}
    1a68:	4618      	mov	r0, r3
    1a6a:	370c      	adds	r7, #12
    1a6c:	46bd      	mov	sp, r7
    1a6e:	bd90      	pop	{r4, r7, pc}

00001a70 <TestFibonacci()>:

void TestFibonacci() {
    1a70:	b580      	push	{r7, lr}
    1a72:	af00      	add	r7, sp, #0
  printf("# Test: Fibonacci (recursive)\n");
    1a74:	482c      	ldr	r0, [pc, #176]	; (1b28 <TestFibonacci()+0xb8>)
    1a76:	f00b f8d1 	bl	cc1c <puts>
  assert(Fibonacci(5) == 5u);
    1a7a:	2005      	movs	r0, #5
    1a7c:	f7ff ffde 	bl	1a3c <Fibonacci(int)>
    1a80:	4603      	mov	r3, r0
    1a82:	2b05      	cmp	r3, #5
    1a84:	d005      	beq.n	1a92 <TestFibonacci()+0x22>
    1a86:	4b29      	ldr	r3, [pc, #164]	; (1b2c <TestFibonacci()+0xbc>)
    1a88:	4a29      	ldr	r2, [pc, #164]	; (1b30 <TestFibonacci()+0xc0>)
    1a8a:	2111      	movs	r1, #17
    1a8c:	4829      	ldr	r0, [pc, #164]	; (1b34 <TestFibonacci()+0xc4>)
    1a8e:	f00a f81f 	bl	bad0 <__assert_func>
  assert(Fibonacci(6) == 8u);
    1a92:	2006      	movs	r0, #6
    1a94:	f7ff ffd2 	bl	1a3c <Fibonacci(int)>
    1a98:	4603      	mov	r3, r0
    1a9a:	2b08      	cmp	r3, #8
    1a9c:	d005      	beq.n	1aaa <TestFibonacci()+0x3a>
    1a9e:	4b26      	ldr	r3, [pc, #152]	; (1b38 <TestFibonacci()+0xc8>)
    1aa0:	4a23      	ldr	r2, [pc, #140]	; (1b30 <TestFibonacci()+0xc0>)
    1aa2:	2112      	movs	r1, #18
    1aa4:	4823      	ldr	r0, [pc, #140]	; (1b34 <TestFibonacci()+0xc4>)
    1aa6:	f00a f813 	bl	bad0 <__assert_func>
  assert(Fibonacci(7) == 13u);
    1aaa:	2007      	movs	r0, #7
    1aac:	f7ff ffc6 	bl	1a3c <Fibonacci(int)>
    1ab0:	4603      	mov	r3, r0
    1ab2:	2b0d      	cmp	r3, #13
    1ab4:	d005      	beq.n	1ac2 <TestFibonacci()+0x52>
    1ab6:	4b21      	ldr	r3, [pc, #132]	; (1b3c <TestFibonacci()+0xcc>)
    1ab8:	4a1d      	ldr	r2, [pc, #116]	; (1b30 <TestFibonacci()+0xc0>)
    1aba:	2113      	movs	r1, #19
    1abc:	481d      	ldr	r0, [pc, #116]	; (1b34 <TestFibonacci()+0xc4>)
    1abe:	f00a f807 	bl	bad0 <__assert_func>
  assert(Fibonacci(8) == 21u);
    1ac2:	2008      	movs	r0, #8
    1ac4:	f7ff ffba 	bl	1a3c <Fibonacci(int)>
    1ac8:	4603      	mov	r3, r0
    1aca:	2b15      	cmp	r3, #21
    1acc:	d005      	beq.n	1ada <TestFibonacci()+0x6a>
    1ace:	4b1c      	ldr	r3, [pc, #112]	; (1b40 <TestFibonacci()+0xd0>)
    1ad0:	4a17      	ldr	r2, [pc, #92]	; (1b30 <TestFibonacci()+0xc0>)
    1ad2:	2114      	movs	r1, #20
    1ad4:	4817      	ldr	r0, [pc, #92]	; (1b34 <TestFibonacci()+0xc4>)
    1ad6:	f009 fffb 	bl	bad0 <__assert_func>
  assert(Fibonacci(7) == 13u);
    1ada:	2007      	movs	r0, #7
    1adc:	f7ff ffae 	bl	1a3c <Fibonacci(int)>
    1ae0:	4603      	mov	r3, r0
    1ae2:	2b0d      	cmp	r3, #13
    1ae4:	d005      	beq.n	1af2 <TestFibonacci()+0x82>
    1ae6:	4b15      	ldr	r3, [pc, #84]	; (1b3c <TestFibonacci()+0xcc>)
    1ae8:	4a11      	ldr	r2, [pc, #68]	; (1b30 <TestFibonacci()+0xc0>)
    1aea:	2115      	movs	r1, #21
    1aec:	4811      	ldr	r0, [pc, #68]	; (1b34 <TestFibonacci()+0xc4>)
    1aee:	f009 ffef 	bl	bad0 <__assert_func>
  assert(Fibonacci(6) == 8u);
    1af2:	2006      	movs	r0, #6
    1af4:	f7ff ffa2 	bl	1a3c <Fibonacci(int)>
    1af8:	4603      	mov	r3, r0
    1afa:	2b08      	cmp	r3, #8
    1afc:	d005      	beq.n	1b0a <TestFibonacci()+0x9a>
    1afe:	4b0e      	ldr	r3, [pc, #56]	; (1b38 <TestFibonacci()+0xc8>)
    1b00:	4a0b      	ldr	r2, [pc, #44]	; (1b30 <TestFibonacci()+0xc0>)
    1b02:	2116      	movs	r1, #22
    1b04:	480b      	ldr	r0, [pc, #44]	; (1b34 <TestFibonacci()+0xc4>)
    1b06:	f009 ffe3 	bl	bad0 <__assert_func>
  assert(Fibonacci(5) == 5u);
    1b0a:	2005      	movs	r0, #5
    1b0c:	f7ff ff96 	bl	1a3c <Fibonacci(int)>
    1b10:	4603      	mov	r3, r0
    1b12:	2b05      	cmp	r3, #5
    1b14:	d005      	beq.n	1b22 <TestFibonacci()+0xb2>
    1b16:	4b05      	ldr	r3, [pc, #20]	; (1b2c <TestFibonacci()+0xbc>)
    1b18:	4a05      	ldr	r2, [pc, #20]	; (1b30 <TestFibonacci()+0xc0>)
    1b1a:	2117      	movs	r1, #23
    1b1c:	4805      	ldr	r0, [pc, #20]	; (1b34 <TestFibonacci()+0xc4>)
    1b1e:	f009 ffd7 	bl	bad0 <__assert_func>
    1b22:	bf00      	nop
    1b24:	bd80      	pop	{r7, pc}
    1b26:	bf00      	nop
    1b28:	00017fd0 	.word	0x00017fd0
    1b2c:	00017ff0 	.word	0x00017ff0
    1b30:	00018004 	.word	0x00018004
    1b34:	0001801c 	.word	0x0001801c
    1b38:	00018064 	.word	0x00018064
    1b3c:	00018078 	.word	0x00018078
    1b40:	0001808c 	.word	0x0001808c

00001b44 <TestQuicksort()>:
    QuickSort(arr, low, pi - 1);
    QuickSort(arr, pi + 1, high);
  }
}

void TestQuicksort() {
    1b44:	b5b0      	push	{r4, r5, r7, lr}
    1b46:	b096      	sub	sp, #88	; 0x58
    1b48:	af00      	add	r7, sp, #0
  printf("# Test: Quicksort\n");
    1b4a:	4899      	ldr	r0, [pc, #612]	; (1db0 <TestQuicksort()+0x26c>)
    1b4c:	f00b f866 	bl	cc1c <puts>

  // 32-bit
  volatile uint32_t arr32[] = {9, 3, 7, 1, 5, 4, 8, 6, 2, 0};
    1b50:	4b98      	ldr	r3, [pc, #608]	; (1db4 <TestQuicksort()+0x270>)
    1b52:	f107 0424 	add.w	r4, r7, #36	; 0x24
    1b56:	461d      	mov	r5, r3
    1b58:	cd0f      	ldmia	r5!, {r0, r1, r2, r3}
    1b5a:	c40f      	stmia	r4!, {r0, r1, r2, r3}
    1b5c:	cd0f      	ldmia	r5!, {r0, r1, r2, r3}
    1b5e:	c40f      	stmia	r4!, {r0, r1, r2, r3}
    1b60:	e895 0003 	ldmia.w	r5, {r0, r1}
    1b64:	e884 0003 	stmia.w	r4, {r0, r1}
  int n32 = sizeof(arr32) / sizeof(arr32[0]);
    1b68:	230a      	movs	r3, #10
    1b6a:	657b      	str	r3, [r7, #84]	; 0x54
  QuickSort(arr32, 0, n32 - 1);
    1b6c:	6d7b      	ldr	r3, [r7, #84]	; 0x54
    1b6e:	1e5a      	subs	r2, r3, #1
    1b70:	f107 0324 	add.w	r3, r7, #36	; 0x24
    1b74:	2100      	movs	r1, #0
    1b76:	4618      	mov	r0, r3
    1b78:	f000 f992 	bl	1ea0 <void QuickSort<unsigned long volatile>(unsigned long volatile*, int, int)>
  assert(arr32[0] == 0u);
    1b7c:	6a7b      	ldr	r3, [r7, #36]	; 0x24
    1b7e:	2b00      	cmp	r3, #0
    1b80:	d005      	beq.n	1b8e <TestQuicksort()+0x4a>
    1b82:	4b8d      	ldr	r3, [pc, #564]	; (1db8 <TestQuicksort()+0x274>)
    1b84:	4a8d      	ldr	r2, [pc, #564]	; (1dbc <TestQuicksort()+0x278>)
    1b86:	212b      	movs	r1, #43	; 0x2b
    1b88:	488d      	ldr	r0, [pc, #564]	; (1dc0 <TestQuicksort()+0x27c>)
    1b8a:	f009 ffa1 	bl	bad0 <__assert_func>
  assert(arr32[1] == 1u);
    1b8e:	6abb      	ldr	r3, [r7, #40]	; 0x28
    1b90:	2b01      	cmp	r3, #1
    1b92:	d005      	beq.n	1ba0 <TestQuicksort()+0x5c>
    1b94:	4b8b      	ldr	r3, [pc, #556]	; (1dc4 <TestQuicksort()+0x280>)
    1b96:	4a89      	ldr	r2, [pc, #548]	; (1dbc <TestQuicksort()+0x278>)
    1b98:	212c      	movs	r1, #44	; 0x2c
    1b9a:	4889      	ldr	r0, [pc, #548]	; (1dc0 <TestQuicksort()+0x27c>)
    1b9c:	f009 ff98 	bl	bad0 <__assert_func>
  assert(arr32[2] == 2u);
    1ba0:	6afb      	ldr	r3, [r7, #44]	; 0x2c
    1ba2:	2b02      	cmp	r3, #2
    1ba4:	d005      	beq.n	1bb2 <TestQuicksort()+0x6e>
    1ba6:	4b88      	ldr	r3, [pc, #544]	; (1dc8 <TestQuicksort()+0x284>)
    1ba8:	4a84      	ldr	r2, [pc, #528]	; (1dbc <TestQuicksort()+0x278>)
    1baa:	212d      	movs	r1, #45	; 0x2d
    1bac:	4884      	ldr	r0, [pc, #528]	; (1dc0 <TestQuicksort()+0x27c>)
    1bae:	f009 ff8f 	bl	bad0 <__assert_func>
  assert(arr32[3] == 3u);
    1bb2:	6b3b      	ldr	r3, [r7, #48]	; 0x30
    1bb4:	2b03      	cmp	r3, #3
    1bb6:	d005      	beq.n	1bc4 <TestQuicksort()+0x80>
    1bb8:	4b84      	ldr	r3, [pc, #528]	; (1dcc <TestQuicksort()+0x288>)
    1bba:	4a80      	ldr	r2, [pc, #512]	; (1dbc <TestQuicksort()+0x278>)
    1bbc:	212e      	movs	r1, #46	; 0x2e
    1bbe:	4880      	ldr	r0, [pc, #512]	; (1dc0 <TestQuicksort()+0x27c>)
    1bc0:	f009 ff86 	bl	bad0 <__assert_func>
  assert(arr32[4] == 4u);
    1bc4:	6b7b      	ldr	r3, [r7, #52]	; 0x34
    1bc6:	2b04      	cmp	r3, #4
    1bc8:	d005      	beq.n	1bd6 <TestQuicksort()+0x92>
    1bca:	4b81      	ldr	r3, [pc, #516]	; (1dd0 <TestQuicksort()+0x28c>)
    1bcc:	4a7b      	ldr	r2, [pc, #492]	; (1dbc <TestQuicksort()+0x278>)
    1bce:	212f      	movs	r1, #47	; 0x2f
    1bd0:	487b      	ldr	r0, [pc, #492]	; (1dc0 <TestQuicksort()+0x27c>)
    1bd2:	f009 ff7d 	bl	bad0 <__assert_func>
  assert(arr32[5] == 5u);
    1bd6:	6bbb      	ldr	r3, [r7, #56]	; 0x38
    1bd8:	2b05      	cmp	r3, #5
    1bda:	d005      	beq.n	1be8 <TestQuicksort()+0xa4>
    1bdc:	4b7d      	ldr	r3, [pc, #500]	; (1dd4 <TestQuicksort()+0x290>)
    1bde:	4a77      	ldr	r2, [pc, #476]	; (1dbc <TestQuicksort()+0x278>)
    1be0:	2130      	movs	r1, #48	; 0x30
    1be2:	4877      	ldr	r0, [pc, #476]	; (1dc0 <TestQuicksort()+0x27c>)
    1be4:	f009 ff74 	bl	bad0 <__assert_func>
  assert(arr32[6] == 6u);
    1be8:	6bfb      	ldr	r3, [r7, #60]	; 0x3c
    1bea:	2b06      	cmp	r3, #6
    1bec:	d005      	beq.n	1bfa <TestQuicksort()+0xb6>
    1bee:	4b7a      	ldr	r3, [pc, #488]	; (1dd8 <TestQuicksort()+0x294>)
    1bf0:	4a72      	ldr	r2, [pc, #456]	; (1dbc <TestQuicksort()+0x278>)
    1bf2:	2131      	movs	r1, #49	; 0x31
    1bf4:	4872      	ldr	r0, [pc, #456]	; (1dc0 <TestQuicksort()+0x27c>)
    1bf6:	f009 ff6b 	bl	bad0 <__assert_func>
  assert(arr32[7] == 7u);
    1bfa:	6c3b      	ldr	r3, [r7, #64]	; 0x40
    1bfc:	2b07      	cmp	r3, #7
    1bfe:	d005      	beq.n	1c0c <TestQuicksort()+0xc8>
    1c00:	4b76      	ldr	r3, [pc, #472]	; (1ddc <TestQuicksort()+0x298>)
    1c02:	4a6e      	ldr	r2, [pc, #440]	; (1dbc <TestQuicksort()+0x278>)
    1c04:	2132      	movs	r1, #50	; 0x32
    1c06:	486e      	ldr	r0, [pc, #440]	; (1dc0 <TestQuicksort()+0x27c>)
    1c08:	f009 ff62 	bl	bad0 <__assert_func>
  assert(arr32[8] == 8u);
    1c0c:	6c7b      	ldr	r3, [r7, #68]	; 0x44
    1c0e:	2b08      	cmp	r3, #8
    1c10:	d005      	beq.n	1c1e <TestQuicksort()+0xda>
    1c12:	4b73      	ldr	r3, [pc, #460]	; (1de0 <TestQuicksort()+0x29c>)
    1c14:	4a69      	ldr	r2, [pc, #420]	; (1dbc <TestQuicksort()+0x278>)
    1c16:	2133      	movs	r1, #51	; 0x33
    1c18:	4869      	ldr	r0, [pc, #420]	; (1dc0 <TestQuicksort()+0x27c>)
    1c1a:	f009 ff59 	bl	bad0 <__assert_func>
  assert(arr32[9] == 9u);
    1c1e:	6cbb      	ldr	r3, [r7, #72]	; 0x48
    1c20:	2b09      	cmp	r3, #9
    1c22:	d005      	beq.n	1c30 <TestQuicksort()+0xec>
    1c24:	4b6f      	ldr	r3, [pc, #444]	; (1de4 <TestQuicksort()+0x2a0>)
    1c26:	4a65      	ldr	r2, [pc, #404]	; (1dbc <TestQuicksort()+0x278>)
    1c28:	2134      	movs	r1, #52	; 0x34
    1c2a:	4865      	ldr	r0, [pc, #404]	; (1dc0 <TestQuicksort()+0x27c>)
    1c2c:	f009 ff50 	bl	bad0 <__assert_func>

  // 16-bit
  volatile uint16_t arr16[] = {9, 3, 7, 1, 5, 4, 8, 6, 2, 0};
    1c30:	4b6d      	ldr	r3, [pc, #436]	; (1de8 <TestQuicksort()+0x2a4>)
    1c32:	f107 0410 	add.w	r4, r7, #16
    1c36:	461d      	mov	r5, r3
    1c38:	cd0f      	ldmia	r5!, {r0, r1, r2, r3}
    1c3a:	c40f      	stmia	r4!, {r0, r1, r2, r3}
    1c3c:	682b      	ldr	r3, [r5, #0]
    1c3e:	6023      	str	r3, [r4, #0]
  int n16 = sizeof(arr16) / sizeof(arr16[0]);
    1c40:	230a      	movs	r3, #10
    1c42:	653b      	str	r3, [r7, #80]	; 0x50
  QuickSort(arr16, 0, n16 - 1);
    1c44:	6d3b      	ldr	r3, [r7, #80]	; 0x50
    1c46:	1e5a      	subs	r2, r3, #1
    1c48:	f107 0310 	add.w	r3, r7, #16
    1c4c:	2100      	movs	r1, #0
    1c4e:	4618      	mov	r0, r3
    1c50:	f000 f949 	bl	1ee6 <void QuickSort<unsigned short volatile>(unsigned short volatile*, int, int)>
  assert(arr16[0] == 0u);
    1c54:	8a3b      	ldrh	r3, [r7, #16]
    1c56:	b29b      	uxth	r3, r3
    1c58:	2b00      	cmp	r3, #0
    1c5a:	d005      	beq.n	1c68 <TestQuicksort()+0x124>
    1c5c:	4b63      	ldr	r3, [pc, #396]	; (1dec <TestQuicksort()+0x2a8>)
    1c5e:	4a57      	ldr	r2, [pc, #348]	; (1dbc <TestQuicksort()+0x278>)
    1c60:	213a      	movs	r1, #58	; 0x3a
    1c62:	4857      	ldr	r0, [pc, #348]	; (1dc0 <TestQuicksort()+0x27c>)
    1c64:	f009 ff34 	bl	bad0 <__assert_func>
  assert(arr16[1] == 1u);
    1c68:	8a7b      	ldrh	r3, [r7, #18]
    1c6a:	b29b      	uxth	r3, r3
    1c6c:	2b01      	cmp	r3, #1
    1c6e:	d005      	beq.n	1c7c <TestQuicksort()+0x138>
    1c70:	4b5f      	ldr	r3, [pc, #380]	; (1df0 <TestQuicksort()+0x2ac>)
    1c72:	4a52      	ldr	r2, [pc, #328]	; (1dbc <TestQuicksort()+0x278>)
    1c74:	213b      	movs	r1, #59	; 0x3b
    1c76:	4852      	ldr	r0, [pc, #328]	; (1dc0 <TestQuicksort()+0x27c>)
    1c78:	f009 ff2a 	bl	bad0 <__assert_func>
  assert(arr16[2] == 2u);
    1c7c:	8abb      	ldrh	r3, [r7, #20]
    1c7e:	b29b      	uxth	r3, r3
    1c80:	2b02      	cmp	r3, #2
    1c82:	d005      	beq.n	1c90 <TestQuicksort()+0x14c>
    1c84:	4b5b      	ldr	r3, [pc, #364]	; (1df4 <TestQuicksort()+0x2b0>)
    1c86:	4a4d      	ldr	r2, [pc, #308]	; (1dbc <TestQuicksort()+0x278>)
    1c88:	213c      	movs	r1, #60	; 0x3c
    1c8a:	484d      	ldr	r0, [pc, #308]	; (1dc0 <TestQuicksort()+0x27c>)
    1c8c:	f009 ff20 	bl	bad0 <__assert_func>
  assert(arr16[3] == 3u);
    1c90:	8afb      	ldrh	r3, [r7, #22]
    1c92:	b29b      	uxth	r3, r3
    1c94:	2b03      	cmp	r3, #3
    1c96:	d005      	beq.n	1ca4 <TestQuicksort()+0x160>
    1c98:	4b57      	ldr	r3, [pc, #348]	; (1df8 <TestQuicksort()+0x2b4>)
    1c9a:	4a48      	ldr	r2, [pc, #288]	; (1dbc <TestQuicksort()+0x278>)
    1c9c:	213d      	movs	r1, #61	; 0x3d
    1c9e:	4848      	ldr	r0, [pc, #288]	; (1dc0 <TestQuicksort()+0x27c>)
    1ca0:	f009 ff16 	bl	bad0 <__assert_func>
  assert(arr16[4] == 4u);
    1ca4:	8b3b      	ldrh	r3, [r7, #24]
    1ca6:	b29b      	uxth	r3, r3
    1ca8:	2b04      	cmp	r3, #4
    1caa:	d005      	beq.n	1cb8 <TestQuicksort()+0x174>
    1cac:	4b53      	ldr	r3, [pc, #332]	; (1dfc <TestQuicksort()+0x2b8>)
    1cae:	4a43      	ldr	r2, [pc, #268]	; (1dbc <TestQuicksort()+0x278>)
    1cb0:	213e      	movs	r1, #62	; 0x3e
    1cb2:	4843      	ldr	r0, [pc, #268]	; (1dc0 <TestQuicksort()+0x27c>)
    1cb4:	f009 ff0c 	bl	bad0 <__assert_func>
  assert(arr16[5] == 5u);
    1cb8:	8b7b      	ldrh	r3, [r7, #26]
    1cba:	b29b      	uxth	r3, r3
    1cbc:	2b05      	cmp	r3, #5
    1cbe:	d005      	beq.n	1ccc <TestQuicksort()+0x188>
    1cc0:	4b4f      	ldr	r3, [pc, #316]	; (1e00 <TestQuicksort()+0x2bc>)
    1cc2:	4a3e      	ldr	r2, [pc, #248]	; (1dbc <TestQuicksort()+0x278>)
    1cc4:	213f      	movs	r1, #63	; 0x3f
    1cc6:	483e      	ldr	r0, [pc, #248]	; (1dc0 <TestQuicksort()+0x27c>)
    1cc8:	f009 ff02 	bl	bad0 <__assert_func>
  assert(arr16[6] == 6u);
    1ccc:	8bbb      	ldrh	r3, [r7, #28]
    1cce:	b29b      	uxth	r3, r3
    1cd0:	2b06      	cmp	r3, #6
    1cd2:	d005      	beq.n	1ce0 <TestQuicksort()+0x19c>
    1cd4:	4b4b      	ldr	r3, [pc, #300]	; (1e04 <TestQuicksort()+0x2c0>)
    1cd6:	4a39      	ldr	r2, [pc, #228]	; (1dbc <TestQuicksort()+0x278>)
    1cd8:	2140      	movs	r1, #64	; 0x40
    1cda:	4839      	ldr	r0, [pc, #228]	; (1dc0 <TestQuicksort()+0x27c>)
    1cdc:	f009 fef8 	bl	bad0 <__assert_func>
  assert(arr16[7] == 7u);
    1ce0:	8bfb      	ldrh	r3, [r7, #30]
    1ce2:	b29b      	uxth	r3, r3
    1ce4:	2b07      	cmp	r3, #7
    1ce6:	d005      	beq.n	1cf4 <TestQuicksort()+0x1b0>
    1ce8:	4b47      	ldr	r3, [pc, #284]	; (1e08 <TestQuicksort()+0x2c4>)
    1cea:	4a34      	ldr	r2, [pc, #208]	; (1dbc <TestQuicksort()+0x278>)
    1cec:	2141      	movs	r1, #65	; 0x41
    1cee:	4834      	ldr	r0, [pc, #208]	; (1dc0 <TestQuicksort()+0x27c>)
    1cf0:	f009 feee 	bl	bad0 <__assert_func>
  assert(arr16[8] == 8u);
    1cf4:	8c3b      	ldrh	r3, [r7, #32]
    1cf6:	b29b      	uxth	r3, r3
    1cf8:	2b08      	cmp	r3, #8
    1cfa:	d005      	beq.n	1d08 <TestQuicksort()+0x1c4>
    1cfc:	4b43      	ldr	r3, [pc, #268]	; (1e0c <TestQuicksort()+0x2c8>)
    1cfe:	4a2f      	ldr	r2, [pc, #188]	; (1dbc <TestQuicksort()+0x278>)
    1d00:	2142      	movs	r1, #66	; 0x42
    1d02:	482f      	ldr	r0, [pc, #188]	; (1dc0 <TestQuicksort()+0x27c>)
    1d04:	f009 fee4 	bl	bad0 <__assert_func>
  assert(arr16[9] == 9u);
    1d08:	8c7b      	ldrh	r3, [r7, #34]	; 0x22
    1d0a:	b29b      	uxth	r3, r3
    1d0c:	2b09      	cmp	r3, #9
    1d0e:	d005      	beq.n	1d1c <TestQuicksort()+0x1d8>
    1d10:	4b3f      	ldr	r3, [pc, #252]	; (1e10 <TestQuicksort()+0x2cc>)
    1d12:	4a2a      	ldr	r2, [pc, #168]	; (1dbc <TestQuicksort()+0x278>)
    1d14:	2143      	movs	r1, #67	; 0x43
    1d16:	482a      	ldr	r0, [pc, #168]	; (1dc0 <TestQuicksort()+0x27c>)
    1d18:	f009 feda 	bl	bad0 <__assert_func>

  // 8-bit
  volatile uint8_t arr8[] = {9, 3, 7, 1, 5, 4, 8, 6, 2, 0};
    1d1c:	4a3d      	ldr	r2, [pc, #244]	; (1e14 <TestQuicksort()+0x2d0>)
    1d1e:	1d3b      	adds	r3, r7, #4
    1d20:	ca07      	ldmia	r2, {r0, r1, r2}
    1d22:	c303      	stmia	r3!, {r0, r1}
    1d24:	801a      	strh	r2, [r3, #0]
  int n8 = sizeof(arr8) / sizeof(arr8[0]);
    1d26:	230a      	movs	r3, #10
    1d28:	64fb      	str	r3, [r7, #76]	; 0x4c
  QuickSort(arr8, 0, n8 - 1);
    1d2a:	6cfb      	ldr	r3, [r7, #76]	; 0x4c
    1d2c:	1e5a      	subs	r2, r3, #1
    1d2e:	1d3b      	adds	r3, r7, #4
    1d30:	2100      	movs	r1, #0
    1d32:	4618      	mov	r0, r3
    1d34:	f000 f8fa 	bl	1f2c <void QuickSort<unsigned char volatile>(unsigned char volatile*, int, int)>
  assert(arr8[0] == 0u);
    1d38:	793b      	ldrb	r3, [r7, #4]
    1d3a:	b2db      	uxtb	r3, r3
    1d3c:	2b00      	cmp	r3, #0
    1d3e:	d005      	beq.n	1d4c <TestQuicksort()+0x208>
    1d40:	4b35      	ldr	r3, [pc, #212]	; (1e18 <TestQuicksort()+0x2d4>)
    1d42:	4a1e      	ldr	r2, [pc, #120]	; (1dbc <TestQuicksort()+0x278>)
    1d44:	2149      	movs	r1, #73	; 0x49
    1d46:	481e      	ldr	r0, [pc, #120]	; (1dc0 <TestQuicksort()+0x27c>)
    1d48:	f009 fec2 	bl	bad0 <__assert_func>
  assert(arr8[1] == 1u);
    1d4c:	797b      	ldrb	r3, [r7, #5]
    1d4e:	b2db      	uxtb	r3, r3
    1d50:	2b01      	cmp	r3, #1
    1d52:	d005      	beq.n	1d60 <TestQuicksort()+0x21c>
    1d54:	4b31      	ldr	r3, [pc, #196]	; (1e1c <TestQuicksort()+0x2d8>)
    1d56:	4a19      	ldr	r2, [pc, #100]	; (1dbc <TestQuicksort()+0x278>)
    1d58:	214a      	movs	r1, #74	; 0x4a
    1d5a:	4819      	ldr	r0, [pc, #100]	; (1dc0 <TestQuicksort()+0x27c>)
    1d5c:	f009 feb8 	bl	bad0 <__assert_func>
  assert(arr8[2] == 2u);
    1d60:	79bb      	ldrb	r3, [r7, #6]
    1d62:	b2db      	uxtb	r3, r3
    1d64:	2b02      	cmp	r3, #2
    1d66:	d005      	beq.n	1d74 <TestQuicksort()+0x230>
    1d68:	4b2d      	ldr	r3, [pc, #180]	; (1e20 <TestQuicksort()+0x2dc>)
    1d6a:	4a14      	ldr	r2, [pc, #80]	; (1dbc <TestQuicksort()+0x278>)
    1d6c:	214b      	movs	r1, #75	; 0x4b
    1d6e:	4814      	ldr	r0, [pc, #80]	; (1dc0 <TestQuicksort()+0x27c>)
    1d70:	f009 feae 	bl	bad0 <__assert_func>
  assert(arr8[3] == 3u);
    1d74:	79fb      	ldrb	r3, [r7, #7]
    1d76:	b2db      	uxtb	r3, r3
    1d78:	2b03      	cmp	r3, #3
    1d7a:	d005      	beq.n	1d88 <TestQuicksort()+0x244>
    1d7c:	4b29      	ldr	r3, [pc, #164]	; (1e24 <TestQuicksort()+0x2e0>)
    1d7e:	4a0f      	ldr	r2, [pc, #60]	; (1dbc <TestQuicksort()+0x278>)
    1d80:	214c      	movs	r1, #76	; 0x4c
    1d82:	480f      	ldr	r0, [pc, #60]	; (1dc0 <TestQuicksort()+0x27c>)
    1d84:	f009 fea4 	bl	bad0 <__assert_func>
  assert(arr8[4] == 4u);
    1d88:	7a3b      	ldrb	r3, [r7, #8]
    1d8a:	b2db      	uxtb	r3, r3
    1d8c:	2b04      	cmp	r3, #4
    1d8e:	d005      	beq.n	1d9c <TestQuicksort()+0x258>
    1d90:	4b25      	ldr	r3, [pc, #148]	; (1e28 <TestQuicksort()+0x2e4>)
    1d92:	4a0a      	ldr	r2, [pc, #40]	; (1dbc <TestQuicksort()+0x278>)
    1d94:	214d      	movs	r1, #77	; 0x4d
    1d96:	480a      	ldr	r0, [pc, #40]	; (1dc0 <TestQuicksort()+0x27c>)
    1d98:	f009 fe9a 	bl	bad0 <__assert_func>
  assert(arr8[5] == 5u);
    1d9c:	7a7b      	ldrb	r3, [r7, #9]
    1d9e:	b2db      	uxtb	r3, r3
    1da0:	2b05      	cmp	r3, #5
    1da2:	d045      	beq.n	1e30 <TestQuicksort()+0x2ec>
    1da4:	4b21      	ldr	r3, [pc, #132]	; (1e2c <TestQuicksort()+0x2e8>)
    1da6:	4a05      	ldr	r2, [pc, #20]	; (1dbc <TestQuicksort()+0x278>)
    1da8:	214e      	movs	r1, #78	; 0x4e
    1daa:	4805      	ldr	r0, [pc, #20]	; (1dc0 <TestQuicksort()+0x27c>)
    1dac:	f009 fe90 	bl	bad0 <__assert_func>
    1db0:	000180a0 	.word	0x000180a0
    1db4:	000182f4 	.word	0x000182f4
    1db8:	000180b4 	.word	0x000180b4
    1dbc:	000180c4 	.word	0x000180c4
    1dc0:	000180dc 	.word	0x000180dc
    1dc4:	00018124 	.word	0x00018124
    1dc8:	00018134 	.word	0x00018134
    1dcc:	00018144 	.word	0x00018144
    1dd0:	00018154 	.word	0x00018154
    1dd4:	00018164 	.word	0x00018164
    1dd8:	00018174 	.word	0x00018174
    1ddc:	00018184 	.word	0x00018184
    1de0:	00018194 	.word	0x00018194
    1de4:	000181a4 	.word	0x000181a4
    1de8:	0001831c 	.word	0x0001831c
    1dec:	000181b4 	.word	0x000181b4
    1df0:	000181c4 	.word	0x000181c4
    1df4:	000181d4 	.word	0x000181d4
    1df8:	000181e4 	.word	0x000181e4
    1dfc:	000181f4 	.word	0x000181f4
    1e00:	00018204 	.word	0x00018204
    1e04:	00018214 	.word	0x00018214
    1e08:	00018224 	.word	0x00018224
    1e0c:	00018234 	.word	0x00018234
    1e10:	00018244 	.word	0x00018244
    1e14:	00018330 	.word	0x00018330
    1e18:	00018254 	.word	0x00018254
    1e1c:	00018264 	.word	0x00018264
    1e20:	00018274 	.word	0x00018274
    1e24:	00018284 	.word	0x00018284
    1e28:	00018294 	.word	0x00018294
    1e2c:	000182a4 	.word	0x000182a4
  assert(arr8[6] == 6u);
    1e30:	7abb      	ldrb	r3, [r7, #10]
    1e32:	b2db      	uxtb	r3, r3
    1e34:	2b06      	cmp	r3, #6
    1e36:	d005      	beq.n	1e44 <TestQuicksort()+0x300>
    1e38:	4b13      	ldr	r3, [pc, #76]	; (1e88 <TestQuicksort()+0x344>)
    1e3a:	4a14      	ldr	r2, [pc, #80]	; (1e8c <TestQuicksort()+0x348>)
    1e3c:	214f      	movs	r1, #79	; 0x4f
    1e3e:	4814      	ldr	r0, [pc, #80]	; (1e90 <TestQuicksort()+0x34c>)
    1e40:	f009 fe46 	bl	bad0 <__assert_func>
  assert(arr8[7] == 7u);
    1e44:	7afb      	ldrb	r3, [r7, #11]
    1e46:	b2db      	uxtb	r3, r3
    1e48:	2b07      	cmp	r3, #7
    1e4a:	d005      	beq.n	1e58 <TestQuicksort()+0x314>
    1e4c:	4b11      	ldr	r3, [pc, #68]	; (1e94 <TestQuicksort()+0x350>)
    1e4e:	4a0f      	ldr	r2, [pc, #60]	; (1e8c <TestQuicksort()+0x348>)
    1e50:	2150      	movs	r1, #80	; 0x50
    1e52:	480f      	ldr	r0, [pc, #60]	; (1e90 <TestQuicksort()+0x34c>)
    1e54:	f009 fe3c 	bl	bad0 <__assert_func>
  assert(arr8[8] == 8u);
    1e58:	7b3b      	ldrb	r3, [r7, #12]
    1e5a:	b2db      	uxtb	r3, r3
    1e5c:	2b08      	cmp	r3, #8
    1e5e:	d005      	beq.n	1e6c <TestQuicksort()+0x328>
    1e60:	4b0d      	ldr	r3, [pc, #52]	; (1e98 <TestQuicksort()+0x354>)
    1e62:	4a0a      	ldr	r2, [pc, #40]	; (1e8c <TestQuicksort()+0x348>)
    1e64:	2151      	movs	r1, #81	; 0x51
    1e66:	480a      	ldr	r0, [pc, #40]	; (1e90 <TestQuicksort()+0x34c>)
    1e68:	f009 fe32 	bl	bad0 <__assert_func>
  assert(arr8[9] == 9u);
    1e6c:	7b7b      	ldrb	r3, [r7, #13]
    1e6e:	b2db      	uxtb	r3, r3
    1e70:	2b09      	cmp	r3, #9
    1e72:	d005      	beq.n	1e80 <TestQuicksort()+0x33c>
    1e74:	4b09      	ldr	r3, [pc, #36]	; (1e9c <TestQuicksort()+0x358>)
    1e76:	4a05      	ldr	r2, [pc, #20]	; (1e8c <TestQuicksort()+0x348>)
    1e78:	2152      	movs	r1, #82	; 0x52
    1e7a:	4805      	ldr	r0, [pc, #20]	; (1e90 <TestQuicksort()+0x34c>)
    1e7c:	f009 fe28 	bl	bad0 <__assert_func>
    1e80:	bf00      	nop
    1e82:	3758      	adds	r7, #88	; 0x58
    1e84:	46bd      	mov	sp, r7
    1e86:	bdb0      	pop	{r4, r5, r7, pc}
    1e88:	000182b4 	.word	0x000182b4
    1e8c:	000180c4 	.word	0x000180c4
    1e90:	000180dc 	.word	0x000180dc
    1e94:	000182c4 	.word	0x000182c4
    1e98:	000182d4 	.word	0x000182d4
    1e9c:	000182e4 	.word	0x000182e4

00001ea0 <void QuickSort<unsigned long volatile>(unsigned long volatile*, int, int)>:
template <typename T> void QuickSort(T arr[], int low, int high) {
    1ea0:	b580      	push	{r7, lr}
    1ea2:	b086      	sub	sp, #24
    1ea4:	af00      	add	r7, sp, #0
    1ea6:	60f8      	str	r0, [r7, #12]
    1ea8:	60b9      	str	r1, [r7, #8]
    1eaa:	607a      	str	r2, [r7, #4]
  if (low < high) {
    1eac:	68ba      	ldr	r2, [r7, #8]
    1eae:	687b      	ldr	r3, [r7, #4]
    1eb0:	429a      	cmp	r2, r3
    1eb2:	da14      	bge.n	1ede <void QuickSort<unsigned long volatile>(unsigned long volatile*, int, int)+0x3e>
    int pi = Partition(arr, low, high);
    1eb4:	687a      	ldr	r2, [r7, #4]
    1eb6:	68b9      	ldr	r1, [r7, #8]
    1eb8:	68f8      	ldr	r0, [r7, #12]
    1eba:	f000 f85a 	bl	1f72 <int Partition<unsigned long volatile>(unsigned long volatile*, int, int)>
    1ebe:	4603      	mov	r3, r0
    1ec0:	617b      	str	r3, [r7, #20]
    QuickSort(arr, low, pi - 1);
    1ec2:	697b      	ldr	r3, [r7, #20]
    1ec4:	3b01      	subs	r3, #1
    1ec6:	461a      	mov	r2, r3
    1ec8:	68b9      	ldr	r1, [r7, #8]
    1eca:	68f8      	ldr	r0, [r7, #12]
    1ecc:	f7ff ffe8 	bl	1ea0 <void QuickSort<unsigned long volatile>(unsigned long volatile*, int, int)>
    QuickSort(arr, pi + 1, high);
    1ed0:	697b      	ldr	r3, [r7, #20]
    1ed2:	3301      	adds	r3, #1
    1ed4:	687a      	ldr	r2, [r7, #4]
    1ed6:	4619      	mov	r1, r3
    1ed8:	68f8      	ldr	r0, [r7, #12]
    1eda:	f7ff ffe1 	bl	1ea0 <void QuickSort<unsigned long volatile>(unsigned long volatile*, int, int)>
}
    1ede:	bf00      	nop
    1ee0:	3718      	adds	r7, #24
    1ee2:	46bd      	mov	sp, r7
    1ee4:	bd80      	pop	{r7, pc}

00001ee6 <void QuickSort<unsigned short volatile>(unsigned short volatile*, int, int)>:
template <typename T> void QuickSort(T arr[], int low, int high) {
    1ee6:	b580      	push	{r7, lr}
    1ee8:	b086      	sub	sp, #24
    1eea:	af00      	add	r7, sp, #0
    1eec:	60f8      	str	r0, [r7, #12]
    1eee:	60b9      	str	r1, [r7, #8]
    1ef0:	607a      	str	r2, [r7, #4]
  if (low < high) {
    1ef2:	68ba      	ldr	r2, [r7, #8]
    1ef4:	687b      	ldr	r3, [r7, #4]
    1ef6:	429a      	cmp	r2, r3
    1ef8:	da14      	bge.n	1f24 <void QuickSort<unsigned short volatile>(unsigned short volatile*, int, int)+0x3e>
    int pi = Partition(arr, low, high);
    1efa:	687a      	ldr	r2, [r7, #4]
    1efc:	68b9      	ldr	r1, [r7, #8]
    1efe:	68f8      	ldr	r0, [r7, #12]
    1f00:	f000 f87d 	bl	1ffe <int Partition<unsigned short volatile>(unsigned short volatile*, int, int)>
    1f04:	4603      	mov	r3, r0
    1f06:	617b      	str	r3, [r7, #20]
    QuickSort(arr, low, pi - 1);
    1f08:	697b      	ldr	r3, [r7, #20]
    1f0a:	3b01      	subs	r3, #1
    1f0c:	461a      	mov	r2, r3
    1f0e:	68b9      	ldr	r1, [r7, #8]
    1f10:	68f8      	ldr	r0, [r7, #12]
    1f12:	f7ff ffe8 	bl	1ee6 <void QuickSort<unsigned short volatile>(unsigned short volatile*, int, int)>
    QuickSort(arr, pi + 1, high);
    1f16:	697b      	ldr	r3, [r7, #20]
    1f18:	3301      	adds	r3, #1
    1f1a:	687a      	ldr	r2, [r7, #4]
    1f1c:	4619      	mov	r1, r3
    1f1e:	68f8      	ldr	r0, [r7, #12]
    1f20:	f7ff ffe1 	bl	1ee6 <void QuickSort<unsigned short volatile>(unsigned short volatile*, int, int)>
}
    1f24:	bf00      	nop
    1f26:	3718      	adds	r7, #24
    1f28:	46bd      	mov	sp, r7
    1f2a:	bd80      	pop	{r7, pc}

00001f2c <void QuickSort<unsigned char volatile>(unsigned char volatile*, int, int)>:
template <typename T> void QuickSort(T arr[], int low, int high) {
    1f2c:	b580      	push	{r7, lr}
    1f2e:	b086      	sub	sp, #24
    1f30:	af00      	add	r7, sp, #0
    1f32:	60f8      	str	r0, [r7, #12]
    1f34:	60b9      	str	r1, [r7, #8]
    1f36:	607a      	str	r2, [r7, #4]
  if (low < high) {
    1f38:	68ba      	ldr	r2, [r7, #8]
    1f3a:	687b      	ldr	r3, [r7, #4]
    1f3c:	429a      	cmp	r2, r3
    1f3e:	da14      	bge.n	1f6a <void QuickSort<unsigned char volatile>(unsigned char volatile*, int, int)+0x3e>
    int pi = Partition(arr, low, high);
    1f40:	687a      	ldr	r2, [r7, #4]
    1f42:	68b9      	ldr	r1, [r7, #8]
    1f44:	68f8      	ldr	r0, [r7, #12]
    1f46:	f000 f8a3 	bl	2090 <int Partition<unsigned char volatile>(unsigned char volatile*, int, int)>
    1f4a:	4603      	mov	r3, r0
    1f4c:	617b      	str	r3, [r7, #20]
    QuickSort(arr, low, pi - 1);
    1f4e:	697b      	ldr	r3, [r7, #20]
    1f50:	3b01      	subs	r3, #1
    1f52:	461a      	mov	r2, r3
    1f54:	68b9      	ldr	r1, [r7, #8]
    1f56:	68f8      	ldr	r0, [r7, #12]
    1f58:	f7ff ffe8 	bl	1f2c <void QuickSort<unsigned char volatile>(unsigned char volatile*, int, int)>
    QuickSort(arr, pi + 1, high);
    1f5c:	697b      	ldr	r3, [r7, #20]
    1f5e:	3301      	adds	r3, #1
    1f60:	687a      	ldr	r2, [r7, #4]
    1f62:	4619      	mov	r1, r3
    1f64:	68f8      	ldr	r0, [r7, #12]
    1f66:	f7ff ffe1 	bl	1f2c <void QuickSort<unsigned char volatile>(unsigned char volatile*, int, int)>
}
    1f6a:	bf00      	nop
    1f6c:	3718      	adds	r7, #24
    1f6e:	46bd      	mov	sp, r7
    1f70:	bd80      	pop	{r7, pc}

00001f72 <int Partition<unsigned long volatile>(unsigned long volatile*, int, int)>:
template <typename T> int Partition(T arr[], int low, int high) {
    1f72:	b580      	push	{r7, lr}
    1f74:	b088      	sub	sp, #32
    1f76:	af00      	add	r7, sp, #0
    1f78:	60f8      	str	r0, [r7, #12]
    1f7a:	60b9      	str	r1, [r7, #8]
    1f7c:	607a      	str	r2, [r7, #4]
  T pivot = arr[high];
    1f7e:	687b      	ldr	r3, [r7, #4]
    1f80:	009b      	lsls	r3, r3, #2
    1f82:	68fa      	ldr	r2, [r7, #12]
    1f84:	4413      	add	r3, r2
    1f86:	681b      	ldr	r3, [r3, #0]
    1f88:	617b      	str	r3, [r7, #20]
  int i = (low - 1);
    1f8a:	68bb      	ldr	r3, [r7, #8]
    1f8c:	3b01      	subs	r3, #1
    1f8e:	61fb      	str	r3, [r7, #28]
  for (int j = low; j <= high - 1; j++) {
    1f90:	68bb      	ldr	r3, [r7, #8]
    1f92:	61bb      	str	r3, [r7, #24]
    1f94:	687a      	ldr	r2, [r7, #4]
    1f96:	69bb      	ldr	r3, [r7, #24]
    1f98:	429a      	cmp	r2, r3
    1f9a:	dd1e      	ble.n	1fda <int Partition<unsigned long volatile>(unsigned long volatile*, int, int)+0x68>
    if (arr[j] < pivot) {
    1f9c:	69bb      	ldr	r3, [r7, #24]
    1f9e:	009b      	lsls	r3, r3, #2
    1fa0:	68fa      	ldr	r2, [r7, #12]
    1fa2:	4413      	add	r3, r2
    1fa4:	681a      	ldr	r2, [r3, #0]
    1fa6:	697b      	ldr	r3, [r7, #20]
    1fa8:	429a      	cmp	r2, r3
    1faa:	bf34      	ite	cc
    1fac:	2301      	movcc	r3, #1
    1fae:	2300      	movcs	r3, #0
    1fb0:	b2db      	uxtb	r3, r3
    1fb2:	2b00      	cmp	r3, #0
    1fb4:	d00d      	beq.n	1fd2 <int Partition<unsigned long volatile>(unsigned long volatile*, int, int)+0x60>
      i++;
    1fb6:	69fb      	ldr	r3, [r7, #28]
    1fb8:	3301      	adds	r3, #1
    1fba:	61fb      	str	r3, [r7, #28]
      Swap(&arr[i], &arr[j]);
    1fbc:	69fb      	ldr	r3, [r7, #28]
    1fbe:	009b      	lsls	r3, r3, #2
    1fc0:	68fa      	ldr	r2, [r7, #12]
    1fc2:	18d0      	adds	r0, r2, r3
    1fc4:	69bb      	ldr	r3, [r7, #24]
    1fc6:	009b      	lsls	r3, r3, #2
    1fc8:	68fa      	ldr	r2, [r7, #12]
    1fca:	4413      	add	r3, r2
    1fcc:	4619      	mov	r1, r3
    1fce:	f000 f8a2 	bl	2116 <void Swap<unsigned long volatile>(unsigned long volatile*, unsigned long volatile*)>
  for (int j = low; j <= high - 1; j++) {
    1fd2:	69bb      	ldr	r3, [r7, #24]
    1fd4:	3301      	adds	r3, #1
    1fd6:	61bb      	str	r3, [r7, #24]
    1fd8:	e7dc      	b.n	1f94 <int Partition<unsigned long volatile>(unsigned long volatile*, int, int)+0x22>
  Swap(&arr[i + 1], &arr[high]);
    1fda:	69fb      	ldr	r3, [r7, #28]
    1fdc:	3301      	adds	r3, #1
    1fde:	009b      	lsls	r3, r3, #2
    1fe0:	68fa      	ldr	r2, [r7, #12]
    1fe2:	18d0      	adds	r0, r2, r3
    1fe4:	687b      	ldr	r3, [r7, #4]
    1fe6:	009b      	lsls	r3, r3, #2
    1fe8:	68fa      	ldr	r2, [r7, #12]
    1fea:	4413      	add	r3, r2
    1fec:	4619      	mov	r1, r3
    1fee:	f000 f892 	bl	2116 <void Swap<unsigned long volatile>(unsigned long volatile*, unsigned long volatile*)>
  return (i + 1);
    1ff2:	69fb      	ldr	r3, [r7, #28]
    1ff4:	3301      	adds	r3, #1
}
    1ff6:	4618      	mov	r0, r3
    1ff8:	3720      	adds	r7, #32
    1ffa:	46bd      	mov	sp, r7
    1ffc:	bd80      	pop	{r7, pc}

00001ffe <int Partition<unsigned short volatile>(unsigned short volatile*, int, int)>:
template <typename T> int Partition(T arr[], int low, int high) {
    1ffe:	b580      	push	{r7, lr}
    2000:	b088      	sub	sp, #32
    2002:	af00      	add	r7, sp, #0
    2004:	60f8      	str	r0, [r7, #12]
    2006:	60b9      	str	r1, [r7, #8]
    2008:	607a      	str	r2, [r7, #4]
  T pivot = arr[high];
    200a:	687b      	ldr	r3, [r7, #4]
    200c:	005b      	lsls	r3, r3, #1
    200e:	68fa      	ldr	r2, [r7, #12]
    2010:	4413      	add	r3, r2
    2012:	881b      	ldrh	r3, [r3, #0]
    2014:	b29b      	uxth	r3, r3
    2016:	82fb      	strh	r3, [r7, #22]
  int i = (low - 1);
    2018:	68bb      	ldr	r3, [r7, #8]
    201a:	3b01      	subs	r3, #1
    201c:	61fb      	str	r3, [r7, #28]
  for (int j = low; j <= high - 1; j++) {
    201e:	68bb      	ldr	r3, [r7, #8]
    2020:	61bb      	str	r3, [r7, #24]
    2022:	687a      	ldr	r2, [r7, #4]
    2024:	69bb      	ldr	r3, [r7, #24]
    2026:	429a      	cmp	r2, r3
    2028:	dd20      	ble.n	206c <int Partition<unsigned short volatile>(unsigned short volatile*, int, int)+0x6e>
    if (arr[j] < pivot) {
    202a:	69bb      	ldr	r3, [r7, #24]
    202c:	005b      	lsls	r3, r3, #1
    202e:	68fa      	ldr	r2, [r7, #12]
    2030:	4413      	add	r3, r2
    2032:	881b      	ldrh	r3, [r3, #0]
    2034:	b29a      	uxth	r2, r3
    2036:	8afb      	ldrh	r3, [r7, #22]
    2038:	b29b      	uxth	r3, r3
    203a:	429a      	cmp	r2, r3
    203c:	bf34      	ite	cc
    203e:	2301      	movcc	r3, #1
    2040:	2300      	movcs	r3, #0
    2042:	b2db      	uxtb	r3, r3
    2044:	2b00      	cmp	r3, #0
    2046:	d00d      	beq.n	2064 <int Partition<unsigned short volatile>(unsigned short volatile*, int, int)+0x66>
      i++;
    2048:	69fb      	ldr	r3, [r7, #28]
    204a:	3301      	adds	r3, #1
    204c:	61fb      	str	r3, [r7, #28]
      Swap(&arr[i], &arr[j]);
    204e:	69fb      	ldr	r3, [r7, #28]
    2050:	005b      	lsls	r3, r3, #1
    2052:	68fa      	ldr	r2, [r7, #12]
    2054:	18d0      	adds	r0, r2, r3
    2056:	69bb      	ldr	r3, [r7, #24]
    2058:	005b      	lsls	r3, r3, #1
    205a:	68fa      	ldr	r2, [r7, #12]
    205c:	4413      	add	r3, r2
    205e:	4619      	mov	r1, r3
    2060:	f000 f86d 	bl	213e <void Swap<unsigned short volatile>(unsigned short volatile*, unsigned short volatile*)>
  for (int j = low; j <= high - 1; j++) {
    2064:	69bb      	ldr	r3, [r7, #24]
    2066:	3301      	adds	r3, #1
    2068:	61bb      	str	r3, [r7, #24]
    206a:	e7da      	b.n	2022 <int Partition<unsigned short volatile>(unsigned short volatile*, int, int)+0x24>
  Swap(&arr[i + 1], &arr[high]);
    206c:	69fb      	ldr	r3, [r7, #28]
    206e:	3301      	adds	r3, #1
    2070:	005b      	lsls	r3, r3, #1
    2072:	68fa      	ldr	r2, [r7, #12]
    2074:	18d0      	adds	r0, r2, r3
    2076:	687b      	ldr	r3, [r7, #4]
    2078:	005b      	lsls	r3, r3, #1
    207a:	68fa      	ldr	r2, [r7, #12]
    207c:	4413      	add	r3, r2
    207e:	4619      	mov	r1, r3
    2080:	f000 f85d 	bl	213e <void Swap<unsigned short volatile>(unsigned short volatile*, unsigned short volatile*)>
  return (i + 1);
    2084:	69fb      	ldr	r3, [r7, #28]
    2086:	3301      	adds	r3, #1
}
    2088:	4618      	mov	r0, r3
    208a:	3720      	adds	r7, #32
    208c:	46bd      	mov	sp, r7
    208e:	bd80      	pop	{r7, pc}

00002090 <int Partition<unsigned char volatile>(unsigned char volatile*, int, int)>:
template <typename T> int Partition(T arr[], int low, int high) {
    2090:	b580      	push	{r7, lr}
    2092:	b088      	sub	sp, #32
    2094:	af00      	add	r7, sp, #0
    2096:	60f8      	str	r0, [r7, #12]
    2098:	60b9      	str	r1, [r7, #8]
    209a:	607a      	str	r2, [r7, #4]
  T pivot = arr[high];
    209c:	687b      	ldr	r3, [r7, #4]
    209e:	68fa      	ldr	r2, [r7, #12]
    20a0:	4413      	add	r3, r2
    20a2:	781b      	ldrb	r3, [r3, #0]
    20a4:	b2db      	uxtb	r3, r3
    20a6:	75fb      	strb	r3, [r7, #23]
  int i = (low - 1);
    20a8:	68bb      	ldr	r3, [r7, #8]
    20aa:	3b01      	subs	r3, #1
    20ac:	61fb      	str	r3, [r7, #28]
  for (int j = low; j <= high - 1; j++) {
    20ae:	68bb      	ldr	r3, [r7, #8]
    20b0:	61bb      	str	r3, [r7, #24]
    20b2:	687a      	ldr	r2, [r7, #4]
    20b4:	69bb      	ldr	r3, [r7, #24]
    20b6:	429a      	cmp	r2, r3
    20b8:	dd1d      	ble.n	20f6 <int Partition<unsigned char volatile>(unsigned char volatile*, int, int)+0x66>
    if (arr[j] < pivot) {
    20ba:	69bb      	ldr	r3, [r7, #24]
    20bc:	68fa      	ldr	r2, [r7, #12]
    20be:	4413      	add	r3, r2
    20c0:	781b      	ldrb	r3, [r3, #0]
    20c2:	b2da      	uxtb	r2, r3
    20c4:	7dfb      	ldrb	r3, [r7, #23]
    20c6:	b2db      	uxtb	r3, r3
    20c8:	429a      	cmp	r2, r3
    20ca:	bf34      	ite	cc
    20cc:	2301      	movcc	r3, #1
    20ce:	2300      	movcs	r3, #0
    20d0:	b2db      	uxtb	r3, r3
    20d2:	2b00      	cmp	r3, #0
    20d4:	d00b      	beq.n	20ee <int Partition<unsigned char volatile>(unsigned char volatile*, int, int)+0x5e>
      i++;
    20d6:	69fb      	ldr	r3, [r7, #28]
    20d8:	3301      	adds	r3, #1
    20da:	61fb      	str	r3, [r7, #28]
      Swap(&arr[i], &arr[j]);
    20dc:	69fb      	ldr	r3, [r7, #28]
    20de:	68fa      	ldr	r2, [r7, #12]
    20e0:	18d0      	adds	r0, r2, r3
    20e2:	69bb      	ldr	r3, [r7, #24]
    20e4:	68fa      	ldr	r2, [r7, #12]
    20e6:	4413      	add	r3, r2
    20e8:	4619      	mov	r1, r3
    20ea:	f000 f83f 	bl	216c <void Swap<unsigned char volatile>(unsigned char volatile*, unsigned char volatile*)>
  for (int j = low; j <= high - 1; j++) {
    20ee:	69bb      	ldr	r3, [r7, #24]
    20f0:	3301      	adds	r3, #1
    20f2:	61bb      	str	r3, [r7, #24]
    20f4:	e7dd      	b.n	20b2 <int Partition<unsigned char volatile>(unsigned char volatile*, int, int)+0x22>
  Swap(&arr[i + 1], &arr[high]);
    20f6:	69fb      	ldr	r3, [r7, #28]
    20f8:	3301      	adds	r3, #1
    20fa:	68fa      	ldr	r2, [r7, #12]
    20fc:	18d0      	adds	r0, r2, r3
    20fe:	687b      	ldr	r3, [r7, #4]
    2100:	68fa      	ldr	r2, [r7, #12]
    2102:	4413      	add	r3, r2
    2104:	4619      	mov	r1, r3
    2106:	f000 f831 	bl	216c <void Swap<unsigned char volatile>(unsigned char volatile*, unsigned char volatile*)>
  return (i + 1);
    210a:	69fb      	ldr	r3, [r7, #28]
    210c:	3301      	adds	r3, #1
}
    210e:	4618      	mov	r0, r3
    2110:	3720      	adds	r7, #32
    2112:	46bd      	mov	sp, r7
    2114:	bd80      	pop	{r7, pc}

00002116 <void Swap<unsigned long volatile>(unsigned long volatile*, unsigned long volatile*)>:
template <typename T> void Swap(T *a, T *b) {
    2116:	b480      	push	{r7}
    2118:	b085      	sub	sp, #20
    211a:	af00      	add	r7, sp, #0
    211c:	6078      	str	r0, [r7, #4]
    211e:	6039      	str	r1, [r7, #0]
  T temp = *a;
    2120:	687b      	ldr	r3, [r7, #4]
    2122:	681b      	ldr	r3, [r3, #0]
    2124:	60fb      	str	r3, [r7, #12]
  *a = *b;
    2126:	683b      	ldr	r3, [r7, #0]
    2128:	681a      	ldr	r2, [r3, #0]
    212a:	687b      	ldr	r3, [r7, #4]
    212c:	601a      	str	r2, [r3, #0]
  *b = temp;
    212e:	68fa      	ldr	r2, [r7, #12]
    2130:	683b      	ldr	r3, [r7, #0]
    2132:	601a      	str	r2, [r3, #0]
}
    2134:	bf00      	nop
    2136:	3714      	adds	r7, #20
    2138:	46bd      	mov	sp, r7
    213a:	bc80      	pop	{r7}
    213c:	4770      	bx	lr

0000213e <void Swap<unsigned short volatile>(unsigned short volatile*, unsigned short volatile*)>:
template <typename T> void Swap(T *a, T *b) {
    213e:	b480      	push	{r7}
    2140:	b085      	sub	sp, #20
    2142:	af00      	add	r7, sp, #0
    2144:	6078      	str	r0, [r7, #4]
    2146:	6039      	str	r1, [r7, #0]
  T temp = *a;
    2148:	687b      	ldr	r3, [r7, #4]
    214a:	881b      	ldrh	r3, [r3, #0]
    214c:	b29b      	uxth	r3, r3
    214e:	81fb      	strh	r3, [r7, #14]
  *a = *b;
    2150:	683b      	ldr	r3, [r7, #0]
    2152:	881b      	ldrh	r3, [r3, #0]
    2154:	b29a      	uxth	r2, r3
    2156:	687b      	ldr	r3, [r7, #4]
    2158:	801a      	strh	r2, [r3, #0]
  *b = temp;
    215a:	89fb      	ldrh	r3, [r7, #14]
    215c:	b29a      	uxth	r2, r3
    215e:	683b      	ldr	r3, [r7, #0]
    2160:	801a      	strh	r2, [r3, #0]
}
    2162:	bf00      	nop
    2164:	3714      	adds	r7, #20
    2166:	46bd      	mov	sp, r7
    2168:	bc80      	pop	{r7}
    216a:	4770      	bx	lr

0000216c <void Swap<unsigned char volatile>(unsigned char volatile*, unsigned char volatile*)>:
template <typename T> void Swap(T *a, T *b) {
    216c:	b480      	push	{r7}
    216e:	b085      	sub	sp, #20
    2170:	af00      	add	r7, sp, #0
    2172:	6078      	str	r0, [r7, #4]
    2174:	6039      	str	r1, [r7, #0]
  T temp = *a;
    2176:	687b      	ldr	r3, [r7, #4]
    2178:	781b      	ldrb	r3, [r3, #0]
    217a:	b2db      	uxtb	r3, r3
    217c:	73fb      	strb	r3, [r7, #15]
  *a = *b;
    217e:	683b      	ldr	r3, [r7, #0]
    2180:	781b      	ldrb	r3, [r3, #0]
    2182:	b2da      	uxtb	r2, r3
    2184:	687b      	ldr	r3, [r7, #4]
    2186:	701a      	strb	r2, [r3, #0]
  *b = temp;
    2188:	7bfb      	ldrb	r3, [r7, #15]
    218a:	b2da      	uxtb	r2, r3
    218c:	683b      	ldr	r3, [r7, #0]
    218e:	701a      	strb	r2, [r3, #0]
}
    2190:	bf00      	nop
    2192:	3714      	adds	r7, #20
    2194:	46bd      	mov	sp, r7
    2196:	bc80      	pop	{r7}
    2198:	4770      	bx	lr
	...

0000219c <GetSCBBase()>:
static constexpr uint32_t kCcrStkAlignFlag{(1U << 9U)}; // Stack alignment on exception entry
static constexpr uint32_t kCcrBranchPredictionEnableFlag{(1U << 18U)}; // Branch prediction enable
static constexpr uint32_t kCcrL1CacheEnableFlag{(1U << 19U)};          // L1 cache enable

// SysTick register map base pointer
static inline volatile SCB *GetSCBBase() {
    219c:	b480      	push	{r7}
    219e:	af00      	add	r7, sp, #0
  return reinterpret_cast<SCB *>(reinterpret_cast<unsigned *>(0xE000ED00u));
    21a0:	4b02      	ldr	r3, [pc, #8]	; (21ac <GetSCBBase()+0x10>)
    21a2:	4618      	mov	r0, r3
    21a4:	46bd      	mov	sp, r7
    21a6:	bc80      	pop	{r7}
    21a8:	4770      	bx	lr
    21aa:	bf00      	nop
    21ac:	e000ed00 	.word	0xe000ed00

000021b0 <BusFault_Handler_ABI>:

/// BusFault_Handler_ABI
/// This function is called from the assembler BusFault_Handler function which is called by the
/// Cortex-M processor when a bus fault occurs. The function oversteps the instruction that caused
/// the fault and increments the PC in the stack frame.
void BusFault_Handler_ABI(uint32_t *stack_frame) {
    21b0:	4668      	mov	r0, sp
    21b2:	f020 0107 	bic.w	r1, r0, #7
    21b6:	468d      	mov	sp, r1
    21b8:	b591      	push	{r0, r4, r7, lr}
    21ba:	b088      	sub	sp, #32
    21bc:	af00      	add	r7, sp, #0
    21be:	6078      	str	r0, [r7, #4]

  uint32_t faulty_pc = stack_frame[6]; // Read PC from stack frame
    21c0:	687b      	ldr	r3, [r7, #4]
    21c2:	699b      	ldr	r3, [r3, #24]
    21c4:	61fb      	str	r3, [r7, #28]
                                       // printf("BusFault_Handler 0x%08x\n", faulty_pc);

  if (return_adr == 0U) {
    21c6:	4826      	ldr	r0, [pc, #152]	; (2260 <BusFault_Handler_ABI+0xb0>)
    21c8:	f000 fb1c 	bl	2804 <std::__atomic_base<unsigned long>::operator unsigned long() const>
    21cc:	4603      	mov	r3, r0
    21ce:	2b00      	cmp	r3, #0
    21d0:	bf0c      	ite	eq
    21d2:	2301      	moveq	r3, #1
    21d4:	2300      	movne	r3, #0
    21d6:	b2db      	uxtb	r3, r3
    21d8:	2b00      	cmp	r3, #0
    21da:	d024      	beq.n	2226 <BusFault_Handler_ABI+0x76>
    uint16_t *instr = (uint16_t *)(faulty_pc & ~0x1U); // read the instruction that caused the fault
    21dc:	69fb      	ldr	r3, [r7, #28]
    21de:	f023 0301 	bic.w	r3, r3, #1
    21e2:	61bb      	str	r3, [r7, #24]
    uint16_t instr_val = *instr;
    21e4:	69bb      	ldr	r3, [r7, #24]
    21e6:	881b      	ldrh	r3, [r3, #0]
    21e8:	82fb      	strh	r3, [r7, #22]

    if (((instr_val & 0xF800U) == 0xF800U) || ((instr_val & 0xF800U) == 0xE800U) ||
    21ea:	8afb      	ldrh	r3, [r7, #22]
    21ec:	f403 4378 	and.w	r3, r3, #63488	; 0xf800
    21f0:	f5b3 4f78 	cmp.w	r3, #63488	; 0xf800
    21f4:	d00b      	beq.n	220e <BusFault_Handler_ABI+0x5e>
    21f6:	8afb      	ldrh	r3, [r7, #22]
    21f8:	f403 4378 	and.w	r3, r3, #63488	; 0xf800
    21fc:	f5b3 4f68 	cmp.w	r3, #59392	; 0xe800
    2200:	d005      	beq.n	220e <BusFault_Handler_ABI+0x5e>
        ((instr_val & 0xF800U) == 0xF000U)) { // Check if the instruction is a 32-Bit instruction
    2202:	8afb      	ldrh	r3, [r7, #22]
    2204:	f403 4378 	and.w	r3, r3, #63488	; 0xf800
    if (((instr_val & 0xF800U) == 0xF800U) || ((instr_val & 0xF800U) == 0xE800U) ||
    2208:	f5b3 4f70 	cmp.w	r3, #61440	; 0xf000
    220c:	d105      	bne.n	221a <BusFault_Handler_ABI+0x6a>
      stack_frame[6U] = faulty_pc + 4U;       // overstep 32-Bit instruction
    220e:	687b      	ldr	r3, [r7, #4]
    2210:	3318      	adds	r3, #24
    2212:	69fa      	ldr	r2, [r7, #28]
    2214:	3204      	adds	r2, #4
    2216:	601a      	str	r2, [r3, #0]
    2218:	e011      	b.n	223e <BusFault_Handler_ABI+0x8e>
    } else {
      stack_frame[6U] = faulty_pc + 2U; // overstep 16-Bit instruction
    221a:	687b      	ldr	r3, [r7, #4]
    221c:	3318      	adds	r3, #24
    221e:	69fa      	ldr	r2, [r7, #28]
    2220:	3202      	adds	r2, #2
    2222:	601a      	str	r2, [r3, #0]
    2224:	e00b      	b.n	223e <BusFault_Handler_ABI+0x8e>
    }
  } else {
    stack_frame[6U] = return_adr;
    2226:	687b      	ldr	r3, [r7, #4]
    2228:	f103 0418 	add.w	r4, r3, #24
    222c:	480c      	ldr	r0, [pc, #48]	; (2260 <BusFault_Handler_ABI+0xb0>)
    222e:	f000 fae9 	bl	2804 <std::__atomic_base<unsigned long>::operator unsigned long() const>
    2232:	4603      	mov	r3, r0
    2234:	6023      	str	r3, [r4, #0]
    return_adr = 0;
    2236:	2100      	movs	r1, #0
    2238:	4809      	ldr	r0, [pc, #36]	; (2260 <BusFault_Handler_ABI+0xb0>)
    223a:	f000 fafe 	bl	283a <std::__atomic_base<unsigned long>::operator=(unsigned long)>
  }

  auto *scb = GetSCBBase();
    223e:	f7ff ffad 	bl	219c <GetSCBBase()>
    2242:	6138      	str	r0, [r7, #16]
  auto cfsr = scb->CFSR;
    2244:	693b      	ldr	r3, [r7, #16]
    2246:	6a9b      	ldr	r3, [r3, #40]	; 0x28
    2248:	60fb      	str	r3, [r7, #12]
  if (cfsr & kCfsrIBusErrFlag) {
    // abort();
  }
  bus_faults++;
    224a:	2100      	movs	r1, #0
    224c:	4805      	ldr	r0, [pc, #20]	; (2264 <BusFault_Handler_ABI+0xb4>)
    224e:	f000 fb14 	bl	287a <std::__atomic_base<unsigned long>::operator++(int)>
}
    2252:	bf00      	nop
    2254:	3720      	adds	r7, #32
    2256:	46bd      	mov	sp, r7
    2258:	e8bd 4091 	ldmia.w	sp!, {r0, r4, r7, lr}
    225c:	4685      	mov	sp, r0
    225e:	4770      	bx	lr
    2260:	20000b0c 	.word	0x20000b0c
    2264:	20000b10 	.word	0x20000b10

00002268 <BusFault_Handler>:

void BusFault_Handler(void) {
  __asm volatile("MOV    r0, sp                  \n" // Load the current value of the Main Stack
    2268:	4668      	mov	r0, sp
    226a:	f7ff bfa1 	b.w	21b0 <BusFault_Handler_ABI>
                                                     // Pointer (MSP) into r0
                 "B BusFault_Handler_ABI        \n"  // Call the C function BusFault_Handler_ABI
  );
}
    226e:	bf00      	nop

00002270 <UsageFault_Handler_ABI>:

/// UsageFault_Handler_ABI
/// This function is called from the assembler UsageFault_Handler function which is called by the
/// Cortex-M processor when a usage fault occurs. The function oversteps the instruction that caused
/// the fault and increments the PC in the stack frame.
void UsageFault_Handler_ABI(uint32_t *stack_frame) {
    2270:	4668      	mov	r0, sp
    2272:	f020 0107 	bic.w	r1, r0, #7
    2276:	468d      	mov	sp, r1
    2278:	b591      	push	{r0, r4, r7, lr}
    227a:	b086      	sub	sp, #24
    227c:	af00      	add	r7, sp, #0
    227e:	6078      	str	r0, [r7, #4]

  uint32_t faulty_pc = stack_frame[6]; // Read PC from stack frame
    2280:	687b      	ldr	r3, [r7, #4]
    2282:	699b      	ldr	r3, [r3, #24]
    2284:	617b      	str	r3, [r7, #20]

  if (return_adr == 0U) {
    2286:	4829      	ldr	r0, [pc, #164]	; (232c <UsageFault_Handler_ABI+0xbc>)
    2288:	f000 fabc 	bl	2804 <std::__atomic_base<unsigned long>::operator unsigned long() const>
    228c:	4603      	mov	r3, r0
    228e:	2b00      	cmp	r3, #0
    2290:	bf0c      	ite	eq
    2292:	2301      	moveq	r3, #1
    2294:	2300      	movne	r3, #0
    2296:	b2db      	uxtb	r3, r3
    2298:	2b00      	cmp	r3, #0
    229a:	d024      	beq.n	22e6 <UsageFault_Handler_ABI+0x76>
    uint16_t *instr = (uint16_t *)(faulty_pc & ~0x1U); // read the instruction that caused the fault
    229c:	697b      	ldr	r3, [r7, #20]
    229e:	f023 0301 	bic.w	r3, r3, #1
    22a2:	613b      	str	r3, [r7, #16]
    uint16_t instr_val = *instr;
    22a4:	693b      	ldr	r3, [r7, #16]
    22a6:	881b      	ldrh	r3, [r3, #0]
    22a8:	81fb      	strh	r3, [r7, #14]

    if (((instr_val & 0xF800U) == 0xF800U) || ((instr_val & 0xF800U) == 0xE800U) ||
    22aa:	89fb      	ldrh	r3, [r7, #14]
    22ac:	f403 4378 	and.w	r3, r3, #63488	; 0xf800
    22b0:	f5b3 4f78 	cmp.w	r3, #63488	; 0xf800
    22b4:	d00b      	beq.n	22ce <UsageFault_Handler_ABI+0x5e>
    22b6:	89fb      	ldrh	r3, [r7, #14]
    22b8:	f403 4378 	and.w	r3, r3, #63488	; 0xf800
    22bc:	f5b3 4f68 	cmp.w	r3, #59392	; 0xe800
    22c0:	d005      	beq.n	22ce <UsageFault_Handler_ABI+0x5e>
        ((instr_val & 0xF800U) == 0xF000U)) { // Check if the instruction is a 32-Bit instruction
    22c2:	89fb      	ldrh	r3, [r7, #14]
    22c4:	f403 4378 	and.w	r3, r3, #63488	; 0xf800
    if (((instr_val & 0xF800U) == 0xF800U) || ((instr_val & 0xF800U) == 0xE800U) ||
    22c8:	f5b3 4f70 	cmp.w	r3, #61440	; 0xf000
    22cc:	d105      	bne.n	22da <UsageFault_Handler_ABI+0x6a>
      stack_frame[6U] = faulty_pc + 4U;       // overstep 32-Bit instruction
    22ce:	687b      	ldr	r3, [r7, #4]
    22d0:	3318      	adds	r3, #24
    22d2:	697a      	ldr	r2, [r7, #20]
    22d4:	3204      	adds	r2, #4
    22d6:	601a      	str	r2, [r3, #0]
    22d8:	e011      	b.n	22fe <UsageFault_Handler_ABI+0x8e>
    } else {
      stack_frame[6U] = faulty_pc + 2U; // overstep 16-Bit instruction
    22da:	687b      	ldr	r3, [r7, #4]
    22dc:	3318      	adds	r3, #24
    22de:	697a      	ldr	r2, [r7, #20]
    22e0:	3202      	adds	r2, #2
    22e2:	601a      	str	r2, [r3, #0]
    22e4:	e00b      	b.n	22fe <UsageFault_Handler_ABI+0x8e>
    }
  } else {

    stack_frame[6U] = return_adr;
    22e6:	687b      	ldr	r3, [r7, #4]
    22e8:	f103 0418 	add.w	r4, r3, #24
    22ec:	480f      	ldr	r0, [pc, #60]	; (232c <UsageFault_Handler_ABI+0xbc>)
    22ee:	f000 fa89 	bl	2804 <std::__atomic_base<unsigned long>::operator unsigned long() const>
    22f2:	4603      	mov	r3, r0
    22f4:	6023      	str	r3, [r4, #0]
    return_adr = 0;
    22f6:	2100      	movs	r1, #0
    22f8:	480c      	ldr	r0, [pc, #48]	; (232c <UsageFault_Handler_ABI+0xbc>)
    22fa:	f000 fa9e 	bl	283a <std::__atomic_base<unsigned long>::operator=(unsigned long)>
  }

  // some tests set the t-bit intentionally to 0. This is not allowed in the ARMv7-M architecture
  // Reverse the T-bit to 1 in case such an instruction is executed
  auto xpsr = stack_frame[7U];
    22fe:	687b      	ldr	r3, [r7, #4]
    2300:	69db      	ldr	r3, [r3, #28]
    2302:	60bb      	str	r3, [r7, #8]
  xpsr = xpsr | (1 << 24); // Force the T-bit to 1
    2304:	68bb      	ldr	r3, [r7, #8]
    2306:	f043 7380 	orr.w	r3, r3, #16777216	; 0x1000000
    230a:	60bb      	str	r3, [r7, #8]
  stack_frame[7U] = xpsr;
    230c:	687b      	ldr	r3, [r7, #4]
    230e:	331c      	adds	r3, #28
    2310:	68ba      	ldr	r2, [r7, #8]
    2312:	601a      	str	r2, [r3, #0]

  usage_faults++;
    2314:	2100      	movs	r1, #0
    2316:	4806      	ldr	r0, [pc, #24]	; (2330 <UsageFault_Handler_ABI+0xc0>)
    2318:	f000 faaf 	bl	287a <std::__atomic_base<unsigned long>::operator++(int)>
}
    231c:	bf00      	nop
    231e:	3718      	adds	r7, #24
    2320:	46bd      	mov	sp, r7
    2322:	e8bd 4091 	ldmia.w	sp!, {r0, r4, r7, lr}
    2326:	4685      	mov	sp, r0
    2328:	4770      	bx	lr
    232a:	bf00      	nop
    232c:	20000b0c 	.word	0x20000b0c
    2330:	20000b14 	.word	0x20000b14

00002334 <UsageFault_Handler>:

void UsageFault_Handler(void) {
  __asm volatile("MOV    r0, sp                  \n"  // Load the current value of the Main Stack
    2334:	4668      	mov	r0, sp
    2336:	f7ff bf9b 	b.w	2270 <UsageFault_Handler_ABI>
                                                      // Pointer (MSP) into r0
                 "B UsageFault_Handler_ABI        \n" // Call the C function BusFault_Handler_ABI
  );
}
    233a:	bf00      	nop

0000233c <TestVariousFaults()>:

void TestVariousFaults() {
    233c:	b580      	push	{r7, lr}
    233e:	b082      	sub	sp, #8
    2340:	af00      	add	r7, sp, #0
  uint32_t faulty_address = 0x40000001;
    2342:	4b41      	ldr	r3, [pc, #260]	; (2448 <TestVariousFaults()+0x10c>)
    2344:	607b      	str	r3, [r7, #4]

  usage_faults = 0U;
    2346:	2100      	movs	r1, #0
    2348:	4840      	ldr	r0, [pc, #256]	; (244c <TestVariousFaults()+0x110>)
    234a:	f000 fa76 	bl	283a <std::__atomic_base<unsigned long>::operator=(unsigned long)>
  bus_faults = 0U;
    234e:	2100      	movs	r1, #0
    2350:	483f      	ldr	r0, [pc, #252]	; (2450 <TestVariousFaults()+0x114>)
    2352:	f000 fa72 	bl	283a <std::__atomic_base<unsigned long>::operator=(unsigned long)>
  auto *scb = GetSCBBase();
    2356:	f7ff ff21 	bl	219c <GetSCBBase()>
    235a:	6038      	str	r0, [r7, #0]
  assert(scb->CFSR == 0U);
    235c:	683b      	ldr	r3, [r7, #0]
    235e:	6a9b      	ldr	r3, [r3, #40]	; 0x28
    2360:	2b00      	cmp	r3, #0
    2362:	d005      	beq.n	2370 <TestVariousFaults()+0x34>
    2364:	4b3b      	ldr	r3, [pc, #236]	; (2454 <TestVariousFaults()+0x118>)
    2366:	4a3c      	ldr	r2, [pc, #240]	; (2458 <TestVariousFaults()+0x11c>)
    2368:	216a      	movs	r1, #106	; 0x6a
    236a:	483c      	ldr	r0, [pc, #240]	; (245c <TestVariousFaults()+0x120>)
    236c:	f009 fbb0 	bl	bad0 <__assert_func>
  assert(usage_faults == 0U);
    2370:	4836      	ldr	r0, [pc, #216]	; (244c <TestVariousFaults()+0x110>)
    2372:	f000 fa47 	bl	2804 <std::__atomic_base<unsigned long>::operator unsigned long() const>
    2376:	4603      	mov	r3, r0
    2378:	2b00      	cmp	r3, #0
    237a:	d005      	beq.n	2388 <TestVariousFaults()+0x4c>
    237c:	4b38      	ldr	r3, [pc, #224]	; (2460 <TestVariousFaults()+0x124>)
    237e:	4a36      	ldr	r2, [pc, #216]	; (2458 <TestVariousFaults()+0x11c>)
    2380:	216b      	movs	r1, #107	; 0x6b
    2382:	4836      	ldr	r0, [pc, #216]	; (245c <TestVariousFaults()+0x120>)
    2384:	f009 fba4 	bl	bad0 <__assert_func>
  assert(bus_faults == 0U);
    2388:	4831      	ldr	r0, [pc, #196]	; (2450 <TestVariousFaults()+0x114>)
    238a:	f000 fa3b 	bl	2804 <std::__atomic_base<unsigned long>::operator unsigned long() const>
    238e:	4603      	mov	r3, r0
    2390:	2b00      	cmp	r3, #0
    2392:	d005      	beq.n	23a0 <TestVariousFaults()+0x64>
    2394:	4b33      	ldr	r3, [pc, #204]	; (2464 <TestVariousFaults()+0x128>)
    2396:	4a30      	ldr	r2, [pc, #192]	; (2458 <TestVariousFaults()+0x11c>)
    2398:	216c      	movs	r1, #108	; 0x6c
    239a:	4830      	ldr	r0, [pc, #192]	; (245c <TestVariousFaults()+0x120>)
    239c:	f009 fb98 	bl	bad0 <__assert_func>
  return_adr = reinterpret_cast<uint32_t>(&&label_wrong_mode);
    23a0:	4b31      	ldr	r3, [pc, #196]	; (2468 <TestVariousFaults()+0x12c>)
    23a2:	4619      	mov	r1, r3
    23a4:	4831      	ldr	r0, [pc, #196]	; (246c <TestVariousFaults()+0x130>)
    23a6:	f000 fa48 	bl	283a <std::__atomic_base<unsigned long>::operator=(unsigned long)>
  asm volatile goto("" :: ::label_wrong_mode, label_fetch_fault);
  // provoke an Usage Fault .. wrong execution state
  __asm__ volatile("mov r0, 0x10\n"
    23aa:	f04f 0010 	mov.w	r0, #16
    23ae:	4700      	bx	r0
                   :      // no input
                   : "r0" // clobber
  );

label_wrong_mode:
  __asm__ volatile("nop"
    23b0:	bf00      	nop
                   : // no output
                   : // no input
                   : // no clobber
  );

  assert(usage_faults == 1U);
    23b2:	4826      	ldr	r0, [pc, #152]	; (244c <TestVariousFaults()+0x110>)
    23b4:	f000 fa26 	bl	2804 <std::__atomic_base<unsigned long>::operator unsigned long() const>
    23b8:	4603      	mov	r3, r0
    23ba:	2b01      	cmp	r3, #1
    23bc:	d005      	beq.n	23ca <TestVariousFaults()+0x8e>
    23be:	4b2c      	ldr	r3, [pc, #176]	; (2470 <TestVariousFaults()+0x134>)
    23c0:	4a25      	ldr	r2, [pc, #148]	; (2458 <TestVariousFaults()+0x11c>)
    23c2:	217e      	movs	r1, #126	; 0x7e
    23c4:	4825      	ldr	r0, [pc, #148]	; (245c <TestVariousFaults()+0x120>)
    23c6:	f009 fb83 	bl	bad0 <__assert_func>
  assert(scb->CFSR == kCfsrInvStateFlag);
    23ca:	683b      	ldr	r3, [r7, #0]
    23cc:	6a9b      	ldr	r3, [r3, #40]	; 0x28
    23ce:	f5b3 3f00 	cmp.w	r3, #131072	; 0x20000
    23d2:	d005      	beq.n	23e0 <TestVariousFaults()+0xa4>
    23d4:	4b27      	ldr	r3, [pc, #156]	; (2474 <TestVariousFaults()+0x138>)
    23d6:	4a20      	ldr	r2, [pc, #128]	; (2458 <TestVariousFaults()+0x11c>)
    23d8:	217f      	movs	r1, #127	; 0x7f
    23da:	4820      	ldr	r0, [pc, #128]	; (245c <TestVariousFaults()+0x120>)
    23dc:	f009 fb78 	bl	bad0 <__assert_func>
  scb->CFSR = kCfsrInvStateFlag; // reset fault
    23e0:	683b      	ldr	r3, [r7, #0]
    23e2:	f44f 3200 	mov.w	r2, #131072	; 0x20000
    23e6:	629a      	str	r2, [r3, #40]	; 0x28
  assert(scb->CFSR == 0U);
    23e8:	683b      	ldr	r3, [r7, #0]
    23ea:	6a9b      	ldr	r3, [r3, #40]	; 0x28
    23ec:	2b00      	cmp	r3, #0
    23ee:	d005      	beq.n	23fc <TestVariousFaults()+0xc0>
    23f0:	4b18      	ldr	r3, [pc, #96]	; (2454 <TestVariousFaults()+0x118>)
    23f2:	4a19      	ldr	r2, [pc, #100]	; (2458 <TestVariousFaults()+0x11c>)
    23f4:	2181      	movs	r1, #129	; 0x81
    23f6:	4819      	ldr	r0, [pc, #100]	; (245c <TestVariousFaults()+0x120>)
    23f8:	f009 fb6a 	bl	bad0 <__assert_func>

  // provoke an Bus Fault .. instruction bus fault
  return_adr = reinterpret_cast<uint32_t>(&&label_fetch_fault);
    23fc:	4b1e      	ldr	r3, [pc, #120]	; (2478 <TestVariousFaults()+0x13c>)
    23fe:	4619      	mov	r1, r3
    2400:	481a      	ldr	r0, [pc, #104]	; (246c <TestVariousFaults()+0x130>)
    2402:	f000 fa1a 	bl	283a <std::__atomic_base<unsigned long>::operator=(unsigned long)>

  __asm__ volatile("mov r0, %0\n"
    2406:	687b      	ldr	r3, [r7, #4]
    2408:	4618      	mov	r0, r3
    240a:	4700      	bx	r0
                   : "r"(faulty_address) // no input
                   : "r0"                // no clobber
  );

label_fetch_fault:
  __asm__ volatile("nop"
    240c:	bf00      	nop
                   : // no output
                   : // no input
                   : // no clobber
  );
  assert(scb->CFSR == kCfsrIBusErrFlag);
    240e:	683b      	ldr	r3, [r7, #0]
    2410:	6a9b      	ldr	r3, [r3, #40]	; 0x28
    2412:	f5b3 7f80 	cmp.w	r3, #256	; 0x100
    2416:	d005      	beq.n	2424 <TestVariousFaults()+0xe8>
    2418:	4b18      	ldr	r3, [pc, #96]	; (247c <TestVariousFaults()+0x140>)
    241a:	4a0f      	ldr	r2, [pc, #60]	; (2458 <TestVariousFaults()+0x11c>)
    241c:	2193      	movs	r1, #147	; 0x93
    241e:	480f      	ldr	r0, [pc, #60]	; (245c <TestVariousFaults()+0x120>)
    2420:	f009 fb56 	bl	bad0 <__assert_func>
  scb->CFSR = kCfsrIBusErrFlag; // reset fault
    2424:	683b      	ldr	r3, [r7, #0]
    2426:	f44f 7280 	mov.w	r2, #256	; 0x100
    242a:	629a      	str	r2, [r3, #40]	; 0x28
  assert(scb->CFSR == 0U);
    242c:	683b      	ldr	r3, [r7, #0]
    242e:	6a9b      	ldr	r3, [r3, #40]	; 0x28
    2430:	2b00      	cmp	r3, #0
    2432:	d005      	beq.n	2440 <TestVariousFaults()+0x104>
    2434:	4b07      	ldr	r3, [pc, #28]	; (2454 <TestVariousFaults()+0x118>)
    2436:	4a08      	ldr	r2, [pc, #32]	; (2458 <TestVariousFaults()+0x11c>)
    2438:	2195      	movs	r1, #149	; 0x95
    243a:	4808      	ldr	r0, [pc, #32]	; (245c <TestVariousFaults()+0x120>)
    243c:	f009 fb48 	bl	bad0 <__assert_func>
}
    2440:	bf00      	nop
    2442:	3708      	adds	r7, #8
    2444:	46bd      	mov	sp, r7
    2446:	bd80      	pop	{r7, pc}
    2448:	40000001 	.word	0x40000001
    244c:	20000b14 	.word	0x20000b14
    2450:	20000b10 	.word	0x20000b10
    2454:	000183e0 	.word	0x000183e0
    2458:	000183f0 	.word	0x000183f0
    245c:	0001840c 	.word	0x0001840c
    2460:	00018458 	.word	0x00018458
    2464:	0001846c 	.word	0x0001846c
    2468:	000023b0 	.word	0x000023b0
    246c:	20000b0c 	.word	0x20000b0c
    2470:	00018480 	.word	0x00018480
    2474:	00018494 	.word	0x00018494
    2478:	0000240c 	.word	0x0000240c
    247c:	000184b4 	.word	0x000184b4

00002480 <TestBusfault()>:

void TestBusfault() {
    2480:	b580      	push	{r7, lr}
    2482:	b084      	sub	sp, #16
    2484:	af00      	add	r7, sp, #0
  bus_faults = 0U;
    2486:	2100      	movs	r1, #0
    2488:	4852      	ldr	r0, [pc, #328]	; (25d4 <TestBusfault()+0x154>)
    248a:	f000 f9d6 	bl	283a <std::__atomic_base<unsigned long>::operator=(unsigned long)>
  auto *scb = GetSCBBase();
    248e:	f7ff fe85 	bl	219c <GetSCBBase()>
    2492:	60f8      	str	r0, [r7, #12]
  assert(scb->CFSR == 0U);
    2494:	68fb      	ldr	r3, [r7, #12]
    2496:	6a9b      	ldr	r3, [r3, #40]	; 0x28
    2498:	2b00      	cmp	r3, #0
    249a:	d005      	beq.n	24a8 <TestBusfault()+0x28>
    249c:	4b4e      	ldr	r3, [pc, #312]	; (25d8 <TestBusfault()+0x158>)
    249e:	4a4f      	ldr	r2, [pc, #316]	; (25dc <TestBusfault()+0x15c>)
    24a0:	219b      	movs	r1, #155	; 0x9b
    24a2:	484f      	ldr	r0, [pc, #316]	; (25e0 <TestBusfault()+0x160>)
    24a4:	f009 fb14 	bl	bad0 <__assert_func>
  assert(bus_faults == 0u);
    24a8:	484a      	ldr	r0, [pc, #296]	; (25d4 <TestBusfault()+0x154>)
    24aa:	f000 f9ab 	bl	2804 <std::__atomic_base<unsigned long>::operator unsigned long() const>
    24ae:	4603      	mov	r3, r0
    24b0:	2b00      	cmp	r3, #0
    24b2:	d005      	beq.n	24c0 <TestBusfault()+0x40>
    24b4:	4b4b      	ldr	r3, [pc, #300]	; (25e4 <TestBusfault()+0x164>)
    24b6:	4a49      	ldr	r2, [pc, #292]	; (25dc <TestBusfault()+0x15c>)
    24b8:	219c      	movs	r1, #156	; 0x9c
    24ba:	4849      	ldr	r0, [pc, #292]	; (25e0 <TestBusfault()+0x160>)
    24bc:	f009 fb08 	bl	bad0 <__assert_func>
  assert(scb->CFSR == 0x0U);
    24c0:	68fb      	ldr	r3, [r7, #12]
    24c2:	6a9b      	ldr	r3, [r3, #40]	; 0x28
    24c4:	2b00      	cmp	r3, #0
    24c6:	d005      	beq.n	24d4 <TestBusfault()+0x54>
    24c8:	4b47      	ldr	r3, [pc, #284]	; (25e8 <TestBusfault()+0x168>)
    24ca:	4a44      	ldr	r2, [pc, #272]	; (25dc <TestBusfault()+0x15c>)
    24cc:	219d      	movs	r1, #157	; 0x9d
    24ce:	4844      	ldr	r0, [pc, #272]	; (25e0 <TestBusfault()+0x160>)
    24d0:	f009 fafe 	bl	bad0 <__assert_func>

  // Provoke a bus fault (write)
  volatile uint32_t *p = reinterpret_cast<uint32_t *>(0xF0000000);
    24d4:	f04f 4370 	mov.w	r3, #4026531840	; 0xf0000000
    24d8:	60bb      	str	r3, [r7, #8]
  *p = 0xDEADBEEFU;
    24da:	68bb      	ldr	r3, [r7, #8]
    24dc:	4a43      	ldr	r2, [pc, #268]	; (25ec <TestBusfault()+0x16c>)
    24de:	601a      	str	r2, [r3, #0]

  assert(bus_faults == 1U);
    24e0:	483c      	ldr	r0, [pc, #240]	; (25d4 <TestBusfault()+0x154>)
    24e2:	f000 f98f 	bl	2804 <std::__atomic_base<unsigned long>::operator unsigned long() const>
    24e6:	4603      	mov	r3, r0
    24e8:	2b01      	cmp	r3, #1
    24ea:	d005      	beq.n	24f8 <TestBusfault()+0x78>
    24ec:	4b40      	ldr	r3, [pc, #256]	; (25f0 <TestBusfault()+0x170>)
    24ee:	4a3b      	ldr	r2, [pc, #236]	; (25dc <TestBusfault()+0x15c>)
    24f0:	21a3      	movs	r1, #163	; 0xa3
    24f2:	483b      	ldr	r0, [pc, #236]	; (25e0 <TestBusfault()+0x160>)
    24f4:	f009 faec 	bl	bad0 <__assert_func>
  assert(scb->CFSR == (kCfsrBfarValidFlag | kCfsrPreciseErrFlag));
    24f8:	68fb      	ldr	r3, [r7, #12]
    24fa:	6a9b      	ldr	r3, [r3, #40]	; 0x28
    24fc:	f5b3 4f02 	cmp.w	r3, #33280	; 0x8200
    2500:	d005      	beq.n	250e <TestBusfault()+0x8e>
    2502:	4b3c      	ldr	r3, [pc, #240]	; (25f4 <TestBusfault()+0x174>)
    2504:	4a35      	ldr	r2, [pc, #212]	; (25dc <TestBusfault()+0x15c>)
    2506:	21a4      	movs	r1, #164	; 0xa4
    2508:	4835      	ldr	r0, [pc, #212]	; (25e0 <TestBusfault()+0x160>)
    250a:	f009 fae1 	bl	bad0 <__assert_func>
  assert(scb->BFAR == reinterpret_cast<uint32_t>(p));
    250e:	68fb      	ldr	r3, [r7, #12]
    2510:	6b9a      	ldr	r2, [r3, #56]	; 0x38
    2512:	68bb      	ldr	r3, [r7, #8]
    2514:	429a      	cmp	r2, r3
    2516:	d005      	beq.n	2524 <TestBusfault()+0xa4>
    2518:	4b37      	ldr	r3, [pc, #220]	; (25f8 <TestBusfault()+0x178>)
    251a:	4a30      	ldr	r2, [pc, #192]	; (25dc <TestBusfault()+0x15c>)
    251c:	21a5      	movs	r1, #165	; 0xa5
    251e:	4830      	ldr	r0, [pc, #192]	; (25e0 <TestBusfault()+0x160>)
    2520:	f009 fad6 	bl	bad0 <__assert_func>

  // reset bus fault
  scb->CFSR = kCfsrBfarValidFlag;
    2524:	68fb      	ldr	r3, [r7, #12]
    2526:	f44f 4200 	mov.w	r2, #32768	; 0x8000
    252a:	629a      	str	r2, [r3, #40]	; 0x28
  assert(scb->CFSR == kCfsrPreciseErrFlag);
    252c:	68fb      	ldr	r3, [r7, #12]
    252e:	6a9b      	ldr	r3, [r3, #40]	; 0x28
    2530:	f5b3 7f00 	cmp.w	r3, #512	; 0x200
    2534:	d005      	beq.n	2542 <TestBusfault()+0xc2>
    2536:	4b31      	ldr	r3, [pc, #196]	; (25fc <TestBusfault()+0x17c>)
    2538:	4a28      	ldr	r2, [pc, #160]	; (25dc <TestBusfault()+0x15c>)
    253a:	21a9      	movs	r1, #169	; 0xa9
    253c:	4828      	ldr	r0, [pc, #160]	; (25e0 <TestBusfault()+0x160>)
    253e:	f009 fac7 	bl	bad0 <__assert_func>

  scb->CFSR = kCfsrPreciseErrFlag;
    2542:	68fb      	ldr	r3, [r7, #12]
    2544:	f44f 7200 	mov.w	r2, #512	; 0x200
    2548:	629a      	str	r2, [r3, #40]	; 0x28

  assert(scb->CFSR == 0x0U);
    254a:	68fb      	ldr	r3, [r7, #12]
    254c:	6a9b      	ldr	r3, [r3, #40]	; 0x28
    254e:	2b00      	cmp	r3, #0
    2550:	d005      	beq.n	255e <TestBusfault()+0xde>
    2552:	4b25      	ldr	r3, [pc, #148]	; (25e8 <TestBusfault()+0x168>)
    2554:	4a21      	ldr	r2, [pc, #132]	; (25dc <TestBusfault()+0x15c>)
    2556:	21ad      	movs	r1, #173	; 0xad
    2558:	4821      	ldr	r0, [pc, #132]	; (25e0 <TestBusfault()+0x160>)
    255a:	f009 fab9 	bl	bad0 <__assert_func>

  // Provoke a bus fault (read)
  p = reinterpret_cast<uint32_t *>(0x0A000000);
    255e:	f04f 6320 	mov.w	r3, #167772160	; 0xa000000
    2562:	60bb      	str	r3, [r7, #8]
  volatile uint32_t x = *p;
    2564:	68bb      	ldr	r3, [r7, #8]
    2566:	681b      	ldr	r3, [r3, #0]
    2568:	607b      	str	r3, [r7, #4]

  assert(bus_faults == 2U);
    256a:	481a      	ldr	r0, [pc, #104]	; (25d4 <TestBusfault()+0x154>)
    256c:	f000 f94a 	bl	2804 <std::__atomic_base<unsigned long>::operator unsigned long() const>
    2570:	4603      	mov	r3, r0
    2572:	2b02      	cmp	r3, #2
    2574:	d005      	beq.n	2582 <TestBusfault()+0x102>
    2576:	4b22      	ldr	r3, [pc, #136]	; (2600 <TestBusfault()+0x180>)
    2578:	4a18      	ldr	r2, [pc, #96]	; (25dc <TestBusfault()+0x15c>)
    257a:	21b3      	movs	r1, #179	; 0xb3
    257c:	4818      	ldr	r0, [pc, #96]	; (25e0 <TestBusfault()+0x160>)
    257e:	f009 faa7 	bl	bad0 <__assert_func>
  assert(scb->CFSR == (kCfsrBfarValidFlag | kCfsrPreciseErrFlag));
    2582:	68fb      	ldr	r3, [r7, #12]
    2584:	6a9b      	ldr	r3, [r3, #40]	; 0x28
    2586:	f5b3 4f02 	cmp.w	r3, #33280	; 0x8200
    258a:	d005      	beq.n	2598 <TestBusfault()+0x118>
    258c:	4b19      	ldr	r3, [pc, #100]	; (25f4 <TestBusfault()+0x174>)
    258e:	4a13      	ldr	r2, [pc, #76]	; (25dc <TestBusfault()+0x15c>)
    2590:	21b4      	movs	r1, #180	; 0xb4
    2592:	4813      	ldr	r0, [pc, #76]	; (25e0 <TestBusfault()+0x160>)
    2594:	f009 fa9c 	bl	bad0 <__assert_func>
  assert(scb->BFAR == reinterpret_cast<uint32_t>(p));
    2598:	68fb      	ldr	r3, [r7, #12]
    259a:	6b9a      	ldr	r2, [r3, #56]	; 0x38
    259c:	68bb      	ldr	r3, [r7, #8]
    259e:	429a      	cmp	r2, r3
    25a0:	d005      	beq.n	25ae <TestBusfault()+0x12e>
    25a2:	4b15      	ldr	r3, [pc, #84]	; (25f8 <TestBusfault()+0x178>)
    25a4:	4a0d      	ldr	r2, [pc, #52]	; (25dc <TestBusfault()+0x15c>)
    25a6:	21b5      	movs	r1, #181	; 0xb5
    25a8:	480d      	ldr	r0, [pc, #52]	; (25e0 <TestBusfault()+0x160>)
    25aa:	f009 fa91 	bl	bad0 <__assert_func>

  // reset bus fault
  scb->CFSR = kCfsrBfarValidFlag | kCfsrPreciseErrFlag;
    25ae:	68fb      	ldr	r3, [r7, #12]
    25b0:	f44f 4202 	mov.w	r2, #33280	; 0x8200
    25b4:	629a      	str	r2, [r3, #40]	; 0x28
  assert(scb->CFSR == 0x0U);
    25b6:	68fb      	ldr	r3, [r7, #12]
    25b8:	6a9b      	ldr	r3, [r3, #40]	; 0x28
    25ba:	2b00      	cmp	r3, #0
    25bc:	d005      	beq.n	25ca <TestBusfault()+0x14a>
    25be:	4b0a      	ldr	r3, [pc, #40]	; (25e8 <TestBusfault()+0x168>)
    25c0:	4a06      	ldr	r2, [pc, #24]	; (25dc <TestBusfault()+0x15c>)
    25c2:	21b9      	movs	r1, #185	; 0xb9
    25c4:	4806      	ldr	r0, [pc, #24]	; (25e0 <TestBusfault()+0x160>)
    25c6:	f009 fa83 	bl	bad0 <__assert_func>
}
    25ca:	bf00      	nop
    25cc:	3710      	adds	r7, #16
    25ce:	46bd      	mov	sp, r7
    25d0:	bd80      	pop	{r7, pc}
    25d2:	bf00      	nop
    25d4:	20000b10 	.word	0x20000b10
    25d8:	000183e0 	.word	0x000183e0
    25dc:	000184d4 	.word	0x000184d4
    25e0:	0001840c 	.word	0x0001840c
    25e4:	000184e8 	.word	0x000184e8
    25e8:	000184fc 	.word	0x000184fc
    25ec:	deadbeef 	.word	0xdeadbeef
    25f0:	00018510 	.word	0x00018510
    25f4:	00018524 	.word	0x00018524
    25f8:	0001855c 	.word	0x0001855c
    25fc:	00018588 	.word	0x00018588
    2600:	000185ac 	.word	0x000185ac

00002604 <TestDivideByZero()>:

#pragma GCC diagnostic push
#pragma GCC diagnostic ignored "-Wdiv-by-zero"

void TestDivideByZero() {
    2604:	b580      	push	{r7, lr}
    2606:	b088      	sub	sp, #32
    2608:	af00      	add	r7, sp, #0
  volatile int32_t i_divisor = 0U;
    260a:	2300      	movs	r3, #0
    260c:	61bb      	str	r3, [r7, #24]
  volatile uint32_t u_divisor = 0U;
    260e:	2300      	movs	r3, #0
    2610:	617b      	str	r3, [r7, #20]
  usage_faults = 0U;
    2612:	2100      	movs	r1, #0
    2614:	485f      	ldr	r0, [pc, #380]	; (2794 <TestDivideByZero()+0x190>)
    2616:	f000 f910 	bl	283a <std::__atomic_base<unsigned long>::operator=(unsigned long)>
  auto *scb = GetSCBBase();
    261a:	f7ff fdbf 	bl	219c <GetSCBBase()>
    261e:	61f8      	str	r0, [r7, #28]
  assert(scb->CFSR == 0U);
    2620:	69fb      	ldr	r3, [r7, #28]
    2622:	6a9b      	ldr	r3, [r3, #40]	; 0x28
    2624:	2b00      	cmp	r3, #0
    2626:	d005      	beq.n	2634 <TestDivideByZero()+0x30>
    2628:	4b5b      	ldr	r3, [pc, #364]	; (2798 <TestDivideByZero()+0x194>)
    262a:	4a5c      	ldr	r2, [pc, #368]	; (279c <TestDivideByZero()+0x198>)
    262c:	21c4      	movs	r1, #196	; 0xc4
    262e:	485c      	ldr	r0, [pc, #368]	; (27a0 <TestDivideByZero()+0x19c>)
    2630:	f009 fa4e 	bl	bad0 <__assert_func>
  assert((scb->CCR & kCcrDivByZeroTrapEnableFlag) == 0U);
    2634:	69fb      	ldr	r3, [r7, #28]
    2636:	695b      	ldr	r3, [r3, #20]
    2638:	f003 0310 	and.w	r3, r3, #16
    263c:	2b00      	cmp	r3, #0
    263e:	d005      	beq.n	264c <TestDivideByZero()+0x48>
    2640:	4b58      	ldr	r3, [pc, #352]	; (27a4 <TestDivideByZero()+0x1a0>)
    2642:	4a56      	ldr	r2, [pc, #344]	; (279c <TestDivideByZero()+0x198>)
    2644:	21c5      	movs	r1, #197	; 0xc5
    2646:	4856      	ldr	r0, [pc, #344]	; (27a0 <TestDivideByZero()+0x19c>)
    2648:	f009 fa42 	bl	bad0 <__assert_func>
  assert(usage_faults == 0U);
    264c:	4851      	ldr	r0, [pc, #324]	; (2794 <TestDivideByZero()+0x190>)
    264e:	f000 f8d9 	bl	2804 <std::__atomic_base<unsigned long>::operator unsigned long() const>
    2652:	4603      	mov	r3, r0
    2654:	2b00      	cmp	r3, #0
    2656:	d005      	beq.n	2664 <TestDivideByZero()+0x60>
    2658:	4b53      	ldr	r3, [pc, #332]	; (27a8 <TestDivideByZero()+0x1a4>)
    265a:	4a50      	ldr	r2, [pc, #320]	; (279c <TestDivideByZero()+0x198>)
    265c:	21c6      	movs	r1, #198	; 0xc6
    265e:	4850      	ldr	r0, [pc, #320]	; (27a0 <TestDivideByZero()+0x19c>)
    2660:	f009 fa36 	bl	bad0 <__assert_func>

  volatile uint32_t x1 = 123U / u_divisor; // provoke a divide by zero without exception
    2664:	697b      	ldr	r3, [r7, #20]
    2666:	227b      	movs	r2, #123	; 0x7b
    2668:	fbb2 f3f3 	udiv	r3, r2, r3
    266c:	613b      	str	r3, [r7, #16]
  assert(usage_faults == 0U);
    266e:	4849      	ldr	r0, [pc, #292]	; (2794 <TestDivideByZero()+0x190>)
    2670:	f000 f8c8 	bl	2804 <std::__atomic_base<unsigned long>::operator unsigned long() const>
    2674:	4603      	mov	r3, r0
    2676:	2b00      	cmp	r3, #0
    2678:	d005      	beq.n	2686 <TestDivideByZero()+0x82>
    267a:	4b4b      	ldr	r3, [pc, #300]	; (27a8 <TestDivideByZero()+0x1a4>)
    267c:	4a47      	ldr	r2, [pc, #284]	; (279c <TestDivideByZero()+0x198>)
    267e:	21c9      	movs	r1, #201	; 0xc9
    2680:	4847      	ldr	r0, [pc, #284]	; (27a0 <TestDivideByZero()+0x19c>)
    2682:	f009 fa25 	bl	bad0 <__assert_func>
  assert(x1 == 0);
    2686:	693b      	ldr	r3, [r7, #16]
    2688:	2b00      	cmp	r3, #0
    268a:	d005      	beq.n	2698 <TestDivideByZero()+0x94>
    268c:	4b47      	ldr	r3, [pc, #284]	; (27ac <TestDivideByZero()+0x1a8>)
    268e:	4a43      	ldr	r2, [pc, #268]	; (279c <TestDivideByZero()+0x198>)
    2690:	21ca      	movs	r1, #202	; 0xca
    2692:	4843      	ldr	r0, [pc, #268]	; (27a0 <TestDivideByZero()+0x19c>)
    2694:	f009 fa1c 	bl	bad0 <__assert_func>

  volatile int32_t x2 = 123 / i_divisor; // provoke a divide by zero without exception
    2698:	69bb      	ldr	r3, [r7, #24]
    269a:	227b      	movs	r2, #123	; 0x7b
    269c:	fb92 f3f3 	sdiv	r3, r2, r3
    26a0:	60fb      	str	r3, [r7, #12]
  assert(usage_faults == 0U);
    26a2:	483c      	ldr	r0, [pc, #240]	; (2794 <TestDivideByZero()+0x190>)
    26a4:	f000 f8ae 	bl	2804 <std::__atomic_base<unsigned long>::operator unsigned long() const>
    26a8:	4603      	mov	r3, r0
    26aa:	2b00      	cmp	r3, #0
    26ac:	d005      	beq.n	26ba <TestDivideByZero()+0xb6>
    26ae:	4b3e      	ldr	r3, [pc, #248]	; (27a8 <TestDivideByZero()+0x1a4>)
    26b0:	4a3a      	ldr	r2, [pc, #232]	; (279c <TestDivideByZero()+0x198>)
    26b2:	21cd      	movs	r1, #205	; 0xcd
    26b4:	483a      	ldr	r0, [pc, #232]	; (27a0 <TestDivideByZero()+0x19c>)
    26b6:	f009 fa0b 	bl	bad0 <__assert_func>
  assert(x2 == 0);
    26ba:	68fb      	ldr	r3, [r7, #12]
    26bc:	2b00      	cmp	r3, #0
    26be:	d005      	beq.n	26cc <TestDivideByZero()+0xc8>
    26c0:	4b3b      	ldr	r3, [pc, #236]	; (27b0 <TestDivideByZero()+0x1ac>)
    26c2:	4a36      	ldr	r2, [pc, #216]	; (279c <TestDivideByZero()+0x198>)
    26c4:	21ce      	movs	r1, #206	; 0xce
    26c6:	4836      	ldr	r0, [pc, #216]	; (27a0 <TestDivideByZero()+0x19c>)
    26c8:	f009 fa02 	bl	bad0 <__assert_func>

  // Enable divide by zero trap
  scb->CCR = scb->CCR | kCcrDivByZeroTrapEnableFlag;
    26cc:	69fb      	ldr	r3, [r7, #28]
    26ce:	695b      	ldr	r3, [r3, #20]
    26d0:	f043 0210 	orr.w	r2, r3, #16
    26d4:	69fb      	ldr	r3, [r7, #28]
    26d6:	615a      	str	r2, [r3, #20]

  volatile uint32_t x3 = 123U / u_divisor; // provoke a divide by zero exception
    26d8:	697b      	ldr	r3, [r7, #20]
    26da:	227b      	movs	r2, #123	; 0x7b
    26dc:	fbb2 f3f3 	udiv	r3, r2, r3
    26e0:	60bb      	str	r3, [r7, #8]
  assert(usage_faults == 1U);
    26e2:	482c      	ldr	r0, [pc, #176]	; (2794 <TestDivideByZero()+0x190>)
    26e4:	f000 f88e 	bl	2804 <std::__atomic_base<unsigned long>::operator unsigned long() const>
    26e8:	4603      	mov	r3, r0
    26ea:	2b01      	cmp	r3, #1
    26ec:	d005      	beq.n	26fa <TestDivideByZero()+0xf6>
    26ee:	4b31      	ldr	r3, [pc, #196]	; (27b4 <TestDivideByZero()+0x1b0>)
    26f0:	4a2a      	ldr	r2, [pc, #168]	; (279c <TestDivideByZero()+0x198>)
    26f2:	21d4      	movs	r1, #212	; 0xd4
    26f4:	482a      	ldr	r0, [pc, #168]	; (27a0 <TestDivideByZero()+0x19c>)
    26f6:	f009 f9eb 	bl	bad0 <__assert_func>
  assert(scb->CFSR == kCfsrDivByZeroFlag);
    26fa:	69fb      	ldr	r3, [r7, #28]
    26fc:	6a9b      	ldr	r3, [r3, #40]	; 0x28
    26fe:	f1b3 7f00 	cmp.w	r3, #33554432	; 0x2000000
    2702:	d005      	beq.n	2710 <TestDivideByZero()+0x10c>
    2704:	4b2c      	ldr	r3, [pc, #176]	; (27b8 <TestDivideByZero()+0x1b4>)
    2706:	4a25      	ldr	r2, [pc, #148]	; (279c <TestDivideByZero()+0x198>)
    2708:	21d5      	movs	r1, #213	; 0xd5
    270a:	4825      	ldr	r0, [pc, #148]	; (27a0 <TestDivideByZero()+0x19c>)
    270c:	f009 f9e0 	bl	bad0 <__assert_func>
  scb->CFSR = kCfsrDivByZeroFlag; // reset fault
    2710:	69fb      	ldr	r3, [r7, #28]
    2712:	f04f 7200 	mov.w	r2, #33554432	; 0x2000000
    2716:	629a      	str	r2, [r3, #40]	; 0x28
  assert(scb->CFSR == 0U);
    2718:	69fb      	ldr	r3, [r7, #28]
    271a:	6a9b      	ldr	r3, [r3, #40]	; 0x28
    271c:	2b00      	cmp	r3, #0
    271e:	d005      	beq.n	272c <TestDivideByZero()+0x128>
    2720:	4b1d      	ldr	r3, [pc, #116]	; (2798 <TestDivideByZero()+0x194>)
    2722:	4a1e      	ldr	r2, [pc, #120]	; (279c <TestDivideByZero()+0x198>)
    2724:	21d7      	movs	r1, #215	; 0xd7
    2726:	481e      	ldr	r0, [pc, #120]	; (27a0 <TestDivideByZero()+0x19c>)
    2728:	f009 f9d2 	bl	bad0 <__assert_func>

  volatile int32_t x4 = 123 / i_divisor; // provoke a divide by zero exception
    272c:	69bb      	ldr	r3, [r7, #24]
    272e:	227b      	movs	r2, #123	; 0x7b
    2730:	fb92 f3f3 	sdiv	r3, r2, r3
    2734:	607b      	str	r3, [r7, #4]
  assert(usage_faults == 2U);
    2736:	4817      	ldr	r0, [pc, #92]	; (2794 <TestDivideByZero()+0x190>)
    2738:	f000 f864 	bl	2804 <std::__atomic_base<unsigned long>::operator unsigned long() const>
    273c:	4603      	mov	r3, r0
    273e:	2b02      	cmp	r3, #2
    2740:	d005      	beq.n	274e <TestDivideByZero()+0x14a>
    2742:	4b1e      	ldr	r3, [pc, #120]	; (27bc <TestDivideByZero()+0x1b8>)
    2744:	4a15      	ldr	r2, [pc, #84]	; (279c <TestDivideByZero()+0x198>)
    2746:	21da      	movs	r1, #218	; 0xda
    2748:	4815      	ldr	r0, [pc, #84]	; (27a0 <TestDivideByZero()+0x19c>)
    274a:	f009 f9c1 	bl	bad0 <__assert_func>
  assert(scb->CFSR == kCfsrDivByZeroFlag);
    274e:	69fb      	ldr	r3, [r7, #28]
    2750:	6a9b      	ldr	r3, [r3, #40]	; 0x28
    2752:	f1b3 7f00 	cmp.w	r3, #33554432	; 0x2000000
    2756:	d005      	beq.n	2764 <TestDivideByZero()+0x160>
    2758:	4b17      	ldr	r3, [pc, #92]	; (27b8 <TestDivideByZero()+0x1b4>)
    275a:	4a10      	ldr	r2, [pc, #64]	; (279c <TestDivideByZero()+0x198>)
    275c:	21db      	movs	r1, #219	; 0xdb
    275e:	4810      	ldr	r0, [pc, #64]	; (27a0 <TestDivideByZero()+0x19c>)
    2760:	f009 f9b6 	bl	bad0 <__assert_func>
  scb->CFSR = kCfsrDivByZeroFlag; // reset fault
    2764:	69fb      	ldr	r3, [r7, #28]
    2766:	f04f 7200 	mov.w	r2, #33554432	; 0x2000000
    276a:	629a      	str	r2, [r3, #40]	; 0x28
  assert(scb->CFSR == 0U);
    276c:	69fb      	ldr	r3, [r7, #28]
    276e:	6a9b      	ldr	r3, [r3, #40]	; 0x28
    2770:	2b00      	cmp	r3, #0
    2772:	d005      	beq.n	2780 <TestDivideByZero()+0x17c>
    2774:	4b08      	ldr	r3, [pc, #32]	; (2798 <TestDivideByZero()+0x194>)
    2776:	4a09      	ldr	r2, [pc, #36]	; (279c <TestDivideByZero()+0x198>)
    2778:	21dd      	movs	r1, #221	; 0xdd
    277a:	4809      	ldr	r0, [pc, #36]	; (27a0 <TestDivideByZero()+0x19c>)
    277c:	f009 f9a8 	bl	bad0 <__assert_func>

  // Disable divide by zero trap
  scb->CCR = scb->CCR & ~kCcrDivByZeroTrapEnableFlag;
    2780:	69fb      	ldr	r3, [r7, #28]
    2782:	695b      	ldr	r3, [r3, #20]
    2784:	f023 0210 	bic.w	r2, r3, #16
    2788:	69fb      	ldr	r3, [r7, #28]
    278a:	615a      	str	r2, [r3, #20]
}
    278c:	bf00      	nop
    278e:	3720      	adds	r7, #32
    2790:	46bd      	mov	sp, r7
    2792:	bd80      	pop	{r7, pc}
    2794:	20000b14 	.word	0x20000b14
    2798:	000183e0 	.word	0x000183e0
    279c:	000185c0 	.word	0x000185c0
    27a0:	0001840c 	.word	0x0001840c
    27a4:	000185d8 	.word	0x000185d8
    27a8:	00018458 	.word	0x00018458
    27ac:	00018608 	.word	0x00018608
    27b0:	00018610 	.word	0x00018610
    27b4:	00018480 	.word	0x00018480
    27b8:	00018618 	.word	0x00018618
    27bc:	00018638 	.word	0x00018638

000027c0 <TestExceptions()>:
#pragma GCC diagnostic pop

void TestExceptions() {
    27c0:	b580      	push	{r7, lr}
    27c2:	af00      	add	r7, sp, #0
  printf("# Test: Exceptions\n");
    27c4:	4805      	ldr	r0, [pc, #20]	; (27dc <TestExceptions()+0x1c>)
    27c6:	f00a fa29 	bl	cc1c <puts>

  // SysTickDisable(); // deactivate SysTick and wait for the test to finish

  TestVariousFaults();
    27ca:	f7ff fdb7 	bl	233c <TestVariousFaults()>
  TestBusfault();
    27ce:	f7ff fe57 	bl	2480 <TestBusfault()>
  TestDivideByZero();
    27d2:	f7ff ff17 	bl	2604 <TestDivideByZero()>
    27d6:	bf00      	nop
    27d8:	bd80      	pop	{r7, pc}
    27da:	bf00      	nop
    27dc:	0001864c 	.word	0x0001864c

000027e0 <std::operator&(std::memory_order, std::__memory_order_modifier)>:
    return memory_order(int(__m) | int(__mod));
  }

  constexpr memory_order
  operator&(memory_order __m, __memory_order_modifier __mod)
  {
    27e0:	b480      	push	{r7}
    27e2:	b083      	sub	sp, #12
    27e4:	af00      	add	r7, sp, #0
    27e6:	4603      	mov	r3, r0
    27e8:	6039      	str	r1, [r7, #0]
    27ea:	71fb      	strb	r3, [r7, #7]
    return memory_order(int(__m) & int(__mod));
    27ec:	683b      	ldr	r3, [r7, #0]
    27ee:	b25a      	sxtb	r2, r3
    27f0:	f997 3007 	ldrsb.w	r3, [r7, #7]
    27f4:	4013      	ands	r3, r2
    27f6:	b25b      	sxtb	r3, r3
    27f8:	b2db      	uxtb	r3, r3
  }
    27fa:	4618      	mov	r0, r3
    27fc:	370c      	adds	r7, #12
    27fe:	46bd      	mov	sp, r7
    2800:	bc80      	pop	{r7}
    2802:	4770      	bx	lr

00002804 <std::__atomic_base<unsigned long>::operator unsigned long() const>:
      __atomic_base& operator=(const __atomic_base&) volatile = delete;

      // Requires __int_type convertible to _M_i.
      constexpr __atomic_base(__int_type __i) noexcept : _M_i (__i) { }

      operator __int_type() const noexcept
    2804:	b580      	push	{r7, lr}
    2806:	b084      	sub	sp, #16
    2808:	af00      	add	r7, sp, #0
    280a:	6078      	str	r0, [r7, #4]
    280c:	687b      	ldr	r3, [r7, #4]
    280e:	60fb      	str	r3, [r7, #12]
    2810:	2305      	movs	r3, #5
    2812:	72fb      	strb	r3, [r7, #11]
      }

      _GLIBCXX_ALWAYS_INLINE __int_type
      load(memory_order __m = memory_order_seq_cst) const noexcept
      {
	memory_order __b = __m & __memory_order_mask;
    2814:	7afb      	ldrb	r3, [r7, #11]
    2816:	f64f 71ff 	movw	r1, #65535	; 0xffff
    281a:	4618      	mov	r0, r3
    281c:	f7ff ffe0 	bl	27e0 <std::operator&(std::memory_order, std::__memory_order_modifier)>
    2820:	4603      	mov	r3, r0
    2822:	72bb      	strb	r3, [r7, #10]
	__glibcxx_assert(__b != memory_order_release);
	__glibcxx_assert(__b != memory_order_acq_rel);

	return __atomic_load_n(&_M_i, int(__m));
    2824:	68fb      	ldr	r3, [r7, #12]
    2826:	f3bf 8f5b 	dmb	ish
    282a:	681b      	ldr	r3, [r3, #0]
    282c:	f3bf 8f5b 	dmb	ish
    2830:	bf00      	nop
      { return load(); }
    2832:	4618      	mov	r0, r3
    2834:	3710      	adds	r7, #16
    2836:	46bd      	mov	sp, r7
    2838:	bd80      	pop	{r7, pc}

0000283a <std::__atomic_base<unsigned long>::operator=(unsigned long)>:
      operator=(__int_type __i) noexcept
    283a:	b580      	push	{r7, lr}
    283c:	b086      	sub	sp, #24
    283e:	af00      	add	r7, sp, #0
    2840:	6078      	str	r0, [r7, #4]
    2842:	6039      	str	r1, [r7, #0]
    2844:	687b      	ldr	r3, [r7, #4]
    2846:	617b      	str	r3, [r7, #20]
    2848:	683b      	ldr	r3, [r7, #0]
    284a:	613b      	str	r3, [r7, #16]
    284c:	2305      	movs	r3, #5
    284e:	73fb      	strb	r3, [r7, #15]
	memory_order __b = __m & __memory_order_mask;
    2850:	7bfb      	ldrb	r3, [r7, #15]
    2852:	f64f 71ff 	movw	r1, #65535	; 0xffff
    2856:	4618      	mov	r0, r3
    2858:	f7ff ffc2 	bl	27e0 <std::operator&(std::memory_order, std::__memory_order_modifier)>
    285c:	4603      	mov	r3, r0
    285e:	73bb      	strb	r3, [r7, #14]
	__atomic_store_n(&_M_i, __i, int(__m));
    2860:	697b      	ldr	r3, [r7, #20]
    2862:	f3bf 8f5b 	dmb	ish
    2866:	693a      	ldr	r2, [r7, #16]
    2868:	601a      	str	r2, [r3, #0]
    286a:	f3bf 8f5b 	dmb	ish
      }
    286e:	bf00      	nop
	return __i;
    2870:	683b      	ldr	r3, [r7, #0]
      }
    2872:	4618      	mov	r0, r3
    2874:	3718      	adds	r7, #24
    2876:	46bd      	mov	sp, r7
    2878:	bd80      	pop	{r7, pc}

0000287a <std::__atomic_base<unsigned long>::operator++(int)>:
      operator++(int) noexcept
    287a:	b480      	push	{r7}
    287c:	b087      	sub	sp, #28
    287e:	af00      	add	r7, sp, #0
    2880:	6078      	str	r0, [r7, #4]
    2882:	6039      	str	r1, [r7, #0]
    2884:	687b      	ldr	r3, [r7, #4]
    2886:	617b      	str	r3, [r7, #20]
    2888:	2301      	movs	r3, #1
    288a:	613b      	str	r3, [r7, #16]
    288c:	2305      	movs	r3, #5
    288e:	73fb      	strb	r3, [r7, #15]
      }

      _GLIBCXX_ALWAYS_INLINE __int_type
      fetch_add(__int_type __i,
		memory_order __m = memory_order_seq_cst) noexcept
      { return __atomic_fetch_add(&_M_i, __i, int(__m)); }
    2890:	697b      	ldr	r3, [r7, #20]
    2892:	693a      	ldr	r2, [r7, #16]
    2894:	f3bf 8f5b 	dmb	ish
    2898:	e853 1f00 	ldrex	r1, [r3]
    289c:	eb01 0002 	add.w	r0, r1, r2
    28a0:	e843 0c00 	strex	ip, r0, [r3]
    28a4:	f1bc 0f00 	cmp.w	ip, #0
    28a8:	d1f6      	bne.n	2898 <std::__atomic_base<unsigned long>::operator++(int)+0x1e>
    28aa:	f3bf 8f5b 	dmb	ish
    28ae:	bf00      	nop
      { return fetch_add(1); }
    28b0:	460b      	mov	r3, r1
    28b2:	4618      	mov	r0, r3
    28b4:	371c      	adds	r7, #28
    28b6:	46bd      	mov	sp, r7
    28b8:	bc80      	pop	{r7}
    28ba:	4770      	bx	lr

000028bc <GetSCBBase()>:
static inline volatile SCB *GetSCBBase() {
    28bc:	b480      	push	{r7}
    28be:	af00      	add	r7, sp, #0
  return reinterpret_cast<SCB *>(reinterpret_cast<unsigned *>(0xE000ED00u));
    28c0:	4b02      	ldr	r3, [pc, #8]	; (28cc <GetSCBBase()+0x10>)
    28c2:	4618      	mov	r0, r3
    28c4:	46bd      	mov	sp, r7
    28c6:	bc80      	pop	{r7}
    28c8:	4770      	bx	lr
    28ca:	bf00      	nop
    28cc:	e000ed00 	.word	0xe000ed00

000028d0 <TestScb()>:
#include <assert.h>
#include <atomic>
#include <stdint.h>
#include <stdio.h>

void TestScb() {
    28d0:	b580      	push	{r7, lr}
    28d2:	b082      	sub	sp, #8
    28d4:	af00      	add	r7, sp, #0
  printf("# Test: System control bus\n");
    28d6:	480a      	ldr	r0, [pc, #40]	; (2900 <TestScb()+0x30>)
    28d8:	f00a f9a0 	bl	cc1c <puts>
  auto *scb = GetSCBBase();
    28dc:	f7ff ffee 	bl	28bc <GetSCBBase()>
    28e0:	6078      	str	r0, [r7, #4]

  assert(scb->CCR == (kCcrStkAlignFlag));
    28e2:	687b      	ldr	r3, [r7, #4]
    28e4:	695b      	ldr	r3, [r3, #20]
    28e6:	f5b3 7f00 	cmp.w	r3, #512	; 0x200
    28ea:	d005      	beq.n	28f8 <TestScb()+0x28>
    28ec:	4b05      	ldr	r3, [pc, #20]	; (2904 <TestScb()+0x34>)
    28ee:	4a06      	ldr	r2, [pc, #24]	; (2908 <TestScb()+0x38>)
    28f0:	210c      	movs	r1, #12
    28f2:	4806      	ldr	r0, [pc, #24]	; (290c <TestScb()+0x3c>)
    28f4:	f009 f8ec 	bl	bad0 <__assert_func>
    28f8:	bf00      	nop
    28fa:	3708      	adds	r7, #8
    28fc:	46bd      	mov	sp, r7
    28fe:	bd80      	pop	{r7, pc}
    2900:	000186d0 	.word	0x000186d0
    2904:	000186ec 	.word	0x000186ec
    2908:	0001870c 	.word	0x0001870c
    290c:	0001871c 	.word	0x0001871c

00002910 <SVC_Handler>:
char svc_buffer_1[256u];

std::atomic<uint32_t> svc_next_buffer{0u};
std::atomic<uint32_t> svc_call_count{0u};

void SVC_Handler() {
    2910:	4668      	mov	r0, sp
    2912:	f020 0107 	bic.w	r1, r0, #7
    2916:	468d      	mov	sp, r1
    2918:	b581      	push	{r0, r7, lr}
    291a:	b083      	sub	sp, #12
    291c:	af00      	add	r7, sp, #0
  svc_call_count++;
    291e:	2100      	movs	r1, #0
    2920:	482a      	ldr	r0, [pc, #168]	; (29cc <SVC_Handler+0xbc>)
    2922:	f7ff ffaa 	bl	287a <std::__atomic_base<unsigned long>::operator++(int)>

  // this looks weird; but it is a simple way to stress the emulator.
  // sprintf does a lot of nasty things and is a good test for the emulator
  if (svc_next_buffer == 1u) {
    2926:	482a      	ldr	r0, [pc, #168]	; (29d0 <SVC_Handler+0xc0>)
    2928:	f7ff ff6c 	bl	2804 <std::__atomic_base<unsigned long>::operator unsigned long() const>
    292c:	4603      	mov	r3, r0
    292e:	2b01      	cmp	r3, #1
    2930:	bf0c      	ite	eq
    2932:	2301      	moveq	r3, #1
    2934:	2300      	movne	r3, #0
    2936:	b2db      	uxtb	r3, r3
    2938:	2b00      	cmp	r3, #0
    293a:	d01a      	beq.n	2972 <SVC_Handler+0x62>
    293c:	2305      	movs	r3, #5
    293e:	70fb      	strb	r3, [r7, #3]
	memory_order __b = __m & __memory_order_mask;
    2940:	78fb      	ldrb	r3, [r7, #3]
    2942:	f64f 71ff 	movw	r1, #65535	; 0xffff
    2946:	4618      	mov	r0, r3
    2948:	f7ff ff4a 	bl	27e0 <std::operator&(std::memory_order, std::__memory_order_modifier)>
    294c:	4603      	mov	r3, r0
    294e:	70bb      	strb	r3, [r7, #2]
	return __atomic_load_n(&_M_i, int(__m));
    2950:	4b1e      	ldr	r3, [pc, #120]	; (29cc <SVC_Handler+0xbc>)
    2952:	f3bf 8f5b 	dmb	ish
    2956:	681b      	ldr	r3, [r3, #0]
    2958:	f3bf 8f5b 	dmb	ish
    295c:	bf00      	nop
    sprintf(svc_buffer_1, "SVC_Handler called %i times", svc_call_count.load());
    295e:	461a      	mov	r2, r3
    2960:	491c      	ldr	r1, [pc, #112]	; (29d4 <SVC_Handler+0xc4>)
    2962:	481d      	ldr	r0, [pc, #116]	; (29d8 <SVC_Handler+0xc8>)
    2964:	f00a fce6 	bl	d334 <sprintf>
    svc_next_buffer = 0u;
    2968:	2100      	movs	r1, #0
    296a:	4819      	ldr	r0, [pc, #100]	; (29d0 <SVC_Handler+0xc0>)
    296c:	f7ff ff65 	bl	283a <std::__atomic_base<unsigned long>::operator=(unsigned long)>
    2970:	e019      	b.n	29a6 <SVC_Handler+0x96>
    2972:	2305      	movs	r3, #5
    2974:	707b      	strb	r3, [r7, #1]
	memory_order __b = __m & __memory_order_mask;
    2976:	787b      	ldrb	r3, [r7, #1]
    2978:	f64f 71ff 	movw	r1, #65535	; 0xffff
    297c:	4618      	mov	r0, r3
    297e:	f7ff ff2f 	bl	27e0 <std::operator&(std::memory_order, std::__memory_order_modifier)>
    2982:	4603      	mov	r3, r0
    2984:	703b      	strb	r3, [r7, #0]
	return __atomic_load_n(&_M_i, int(__m));
    2986:	4b11      	ldr	r3, [pc, #68]	; (29cc <SVC_Handler+0xbc>)
    2988:	f3bf 8f5b 	dmb	ish
    298c:	681b      	ldr	r3, [r3, #0]
    298e:	f3bf 8f5b 	dmb	ish
    2992:	bf00      	nop
  } else {
    sprintf(svc_buffer_0, "SVC_Handler called %i times", svc_call_count.load());
    2994:	461a      	mov	r2, r3
    2996:	490f      	ldr	r1, [pc, #60]	; (29d4 <SVC_Handler+0xc4>)
    2998:	4810      	ldr	r0, [pc, #64]	; (29dc <SVC_Handler+0xcc>)
    299a:	f00a fccb 	bl	d334 <sprintf>
    svc_next_buffer = 1u;
    299e:	2101      	movs	r1, #1
    29a0:	480b      	ldr	r0, [pc, #44]	; (29d0 <SVC_Handler+0xc0>)
    29a2:	f7ff ff4a 	bl	283a <std::__atomic_base<unsigned long>::operator=(unsigned long)>

  // Burn cycles

  // During this loop another SysTick_Handler call is expected
  // The emulator should be able to handle this
  for (int i = 0; i < 1000u; i++) {
    29a6:	2300      	movs	r3, #0
    29a8:	607b      	str	r3, [r7, #4]
    29aa:	687b      	ldr	r3, [r7, #4]
    29ac:	f5b3 7f7a 	cmp.w	r3, #1000	; 0x3e8
    29b0:	d204      	bcs.n	29bc <SVC_Handler+0xac>
    __asm__("NOP");
    29b2:	bf00      	nop
  for (int i = 0; i < 1000u; i++) {
    29b4:	687b      	ldr	r3, [r7, #4]
    29b6:	3301      	adds	r3, #1
    29b8:	607b      	str	r3, [r7, #4]
    29ba:	e7f6      	b.n	29aa <SVC_Handler+0x9a>
  }
};
    29bc:	bf00      	nop
    29be:	370c      	adds	r7, #12
    29c0:	46bd      	mov	sp, r7
    29c2:	e8bd 4081 	ldmia.w	sp!, {r0, r7, lr}
    29c6:	4685      	mov	sp, r0
    29c8:	4770      	bx	lr
    29ca:	bf00      	nop
    29cc:	20000d1c 	.word	0x20000d1c
    29d0:	20000d18 	.word	0x20000d18
    29d4:	00018794 	.word	0x00018794
    29d8:	20000c18 	.word	0x20000c18
    29dc:	20000b18 	.word	0x20000b18

000029e0 <SysTick_Handler>:
char systick_buffer_1[256u];

std::atomic<uint32_t> systick_next_buffer{0u};
std::atomic<uint32_t> systick_call_count{0u};

void SysTick_Handler() {
    29e0:	4668      	mov	r0, sp
    29e2:	f020 0107 	bic.w	r1, r0, #7
    29e6:	468d      	mov	sp, r1
    29e8:	b581      	push	{r0, r7, lr}
    29ea:	b083      	sub	sp, #12
    29ec:	af00      	add	r7, sp, #0

  // Call SVC_Handler every 10th time
  if (systick_call_count % 10 == 0u) {
    29ee:	4830      	ldr	r0, [pc, #192]	; (2ab0 <SysTick_Handler+0xd0>)
    29f0:	f7ff ff08 	bl	2804 <std::__atomic_base<unsigned long>::operator unsigned long() const>
    29f4:	4601      	mov	r1, r0
    29f6:	4b2f      	ldr	r3, [pc, #188]	; (2ab4 <SysTick_Handler+0xd4>)
    29f8:	fba3 2301 	umull	r2, r3, r3, r1
    29fc:	08da      	lsrs	r2, r3, #3
    29fe:	4613      	mov	r3, r2
    2a00:	009b      	lsls	r3, r3, #2
    2a02:	4413      	add	r3, r2
    2a04:	005b      	lsls	r3, r3, #1
    2a06:	1aca      	subs	r2, r1, r3
    2a08:	2a00      	cmp	r2, #0
    2a0a:	bf0c      	ite	eq
    2a0c:	2301      	moveq	r3, #1
    2a0e:	2300      	movne	r3, #0
    2a10:	b2db      	uxtb	r3, r3
    2a12:	2b00      	cmp	r3, #0
    2a14:	d000      	beq.n	2a18 <SysTick_Handler+0x38>
    __asm__("SVC #0x02           \n" : : :);
    2a16:	df02      	svc	2
  }

  systick_call_count++;
    2a18:	2100      	movs	r1, #0
    2a1a:	4825      	ldr	r0, [pc, #148]	; (2ab0 <SysTick_Handler+0xd0>)
    2a1c:	f7ff ff2d 	bl	287a <std::__atomic_base<unsigned long>::operator++(int)>

  // this looks weird; but it is a simple way to stress the emulator.
  // sprintf does a lot of nasty things and is a good test for the emulator
  if (systick_next_buffer == 1u) {
    2a20:	4825      	ldr	r0, [pc, #148]	; (2ab8 <SysTick_Handler+0xd8>)
    2a22:	f7ff feef 	bl	2804 <std::__atomic_base<unsigned long>::operator unsigned long() const>
    2a26:	4603      	mov	r3, r0
    2a28:	2b01      	cmp	r3, #1
    2a2a:	bf0c      	ite	eq
    2a2c:	2301      	moveq	r3, #1
    2a2e:	2300      	movne	r3, #0
    2a30:	b2db      	uxtb	r3, r3
    2a32:	2b00      	cmp	r3, #0
    2a34:	d01a      	beq.n	2a6c <SysTick_Handler+0x8c>
    2a36:	2305      	movs	r3, #5
    2a38:	71fb      	strb	r3, [r7, #7]
	memory_order __b = __m & __memory_order_mask;
    2a3a:	79fb      	ldrb	r3, [r7, #7]
    2a3c:	f64f 71ff 	movw	r1, #65535	; 0xffff
    2a40:	4618      	mov	r0, r3
    2a42:	f7ff fecd 	bl	27e0 <std::operator&(std::memory_order, std::__memory_order_modifier)>
    2a46:	4603      	mov	r3, r0
    2a48:	71bb      	strb	r3, [r7, #6]
	return __atomic_load_n(&_M_i, int(__m));
    2a4a:	4b19      	ldr	r3, [pc, #100]	; (2ab0 <SysTick_Handler+0xd0>)
    2a4c:	f3bf 8f5b 	dmb	ish
    2a50:	681b      	ldr	r3, [r3, #0]
    2a52:	f3bf 8f5b 	dmb	ish
    2a56:	bf00      	nop
    sprintf(systick_buffer_1, "SysTick_Handler called %i times", systick_call_count.load());
    2a58:	461a      	mov	r2, r3
    2a5a:	4918      	ldr	r1, [pc, #96]	; (2abc <SysTick_Handler+0xdc>)
    2a5c:	4818      	ldr	r0, [pc, #96]	; (2ac0 <SysTick_Handler+0xe0>)
    2a5e:	f00a fc69 	bl	d334 <sprintf>
    systick_next_buffer = 0u;
    2a62:	2100      	movs	r1, #0
    2a64:	4814      	ldr	r0, [pc, #80]	; (2ab8 <SysTick_Handler+0xd8>)
    2a66:	f7ff fee8 	bl	283a <std::__atomic_base<unsigned long>::operator=(unsigned long)>
  } else {
    sprintf(systick_buffer_0, "SysTick_Handler called %i times", systick_call_count.load());
    systick_next_buffer = 1u;
  }
};
    2a6a:	e019      	b.n	2aa0 <SysTick_Handler+0xc0>
    2a6c:	2305      	movs	r3, #5
    2a6e:	717b      	strb	r3, [r7, #5]
	memory_order __b = __m & __memory_order_mask;
    2a70:	797b      	ldrb	r3, [r7, #5]
    2a72:	f64f 71ff 	movw	r1, #65535	; 0xffff
    2a76:	4618      	mov	r0, r3
    2a78:	f7ff feb2 	bl	27e0 <std::operator&(std::memory_order, std::__memory_order_modifier)>
    2a7c:	4603      	mov	r3, r0
    2a7e:	713b      	strb	r3, [r7, #4]
	return __atomic_load_n(&_M_i, int(__m));
    2a80:	4b0b      	ldr	r3, [pc, #44]	; (2ab0 <SysTick_Handler+0xd0>)
    2a82:	f3bf 8f5b 	dmb	ish
    2a86:	681b      	ldr	r3, [r3, #0]
    2a88:	f3bf 8f5b 	dmb	ish
    2a8c:	bf00      	nop
    sprintf(systick_buffer_0, "SysTick_Handler called %i times", systick_call_count.load());
    2a8e:	461a      	mov	r2, r3
    2a90:	490a      	ldr	r1, [pc, #40]	; (2abc <SysTick_Handler+0xdc>)
    2a92:	480c      	ldr	r0, [pc, #48]	; (2ac4 <SysTick_Handler+0xe4>)
    2a94:	f00a fc4e 	bl	d334 <sprintf>
    systick_next_buffer = 1u;
    2a98:	2101      	movs	r1, #1
    2a9a:	4807      	ldr	r0, [pc, #28]	; (2ab8 <SysTick_Handler+0xd8>)
    2a9c:	f7ff fecd 	bl	283a <std::__atomic_base<unsigned long>::operator=(unsigned long)>
};
    2aa0:	bf00      	nop
    2aa2:	370c      	adds	r7, #12
    2aa4:	46bd      	mov	sp, r7
    2aa6:	e8bd 4081 	ldmia.w	sp!, {r0, r7, lr}
    2aaa:	4685      	mov	sp, r0
    2aac:	4770      	bx	lr
    2aae:	bf00      	nop
    2ab0:	20000f24 	.word	0x20000f24
    2ab4:	cccccccd 	.word	0xcccccccd
    2ab8:	20000f20 	.word	0x20000f20
    2abc:	000187b0 	.word	0x000187b0
    2ac0:	20000e20 	.word	0x20000e20
    2ac4:	20000d20 	.word	0x20000d20

00002ac8 <StartIrqTest()>:

void StartIrqTest() {
    2ac8:	b580      	push	{r7, lr}
    2aca:	af00      	add	r7, sp, #0
  // Initialize SysTick
  SysTickInit(2000); // assume this processor runs at 100MHz and the Systick at 500Hz
    2acc:	f44f 60fa 	mov.w	r0, #2000	; 0x7d0
    2ad0:	f7fd fba6 	bl	220 <SysTickInit(unsigned long)>
}
    2ad4:	bf00      	nop
    2ad6:	bd80      	pop	{r7, pc}

00002ad8 <TestIrqs()>:

void TestIrqs() {
    2ad8:	b580      	push	{r7, lr}
    2ada:	b082      	sub	sp, #8
    2adc:	af00      	add	r7, sp, #0
  printf("# Test: IRQs\n");
    2ade:	4856      	ldr	r0, [pc, #344]	; (2c38 <TestIrqs()+0x160>)
    2ae0:	f00a f89c 	bl	cc1c <puts>
  SysTickDisable(); // deactivate SysTick and wait for the test to finish
    2ae4:	f7fd fbab 	bl	23e <SysTickDisable()>

  if (systick_call_count != EXPECTED_SYSTICKS) {
    2ae8:	4854      	ldr	r0, [pc, #336]	; (2c3c <TestIrqs()+0x164>)
    2aea:	f7ff fe8b 	bl	2804 <std::__atomic_base<unsigned long>::operator unsigned long() const>
    2aee:	4603      	mov	r3, r0
    2af0:	2b5d      	cmp	r3, #93	; 0x5d
    2af2:	bf14      	ite	ne
    2af4:	2301      	movne	r3, #1
    2af6:	2300      	moveq	r3, #0
    2af8:	b2db      	uxtb	r3, r3
    2afa:	2b00      	cmp	r3, #0
    2afc:	d021      	beq.n	2b42 <TestIrqs()+0x6a>
    2afe:	2305      	movs	r3, #5
    2b00:	71fb      	strb	r3, [r7, #7]
	memory_order __b = __m & __memory_order_mask;
    2b02:	79fb      	ldrb	r3, [r7, #7]
    2b04:	f64f 71ff 	movw	r1, #65535	; 0xffff
    2b08:	4618      	mov	r0, r3
    2b0a:	f7ff fe69 	bl	27e0 <std::operator&(std::memory_order, std::__memory_order_modifier)>
    2b0e:	4603      	mov	r3, r0
    2b10:	71bb      	strb	r3, [r7, #6]
	return __atomic_load_n(&_M_i, int(__m));
    2b12:	4b4a      	ldr	r3, [pc, #296]	; (2c3c <TestIrqs()+0x164>)
    2b14:	f3bf 8f5b 	dmb	ish
    2b18:	681b      	ldr	r3, [r3, #0]
    2b1a:	f3bf 8f5b 	dmb	ish
    2b1e:	bf00      	nop
    printf("SysTick_Handler called %i times but expected were %i\n", systick_call_count.load(),
    2b20:	225d      	movs	r2, #93	; 0x5d
    2b22:	4619      	mov	r1, r3
    2b24:	4846      	ldr	r0, [pc, #280]	; (2c40 <TestIrqs()+0x168>)
    2b26:	f009 ff9f 	bl	ca68 <printf>
           EXPECTED_SYSTICKS);

    assert(systick_call_count != EXPECTED_SYSTICKS);
    2b2a:	4844      	ldr	r0, [pc, #272]	; (2c3c <TestIrqs()+0x164>)
    2b2c:	f7ff fe6a 	bl	2804 <std::__atomic_base<unsigned long>::operator unsigned long() const>
    2b30:	4603      	mov	r3, r0
    2b32:	2b5d      	cmp	r3, #93	; 0x5d
    2b34:	d105      	bne.n	2b42 <TestIrqs()+0x6a>
    2b36:	4b43      	ldr	r3, [pc, #268]	; (2c44 <TestIrqs()+0x16c>)
    2b38:	4a43      	ldr	r2, [pc, #268]	; (2c48 <TestIrqs()+0x170>)
    2b3a:	215d      	movs	r1, #93	; 0x5d
    2b3c:	4843      	ldr	r0, [pc, #268]	; (2c4c <TestIrqs()+0x174>)
    2b3e:	f008 ffc7 	bl	bad0 <__assert_func>
  };

  // take the actual buffer
  if (systick_next_buffer == 1u) {
    2b42:	4843      	ldr	r0, [pc, #268]	; (2c50 <TestIrqs()+0x178>)
    2b44:	f7ff fe5e 	bl	2804 <std::__atomic_base<unsigned long>::operator unsigned long() const>
    2b48:	4603      	mov	r3, r0
    2b4a:	2b01      	cmp	r3, #1
    2b4c:	bf0c      	ite	eq
    2b4e:	2301      	moveq	r3, #1
    2b50:	2300      	movne	r3, #0
    2b52:	b2db      	uxtb	r3, r3
    2b54:	2b00      	cmp	r3, #0
    2b56:	d00c      	beq.n	2b72 <TestIrqs()+0x9a>
    assert(strcmp(EXPECTED_SYSTICK_STRING, systick_buffer_0) == 0U);
    2b58:	493e      	ldr	r1, [pc, #248]	; (2c54 <TestIrqs()+0x17c>)
    2b5a:	483f      	ldr	r0, [pc, #252]	; (2c58 <TestIrqs()+0x180>)
    2b5c:	f00a fc0c 	bl	d378 <strcmp>
    2b60:	4603      	mov	r3, r0
    2b62:	2b00      	cmp	r3, #0
    2b64:	d012      	beq.n	2b8c <TestIrqs()+0xb4>
    2b66:	4b3d      	ldr	r3, [pc, #244]	; (2c5c <TestIrqs()+0x184>)
    2b68:	4a37      	ldr	r2, [pc, #220]	; (2c48 <TestIrqs()+0x170>)
    2b6a:	2162      	movs	r1, #98	; 0x62
    2b6c:	4837      	ldr	r0, [pc, #220]	; (2c4c <TestIrqs()+0x174>)
    2b6e:	f008 ffaf 	bl	bad0 <__assert_func>
  } else {
    assert(strcmp(EXPECTED_SYSTICK_STRING, systick_buffer_1) == 0U);
    2b72:	493b      	ldr	r1, [pc, #236]	; (2c60 <TestIrqs()+0x188>)
    2b74:	4838      	ldr	r0, [pc, #224]	; (2c58 <TestIrqs()+0x180>)
    2b76:	f00a fbff 	bl	d378 <strcmp>
    2b7a:	4603      	mov	r3, r0
    2b7c:	2b00      	cmp	r3, #0
    2b7e:	d005      	beq.n	2b8c <TestIrqs()+0xb4>
    2b80:	4b38      	ldr	r3, [pc, #224]	; (2c64 <TestIrqs()+0x18c>)
    2b82:	4a31      	ldr	r2, [pc, #196]	; (2c48 <TestIrqs()+0x170>)
    2b84:	2164      	movs	r1, #100	; 0x64
    2b86:	4831      	ldr	r0, [pc, #196]	; (2c4c <TestIrqs()+0x174>)
    2b88:	f008 ffa2 	bl	bad0 <__assert_func>
  }

  if (svc_call_count != EXPECTED_SVC) {
    2b8c:	4836      	ldr	r0, [pc, #216]	; (2c68 <TestIrqs()+0x190>)
    2b8e:	f7ff fe39 	bl	2804 <std::__atomic_base<unsigned long>::operator unsigned long() const>
    2b92:	4603      	mov	r3, r0
    2b94:	2b0a      	cmp	r3, #10
    2b96:	bf14      	ite	ne
    2b98:	2301      	movne	r3, #1
    2b9a:	2300      	moveq	r3, #0
    2b9c:	b2db      	uxtb	r3, r3
    2b9e:	2b00      	cmp	r3, #0
    2ba0:	d021      	beq.n	2be6 <TestIrqs()+0x10e>
    2ba2:	2305      	movs	r3, #5
    2ba4:	717b      	strb	r3, [r7, #5]
	memory_order __b = __m & __memory_order_mask;
    2ba6:	797b      	ldrb	r3, [r7, #5]
    2ba8:	f64f 71ff 	movw	r1, #65535	; 0xffff
    2bac:	4618      	mov	r0, r3
    2bae:	f7ff fe17 	bl	27e0 <std::operator&(std::memory_order, std::__memory_order_modifier)>
    2bb2:	4603      	mov	r3, r0
    2bb4:	713b      	strb	r3, [r7, #4]
	return __atomic_load_n(&_M_i, int(__m));
    2bb6:	4b2c      	ldr	r3, [pc, #176]	; (2c68 <TestIrqs()+0x190>)
    2bb8:	f3bf 8f5b 	dmb	ish
    2bbc:	681b      	ldr	r3, [r3, #0]
    2bbe:	f3bf 8f5b 	dmb	ish
    2bc2:	bf00      	nop
    printf("SVC_Handler called %i times but expected were %i\n", svc_call_count.load(),
    2bc4:	220a      	movs	r2, #10
    2bc6:	4619      	mov	r1, r3
    2bc8:	4828      	ldr	r0, [pc, #160]	; (2c6c <TestIrqs()+0x194>)
    2bca:	f009 ff4d 	bl	ca68 <printf>
           EXPECTED_SVC);

    assert(svc_call_count != EXPECTED_SVC);
    2bce:	4826      	ldr	r0, [pc, #152]	; (2c68 <TestIrqs()+0x190>)
    2bd0:	f7ff fe18 	bl	2804 <std::__atomic_base<unsigned long>::operator unsigned long() const>
    2bd4:	4603      	mov	r3, r0
    2bd6:	2b0a      	cmp	r3, #10
    2bd8:	d105      	bne.n	2be6 <TestIrqs()+0x10e>
    2bda:	4b25      	ldr	r3, [pc, #148]	; (2c70 <TestIrqs()+0x198>)
    2bdc:	4a1a      	ldr	r2, [pc, #104]	; (2c48 <TestIrqs()+0x170>)
    2bde:	216b      	movs	r1, #107	; 0x6b
    2be0:	481a      	ldr	r0, [pc, #104]	; (2c4c <TestIrqs()+0x174>)
    2be2:	f008 ff75 	bl	bad0 <__assert_func>
  };

  // take the actual buffer
  if (svc_next_buffer == 1u) {
    2be6:	4823      	ldr	r0, [pc, #140]	; (2c74 <TestIrqs()+0x19c>)
    2be8:	f7ff fe0c 	bl	2804 <std::__atomic_base<unsigned long>::operator unsigned long() const>
    2bec:	4603      	mov	r3, r0
    2bee:	2b01      	cmp	r3, #1
    2bf0:	bf0c      	ite	eq
    2bf2:	2301      	moveq	r3, #1
    2bf4:	2300      	movne	r3, #0
    2bf6:	b2db      	uxtb	r3, r3
    2bf8:	2b00      	cmp	r3, #0
    2bfa:	d00c      	beq.n	2c16 <TestIrqs()+0x13e>
    assert(strcmp(EXPECTED_SVC_STRING, svc_buffer_0) == 0U);
    2bfc:	491e      	ldr	r1, [pc, #120]	; (2c78 <TestIrqs()+0x1a0>)
    2bfe:	481f      	ldr	r0, [pc, #124]	; (2c7c <TestIrqs()+0x1a4>)
    2c00:	f00a fbba 	bl	d378 <strcmp>
    2c04:	4603      	mov	r3, r0
    2c06:	2b00      	cmp	r3, #0
    2c08:	d012      	beq.n	2c30 <TestIrqs()+0x158>
    2c0a:	4b1d      	ldr	r3, [pc, #116]	; (2c80 <TestIrqs()+0x1a8>)
    2c0c:	4a0e      	ldr	r2, [pc, #56]	; (2c48 <TestIrqs()+0x170>)
    2c0e:	2170      	movs	r1, #112	; 0x70
    2c10:	480e      	ldr	r0, [pc, #56]	; (2c4c <TestIrqs()+0x174>)
    2c12:	f008 ff5d 	bl	bad0 <__assert_func>
  } else {
    assert(strcmp(EXPECTED_SVC_STRING, svc_buffer_1) == 0U);
    2c16:	491b      	ldr	r1, [pc, #108]	; (2c84 <TestIrqs()+0x1ac>)
    2c18:	4818      	ldr	r0, [pc, #96]	; (2c7c <TestIrqs()+0x1a4>)
    2c1a:	f00a fbad 	bl	d378 <strcmp>
    2c1e:	4603      	mov	r3, r0
    2c20:	2b00      	cmp	r3, #0
    2c22:	d005      	beq.n	2c30 <TestIrqs()+0x158>
    2c24:	4b18      	ldr	r3, [pc, #96]	; (2c88 <TestIrqs()+0x1b0>)
    2c26:	4a08      	ldr	r2, [pc, #32]	; (2c48 <TestIrqs()+0x170>)
    2c28:	2172      	movs	r1, #114	; 0x72
    2c2a:	4808      	ldr	r0, [pc, #32]	; (2c4c <TestIrqs()+0x174>)
    2c2c:	f008 ff50 	bl	bad0 <__assert_func>
  }
    2c30:	bf00      	nop
    2c32:	3708      	adds	r7, #8
    2c34:	46bd      	mov	sp, r7
    2c36:	bd80      	pop	{r7, pc}
    2c38:	000187d0 	.word	0x000187d0
    2c3c:	20000f24 	.word	0x20000f24
    2c40:	000187e0 	.word	0x000187e0
    2c44:	00018818 	.word	0x00018818
    2c48:	00018840 	.word	0x00018840
    2c4c:	00018850 	.word	0x00018850
    2c50:	20000f20 	.word	0x20000f20
    2c54:	20000d20 	.word	0x20000d20
    2c58:	00018894 	.word	0x00018894
    2c5c:	000188b4 	.word	0x000188b4
    2c60:	20000e20 	.word	0x20000e20
    2c64:	000188ec 	.word	0x000188ec
    2c68:	20000d1c 	.word	0x20000d1c
    2c6c:	00018924 	.word	0x00018924
    2c70:	00018958 	.word	0x00018958
    2c74:	20000d18 	.word	0x20000d18
    2c78:	20000b18 	.word	0x20000b18
    2c7c:	00018978 	.word	0x00018978
    2c80:	00018994 	.word	0x00018994
    2c84:	20000c18 	.word	0x20000c18
    2c88:	000189c4 	.word	0x000189c4

00002c8c <Crc16(unsigned char const*, unsigned int)>:
#include "test_crc.h"
#include <assert.h>
#include <stdint.h>
#include <stdio.h>

uint16_t Crc16(const uint8_t *data, size_t length) {
    2c8c:	b480      	push	{r7}
    2c8e:	b087      	sub	sp, #28
    2c90:	af00      	add	r7, sp, #0
    2c92:	6078      	str	r0, [r7, #4]
    2c94:	6039      	str	r1, [r7, #0]
  uint16_t crc = 0xFFFF;              // Initial value
    2c96:	f64f 73ff 	movw	r3, #65535	; 0xffff
    2c9a:	82fb      	strh	r3, [r7, #22]
  const uint16_t polynomial = 0x1021; // CRC-16-CCITT polynomial
    2c9c:	f241 0321 	movw	r3, #4129	; 0x1021
    2ca0:	817b      	strh	r3, [r7, #10]

  for (size_t i = 0; i < length; ++i) {
    2ca2:	2300      	movs	r3, #0
    2ca4:	613b      	str	r3, [r7, #16]
    2ca6:	693a      	ldr	r2, [r7, #16]
    2ca8:	683b      	ldr	r3, [r7, #0]
    2caa:	429a      	cmp	r2, r3
    2cac:	d228      	bcs.n	2d00 <Crc16(unsigned char const*, unsigned int)+0x74>
    crc ^= (data[i] << 8); // XOR byte into the top byte of the 16-bit CRC
    2cae:	687a      	ldr	r2, [r7, #4]
    2cb0:	693b      	ldr	r3, [r7, #16]
    2cb2:	4413      	add	r3, r2
    2cb4:	781b      	ldrb	r3, [r3, #0]
    2cb6:	021b      	lsls	r3, r3, #8
    2cb8:	b21a      	sxth	r2, r3
    2cba:	f9b7 3016 	ldrsh.w	r3, [r7, #22]
    2cbe:	4053      	eors	r3, r2
    2cc0:	b21b      	sxth	r3, r3
    2cc2:	82fb      	strh	r3, [r7, #22]

    for (int bit = 0; bit < 8; ++bit) {
    2cc4:	2300      	movs	r3, #0
    2cc6:	60fb      	str	r3, [r7, #12]
    2cc8:	68fb      	ldr	r3, [r7, #12]
    2cca:	2b07      	cmp	r3, #7
    2ccc:	dc14      	bgt.n	2cf8 <Crc16(unsigned char const*, unsigned int)+0x6c>
      if (crc & 0x8000) { // If the top bit is set
    2cce:	f9b7 3016 	ldrsh.w	r3, [r7, #22]
    2cd2:	2b00      	cmp	r3, #0
    2cd4:	da09      	bge.n	2cea <Crc16(unsigned char const*, unsigned int)+0x5e>
        crc = (crc << 1) ^ polynomial;
    2cd6:	8afb      	ldrh	r3, [r7, #22]
    2cd8:	005b      	lsls	r3, r3, #1
    2cda:	b21b      	sxth	r3, r3
    2cdc:	f483 5381 	eor.w	r3, r3, #4128	; 0x1020
    2ce0:	f083 0301 	eor.w	r3, r3, #1
    2ce4:	b21b      	sxth	r3, r3
    2ce6:	82fb      	strh	r3, [r7, #22]
    2ce8:	e002      	b.n	2cf0 <Crc16(unsigned char const*, unsigned int)+0x64>
      } else {
        crc <<= 1;
    2cea:	8afb      	ldrh	r3, [r7, #22]
    2cec:	005b      	lsls	r3, r3, #1
    2cee:	82fb      	strh	r3, [r7, #22]
    for (int bit = 0; bit < 8; ++bit) {
    2cf0:	68fb      	ldr	r3, [r7, #12]
    2cf2:	3301      	adds	r3, #1
    2cf4:	60fb      	str	r3, [r7, #12]
    2cf6:	e7e7      	b.n	2cc8 <Crc16(unsigned char const*, unsigned int)+0x3c>
  for (size_t i = 0; i < length; ++i) {
    2cf8:	693b      	ldr	r3, [r7, #16]
    2cfa:	3301      	adds	r3, #1
    2cfc:	613b      	str	r3, [r7, #16]
    2cfe:	e7d2      	b.n	2ca6 <Crc16(unsigned char const*, unsigned int)+0x1a>
      }
    }
  }

  return crc;
    2d00:	8afb      	ldrh	r3, [r7, #22]
}
    2d02:	4618      	mov	r0, r3
    2d04:	371c      	adds	r7, #28
    2d06:	46bd      	mov	sp, r7
    2d08:	bc80      	pop	{r7}
    2d0a:	4770      	bx	lr

00002d0c <TestCrc()>:

void TestCrc() {
    2d0c:	b580      	push	{r7, lr}
    2d0e:	b084      	sub	sp, #16
    2d10:	af00      	add	r7, sp, #0
  printf("# Test: CRC\n");
    2d12:	4810      	ldr	r0, [pc, #64]	; (2d54 <TestCrc()+0x48>)
    2d14:	f009 ff82 	bl	cc1c <puts>

  // Test data
  char data[] = "123456789";
    2d18:	4a0f      	ldr	r2, [pc, #60]	; (2d58 <TestCrc()+0x4c>)
    2d1a:	463b      	mov	r3, r7
    2d1c:	ca07      	ldmia	r2, {r0, r1, r2}
    2d1e:	c303      	stmia	r3!, {r0, r1}
    2d20:	801a      	strh	r2, [r3, #0]
  size_t length = sizeof(data) / sizeof(data[0]) - 1U; // -1 to exclude null terminator
    2d22:	2309      	movs	r3, #9
    2d24:	60fb      	str	r3, [r7, #12]

  // Calculate CRC16
  uint16_t result = Crc16(reinterpret_cast<uint8_t *>(data), length);
    2d26:	463b      	mov	r3, r7
    2d28:	68f9      	ldr	r1, [r7, #12]
    2d2a:	4618      	mov	r0, r3
    2d2c:	f7ff ffae 	bl	2c8c <Crc16(unsigned char const*, unsigned int)>
    2d30:	4603      	mov	r3, r0
    2d32:	817b      	strh	r3, [r7, #10]

  // printf("CRC16: 0x%X\n", result);
  assert(result == 0x29B1);
    2d34:	897b      	ldrh	r3, [r7, #10]
    2d36:	f642 12b1 	movw	r2, #10673	; 0x29b1
    2d3a:	4293      	cmp	r3, r2
    2d3c:	d005      	beq.n	2d4a <TestCrc()+0x3e>
    2d3e:	4b07      	ldr	r3, [pc, #28]	; (2d5c <TestCrc()+0x50>)
    2d40:	4a07      	ldr	r2, [pc, #28]	; (2d60 <TestCrc()+0x54>)
    2d42:	2124      	movs	r1, #36	; 0x24
    2d44:	4807      	ldr	r0, [pc, #28]	; (2d64 <TestCrc()+0x58>)
    2d46:	f008 fec3 	bl	bad0 <__assert_func>
    2d4a:	bf00      	nop
    2d4c:	3710      	adds	r7, #16
    2d4e:	46bd      	mov	sp, r7
    2d50:	bd80      	pop	{r7, pc}
    2d52:	bf00      	nop
    2d54:	000189f4 	.word	0x000189f4
    2d58:	00018a68 	.word	0x00018a68
    2d5c:	00018a00 	.word	0x00018a00
    2d60:	00018a14 	.word	0x00018a14
    2d64:	00018a24 	.word	0x00018a24

00002d68 <TestHeap()>:
#include <stdint.h>
#include <stdio.h>
#include <stdlib.h>

static constexpr uint32_t kAllocCycles = 33U;
void TestHeap() {
    2d68:	b580      	push	{r7, lr}
    2d6a:	b088      	sub	sp, #32
    2d6c:	af00      	add	r7, sp, #0
  printf("# Test: Heap\n");
    2d6e:	4843      	ldr	r0, [pc, #268]	; (2e7c <TestHeap()+0x114>)
    2d70:	f009 ff54 	bl	cc1c <puts>

  // get pointer to the actual heap start
  void *heap = malloc(1U);
    2d74:	2001      	movs	r0, #1
    2d76:	f009 f9df 	bl	c138 <malloc>
    2d7a:	4603      	mov	r3, r0
    2d7c:	61bb      	str	r3, [r7, #24]
  void *heap_start = heap;
    2d7e:	69bb      	ldr	r3, [r7, #24]
    2d80:	617b      	str	r3, [r7, #20]
  free(heap);
    2d82:	69b8      	ldr	r0, [r7, #24]
    2d84:	f009 f9e0 	bl	c148 <free>

  // Test data
  for (uint32_t i = 0u; i < kAllocCycles; i++) {
    2d88:	2300      	movs	r3, #0
    2d8a:	61fb      	str	r3, [r7, #28]
    2d8c:	69fb      	ldr	r3, [r7, #28]
    2d8e:	2b20      	cmp	r3, #32
    2d90:	d85e      	bhi.n	2e50 <TestHeap()+0xe8>
    uint32_t *p1 = new uint32_t;
    2d92:	2004      	movs	r0, #4
    2d94:	f000 f994 	bl	30c0 <operator new(unsigned int)>
    2d98:	4603      	mov	r3, r0
    2d9a:	613b      	str	r3, [r7, #16]
    uint16_t *p2 = new uint16_t;
    2d9c:	2002      	movs	r0, #2
    2d9e:	f000 f98f 	bl	30c0 <operator new(unsigned int)>
    2da2:	4603      	mov	r3, r0
    2da4:	60fb      	str	r3, [r7, #12]
    uint8_t *p3 = new uint8_t;
    2da6:	2001      	movs	r0, #1
    2da8:	f000 f98a 	bl	30c0 <operator new(unsigned int)>
    2dac:	4603      	mov	r3, r0
    2dae:	60bb      	str	r3, [r7, #8]
    void *p4 = malloc(97U); // 97 is a prime number
    2db0:	2061      	movs	r0, #97	; 0x61
    2db2:	f009 f9c1 	bl	c138 <malloc>
    2db6:	4603      	mov	r3, r0
    2db8:	607b      	str	r3, [r7, #4]

    assert(p1 != nullptr);
    2dba:	693b      	ldr	r3, [r7, #16]
    2dbc:	2b00      	cmp	r3, #0
    2dbe:	d105      	bne.n	2dcc <TestHeap()+0x64>
    2dc0:	4b2f      	ldr	r3, [pc, #188]	; (2e80 <TestHeap()+0x118>)
    2dc2:	4a30      	ldr	r2, [pc, #192]	; (2e84 <TestHeap()+0x11c>)
    2dc4:	2117      	movs	r1, #23
    2dc6:	4830      	ldr	r0, [pc, #192]	; (2e88 <TestHeap()+0x120>)
    2dc8:	f008 fe82 	bl	bad0 <__assert_func>
    assert(p2 != nullptr);
    2dcc:	68fb      	ldr	r3, [r7, #12]
    2dce:	2b00      	cmp	r3, #0
    2dd0:	d105      	bne.n	2dde <TestHeap()+0x76>
    2dd2:	4b2e      	ldr	r3, [pc, #184]	; (2e8c <TestHeap()+0x124>)
    2dd4:	4a2b      	ldr	r2, [pc, #172]	; (2e84 <TestHeap()+0x11c>)
    2dd6:	2118      	movs	r1, #24
    2dd8:	482b      	ldr	r0, [pc, #172]	; (2e88 <TestHeap()+0x120>)
    2dda:	f008 fe79 	bl	bad0 <__assert_func>
    assert(p3 != nullptr);
    2dde:	68bb      	ldr	r3, [r7, #8]
    2de0:	2b00      	cmp	r3, #0
    2de2:	d105      	bne.n	2df0 <TestHeap()+0x88>
    2de4:	4b2a      	ldr	r3, [pc, #168]	; (2e90 <TestHeap()+0x128>)
    2de6:	4a27      	ldr	r2, [pc, #156]	; (2e84 <TestHeap()+0x11c>)
    2de8:	2119      	movs	r1, #25
    2dea:	4827      	ldr	r0, [pc, #156]	; (2e88 <TestHeap()+0x120>)
    2dec:	f008 fe70 	bl	bad0 <__assert_func>
    assert(p4 != nullptr);
    2df0:	687b      	ldr	r3, [r7, #4]
    2df2:	2b00      	cmp	r3, #0
    2df4:	d105      	bne.n	2e02 <TestHeap()+0x9a>
    2df6:	4b27      	ldr	r3, [pc, #156]	; (2e94 <TestHeap()+0x12c>)
    2df8:	4a22      	ldr	r2, [pc, #136]	; (2e84 <TestHeap()+0x11c>)
    2dfa:	211a      	movs	r1, #26
    2dfc:	4822      	ldr	r0, [pc, #136]	; (2e88 <TestHeap()+0x120>)
    2dfe:	f008 fe67 	bl	bad0 <__assert_func>
    *p1 = i;
    2e02:	693b      	ldr	r3, [r7, #16]
    2e04:	69fa      	ldr	r2, [r7, #28]
    2e06:	601a      	str	r2, [r3, #0]
    *p2 = i;
    2e08:	69fb      	ldr	r3, [r7, #28]
    2e0a:	b29a      	uxth	r2, r3
    2e0c:	68fb      	ldr	r3, [r7, #12]
    2e0e:	801a      	strh	r2, [r3, #0]
    *p3 = i;
    2e10:	69fb      	ldr	r3, [r7, #28]
    2e12:	b2da      	uxtb	r2, r3
    2e14:	68bb      	ldr	r3, [r7, #8]
    2e16:	701a      	strb	r2, [r3, #0]

    delete p1;
    2e18:	693b      	ldr	r3, [r7, #16]
    2e1a:	2b00      	cmp	r3, #0
